
bootloader06.elf:     file format elf32-littlearm


Disassembly of section .text:

00008000 <_start>:
    8000:	ea07dffe 	b	200000 <skip>
	...

00200000 <skip>:
  200000:	e3a0d302 	mov	sp, #134217728	; 0x8000000
  200004:	eb0000a6 	bl	2002a4 <notmain>

00200008 <hang>:
  200008:	eafffffe 	b	200008 <hang>

0020000c <PUT32>:
  20000c:	e5801000 	str	r1, [r0]
  200010:	e12fff1e 	bx	lr

00200014 <PUT16>:
  200014:	e1c010b0 	strh	r1, [r0]
  200018:	e12fff1e 	bx	lr

0020001c <PUT8>:
  20001c:	e5c01000 	strb	r1, [r0]
  200020:	e12fff1e 	bx	lr

00200024 <GET32>:
  200024:	e5900000 	ldr	r0, [r0]
  200028:	e12fff1e 	bx	lr

0020002c <GETPC>:
  20002c:	e1a0000e 	mov	r0, lr
  200030:	e12fff1e 	bx	lr

00200034 <BRANCHTO>:
  200034:	e12fff10 	bx	r0

00200038 <dummy>:
  200038:	e12fff1e 	bx	lr

0020003c <uart_lcr>:
  20003c:	e92d4008 	push	{r3, lr}
  200040:	e59f0008 	ldr	r0, [pc, #8]	; 200050 <uart_lcr+0x14>
  200044:	ebfffff6 	bl	200024 <GET32>
  200048:	e8bd4008 	pop	{r3, lr}
  20004c:	e12fff1e 	bx	lr
  200050:	20215054 	eorcs	r5, r1, r4, asr r0

00200054 <uart_recv>:
  200054:	e92d4008 	push	{r3, lr}
  200058:	e59f001c 	ldr	r0, [pc, #28]	; 20007c <uart_recv+0x28>
  20005c:	ebfffff0 	bl	200024 <GET32>
  200060:	e3100001 	tst	r0, #1
  200064:	0afffffb 	beq	200058 <uart_recv+0x4>
  200068:	e59f0010 	ldr	r0, [pc, #16]	; 200080 <uart_recv+0x2c>
  20006c:	ebffffec 	bl	200024 <GET32>
  200070:	e8bd4008 	pop	{r3, lr}
  200074:	e20000ff 	and	r0, r0, #255	; 0xff
  200078:	e12fff1e 	bx	lr
  20007c:	20215054 	eorcs	r5, r1, r4, asr r0
  200080:	20215040 	eorcs	r5, r1, r0, asr #32

00200084 <uart_check>:
  200084:	e92d4008 	push	{r3, lr}
  200088:	e59f000c 	ldr	r0, [pc, #12]	; 20009c <uart_check+0x18>
  20008c:	ebffffe4 	bl	200024 <GET32>
  200090:	e8bd4008 	pop	{r3, lr}
  200094:	e2000001 	and	r0, r0, #1
  200098:	e12fff1e 	bx	lr
  20009c:	20215054 	eorcs	r5, r1, r4, asr r0

002000a0 <uart_send>:
  2000a0:	e92d4010 	push	{r4, lr}
  2000a4:	e1a04000 	mov	r4, r0
  2000a8:	e59f001c 	ldr	r0, [pc, #28]	; 2000cc <uart_send+0x2c>
  2000ac:	ebffffdc 	bl	200024 <GET32>
  2000b0:	e3100020 	tst	r0, #32
  2000b4:	0afffffb 	beq	2000a8 <uart_send+0x8>
  2000b8:	e1a01004 	mov	r1, r4
  2000bc:	e59f000c 	ldr	r0, [pc, #12]	; 2000d0 <uart_send+0x30>
  2000c0:	ebffffd1 	bl	20000c <PUT32>
  2000c4:	e8bd4010 	pop	{r4, lr}
  2000c8:	e12fff1e 	bx	lr
  2000cc:	20215054 	eorcs	r5, r1, r4, asr r0
  2000d0:	20215040 	eorcs	r5, r1, r0, asr #32

002000d4 <uart_flush>:
  2000d4:	e92d4008 	push	{r3, lr}
  2000d8:	e59f0010 	ldr	r0, [pc, #16]	; 2000f0 <uart_flush+0x1c>
  2000dc:	ebffffd0 	bl	200024 <GET32>
  2000e0:	e3100c01 	tst	r0, #256	; 0x100
  2000e4:	1afffffb 	bne	2000d8 <uart_flush+0x4>
  2000e8:	e8bd4008 	pop	{r3, lr}
  2000ec:	e12fff1e 	bx	lr
  2000f0:	20215054 	eorcs	r5, r1, r4, asr r0

002000f4 <hexstrings>:
  2000f4:	e92d4038 	push	{r3, r4, r5, lr}
  2000f8:	e1a05000 	mov	r5, r0
  2000fc:	e3a04020 	mov	r4, #32
  200100:	e2444004 	sub	r4, r4, #4
  200104:	e1a03435 	lsr	r3, r5, r4
  200108:	e203300f 	and	r3, r3, #15
  20010c:	e3530009 	cmp	r3, #9
  200110:	82830037 	addhi	r0, r3, #55	; 0x37
  200114:	92830030 	addls	r0, r3, #48	; 0x30
  200118:	ebffffe0 	bl	2000a0 <uart_send>
  20011c:	e3540000 	cmp	r4, #0
  200120:	1afffff6 	bne	200100 <hexstrings+0xc>
  200124:	e3a00020 	mov	r0, #32
  200128:	e8bd4038 	pop	{r3, r4, r5, lr}
  20012c:	eaffffdb 	b	2000a0 <uart_send>

00200130 <hexstring>:
  200130:	e92d4008 	push	{r3, lr}
  200134:	ebffffee 	bl	2000f4 <hexstrings>
  200138:	e3a0000d 	mov	r0, #13
  20013c:	ebffffd7 	bl	2000a0 <uart_send>
  200140:	e3a0000a 	mov	r0, #10
  200144:	e8bd4008 	pop	{r3, lr}
  200148:	eaffffd4 	b	2000a0 <uart_send>

0020014c <uart_init>:
  20014c:	e92d4010 	push	{r4, lr}
  200150:	e59f00d8 	ldr	r0, [pc, #216]	; 200230 <uart_init+0xe4>
  200154:	e3a01001 	mov	r1, #1
  200158:	ebffffab 	bl	20000c <PUT32>
  20015c:	e59f00d0 	ldr	r0, [pc, #208]	; 200234 <uart_init+0xe8>
  200160:	e3a01000 	mov	r1, #0
  200164:	ebffffa8 	bl	20000c <PUT32>
  200168:	e59f00c8 	ldr	r0, [pc, #200]	; 200238 <uart_init+0xec>
  20016c:	e3a01000 	mov	r1, #0
  200170:	ebffffa5 	bl	20000c <PUT32>
  200174:	e59f00c0 	ldr	r0, [pc, #192]	; 20023c <uart_init+0xf0>
  200178:	e3a01003 	mov	r1, #3
  20017c:	ebffffa2 	bl	20000c <PUT32>
  200180:	e59f00b8 	ldr	r0, [pc, #184]	; 200240 <uart_init+0xf4>
  200184:	e3a01000 	mov	r1, #0
  200188:	ebffff9f 	bl	20000c <PUT32>
  20018c:	e59f00a0 	ldr	r0, [pc, #160]	; 200234 <uart_init+0xe8>
  200190:	e3a01000 	mov	r1, #0
  200194:	ebffff9c 	bl	20000c <PUT32>
  200198:	e59f00a4 	ldr	r0, [pc, #164]	; 200244 <uart_init+0xf8>
  20019c:	e3a010c6 	mov	r1, #198	; 0xc6
  2001a0:	ebffff99 	bl	20000c <PUT32>
  2001a4:	e59f109c 	ldr	r1, [pc, #156]	; 200248 <uart_init+0xfc>
  2001a8:	e59f009c 	ldr	r0, [pc, #156]	; 20024c <uart_init+0x100>
  2001ac:	ebffff96 	bl	20000c <PUT32>
  2001b0:	e59f0098 	ldr	r0, [pc, #152]	; 200250 <uart_init+0x104>
  2001b4:	ebffff9a 	bl	200024 <GET32>
  2001b8:	e3c01a3f 	bic	r1, r0, #258048	; 0x3f000
  2001bc:	e3811a12 	orr	r1, r1, #73728	; 0x12000
  2001c0:	e59f0088 	ldr	r0, [pc, #136]	; 200250 <uart_init+0x104>
  2001c4:	ebffff90 	bl	20000c <PUT32>
  2001c8:	e59f0084 	ldr	r0, [pc, #132]	; 200254 <uart_init+0x108>
  2001cc:	e3a01000 	mov	r1, #0
  2001d0:	ebffff8d 	bl	20000c <PUT32>
  2001d4:	e3a04000 	mov	r4, #0
  2001d8:	e1a00004 	mov	r0, r4
  2001dc:	e2844001 	add	r4, r4, #1
  2001e0:	ebffff94 	bl	200038 <dummy>
  2001e4:	e3540096 	cmp	r4, #150	; 0x96
  2001e8:	1afffffa 	bne	2001d8 <uart_init+0x8c>
  2001ec:	e59f0064 	ldr	r0, [pc, #100]	; 200258 <uart_init+0x10c>
  2001f0:	e3a01903 	mov	r1, #49152	; 0xc000
  2001f4:	ebffff84 	bl	20000c <PUT32>
  2001f8:	e3a04000 	mov	r4, #0
  2001fc:	e1a00004 	mov	r0, r4
  200200:	e2844001 	add	r4, r4, #1
  200204:	ebffff8b 	bl	200038 <dummy>
  200208:	e3540096 	cmp	r4, #150	; 0x96
  20020c:	1afffffa 	bne	2001fc <uart_init+0xb0>
  200210:	e59f0040 	ldr	r0, [pc, #64]	; 200258 <uart_init+0x10c>
  200214:	e3a01000 	mov	r1, #0
  200218:	ebffff7b 	bl	20000c <PUT32>
  20021c:	e59f0014 	ldr	r0, [pc, #20]	; 200238 <uart_init+0xec>
  200220:	e3a01003 	mov	r1, #3
  200224:	ebffff78 	bl	20000c <PUT32>
  200228:	e8bd4010 	pop	{r4, lr}
  20022c:	e12fff1e 	bx	lr
  200230:	20215004 	eorcs	r5, r1, r4
  200234:	20215044 	eorcs	r5, r1, r4, asr #32
  200238:	20215060 	eorcs	r5, r1, r0, rrx
  20023c:	2021504c 	eorcs	r5, r1, ip, asr #32
  200240:	20215050 	eorcs	r5, r1, r0, asr r0
  200244:	20215048 	eorcs	r5, r1, r8, asr #32
  200248:	0000010e 	andeq	r0, r0, lr, lsl #2
  20024c:	20215068 	eorcs	r5, r1, r8, rrx
  200250:	20200004 	eorcs	r0, r0, r4
  200254:	20200094 	mlacs	r0, r4, r0, r0
  200258:	20200098 	mlacs	r0, r8, r0, r0

0020025c <timer_init>:
  20025c:	e92d4010 	push	{r4, lr}
  200260:	e59f401c 	ldr	r4, [pc, #28]	; 200284 <timer_init+0x28>
  200264:	e3a018f9 	mov	r1, #16318464	; 0xf90000
  200268:	e1a00004 	mov	r0, r4
  20026c:	ebffff66 	bl	20000c <PUT32>
  200270:	e1a00004 	mov	r0, r4
  200274:	e59f100c 	ldr	r1, [pc, #12]	; 200288 <timer_init+0x2c>
  200278:	ebffff63 	bl	20000c <PUT32>
  20027c:	e8bd4010 	pop	{r4, lr}
  200280:	e12fff1e 	bx	lr
  200284:	2000b408 	andcs	fp, r0, r8, lsl #8
  200288:	00f90200 	rscseq	r0, r9, r0, lsl #4

0020028c <timer_tick>:
  20028c:	e92d4008 	push	{r3, lr}
  200290:	e59f0008 	ldr	r0, [pc, #8]	; 2002a0 <timer_tick+0x14>
  200294:	ebffff62 	bl	200024 <GET32>
  200298:	e8bd4008 	pop	{r3, lr}
  20029c:	e12fff1e 	bx	lr
  2002a0:	2000b420 	andcs	fp, r0, r0, lsr #8

002002a4 <notmain>:
  2002a4:	e92d47f0 	push	{r4, r5, r6, r7, r8, r9, sl, lr}
  2002a8:	ebffffa7 	bl	20014c <uart_init>
  2002ac:	e59f0238 	ldr	r0, [pc, #568]	; 2004ec <notmain+0x248>
  2002b0:	ebffff9e 	bl	200130 <hexstring>
  2002b4:	ebffff5c 	bl	20002c <GETPC>
  2002b8:	ebffff9c 	bl	200130 <hexstring>
  2002bc:	e3a00902 	mov	r0, #32768	; 0x8000
  2002c0:	ebffff9a 	bl	200130 <hexstring>
  2002c4:	ebffffe4 	bl	20025c <timer_init>
  2002c8:	e59fa220 	ldr	sl, [pc, #544]	; 2004f0 <notmain+0x24c>
  2002cc:	e59f9220 	ldr	r9, [pc, #544]	; 2004f4 <notmain+0x250>
  2002d0:	e3a00015 	mov	r0, #21
  2002d4:	ebffff71 	bl	2000a0 <uart_send>
  2002d8:	ebffffeb 	bl	20028c <timer_tick>
  2002dc:	e1a04000 	mov	r4, r0
  2002e0:	ea000002 	b	2002f0 <notmain+0x4c>
  2002e4:	ebffff66 	bl	200084 <uart_check>
  2002e8:	e3500000 	cmp	r0, #0
  2002ec:	1a00000a 	bne	20031c <notmain+0x78>
  2002f0:	ebffffe5 	bl	20028c <timer_tick>
  2002f4:	e0640000 	rsb	r0, r4, r0
  2002f8:	e150000a 	cmp	r0, sl
  2002fc:	9afffff8 	bls	2002e4 <notmain+0x40>
  200300:	e3a00015 	mov	r0, #21
  200304:	ebffff65 	bl	2000a0 <uart_send>
  200308:	ebffff5d 	bl	200084 <uart_check>
  20030c:	e284483d 	add	r4, r4, #3997696	; 0x3d0000
  200310:	e3500000 	cmp	r0, #0
  200314:	e2844c09 	add	r4, r4, #2304	; 0x900
  200318:	0afffff4 	beq	2002f0 <notmain+0x4c>
  20031c:	e3a08902 	mov	r8, #32768	; 0x8000
  200320:	e3a06000 	mov	r6, #0
  200324:	e3a040c0 	mov	r4, #192	; 0xc0
  200328:	e3a07001 	mov	r7, #1
  20032c:	ebffff48 	bl	200054 <uart_recv>
  200330:	e35400c0 	cmp	r4, #192	; 0xc0
  200334:	e1a05000 	mov	r5, r0
  200338:	0a000026 	beq	2003d8 <notmain+0x134>
  20033c:	9a00005e 	bls	2004bc <notmain+0x218>
  200340:	e35400c1 	cmp	r4, #193	; 0xc1
  200344:	0a000057 	beq	2004a8 <notmain+0x204>
  200348:	e35400c2 	cmp	r4, #194	; 0xc2
  20034c:	1a00004f 	bne	200490 <notmain+0x1ec>
  200350:	e26730ff 	rsb	r3, r7, #255	; 0xff
  200354:	e1530000 	cmp	r3, r0
  200358:	0a000049 	beq	200484 <notmain+0x1e0>
  20035c:	e3a00018 	mov	r0, #24
  200360:	ebffff4e 	bl	2000a0 <uart_send>
  200364:	e3a00018 	mov	r0, #24
  200368:	ebffff4c 	bl	2000a0 <uart_send>
  20036c:	e3a00018 	mov	r0, #24
  200370:	ebffff4a 	bl	2000a0 <uart_send>
  200374:	e3a00018 	mov	r0, #24
  200378:	ebffff48 	bl	2000a0 <uart_send>
  20037c:	e3a00018 	mov	r0, #24
  200380:	ebffff46 	bl	2000a0 <uart_send>
  200384:	ebffffc0 	bl	20028c <timer_tick>
  200388:	e1a04000 	mov	r4, r0
  20038c:	ebffffbe 	bl	20028c <timer_tick>
  200390:	e0640000 	rsb	r0, r4, r0
  200394:	e1500009 	cmp	r0, r9
  200398:	9afffffb 	bls	20038c <notmain+0xe8>
  20039c:	e3a0000d 	mov	r0, #13
  2003a0:	ebffff3e 	bl	2000a0 <uart_send>
  2003a4:	e3a0000a 	mov	r0, #10
  2003a8:	ebffff3c 	bl	2000a0 <uart_send>
  2003ac:	e3a0000a 	mov	r0, #10
  2003b0:	ebffff3a 	bl	2000a0 <uart_send>
  2003b4:	e59f013c 	ldr	r0, [pc, #316]	; 2004f8 <notmain+0x254>
  2003b8:	ebffff5c 	bl	200130 <hexstring>
  2003bc:	ebffff44 	bl	2000d4 <uart_flush>
  2003c0:	ea000000 	b	2003c8 <notmain+0x124>
  2003c4:	ebffff22 	bl	200054 <uart_recv>
  2003c8:	ebffff2d 	bl	200084 <uart_check>
  2003cc:	e3500000 	cmp	r0, #0
  2003d0:	1afffffb 	bne	2003c4 <notmain+0x120>
  2003d4:	eaffffbd 	b	2002d0 <notmain+0x2c>
  2003d8:	e3500001 	cmp	r0, #1
  2003dc:	0a000025 	beq	200478 <notmain+0x1d4>
  2003e0:	e3500004 	cmp	r0, #4
  2003e4:	1affffdc 	bne	20035c <notmain+0xb8>
  2003e8:	e3a00006 	mov	r0, #6
  2003ec:	ebffff2b 	bl	2000a0 <uart_send>
  2003f0:	ebffffa5 	bl	20028c <timer_tick>
  2003f4:	e59f40f8 	ldr	r4, [pc, #248]	; 2004f4 <notmain+0x250>
  2003f8:	e1a05000 	mov	r5, r0
  2003fc:	ebffffa2 	bl	20028c <timer_tick>
  200400:	e0650000 	rsb	r0, r5, r0
  200404:	e1500004 	cmp	r0, r4
  200408:	9afffffb 	bls	2003fc <notmain+0x158>
  20040c:	e3a0000d 	mov	r0, #13
  200410:	ebffff22 	bl	2000a0 <uart_send>
  200414:	e3a0000a 	mov	r0, #10
  200418:	ebffff20 	bl	2000a0 <uart_send>
  20041c:	e3a0000a 	mov	r0, #10
  200420:	ebffff1e 	bl	2000a0 <uart_send>
  200424:	e59f00d0 	ldr	r0, [pc, #208]	; 2004fc <notmain+0x258>
  200428:	ebffff40 	bl	200130 <hexstring>
  20042c:	ebffff08 	bl	200054 <uart_recv>
  200430:	e3c00020 	bic	r0, r0, #32
  200434:	e3500047 	cmp	r0, #71	; 0x47
  200438:	1afffffb 	bne	20042c <notmain+0x188>
  20043c:	e3a0000d 	mov	r0, #13
  200440:	ebffff16 	bl	2000a0 <uart_send>
  200444:	e3a0002d 	mov	r0, #45	; 0x2d
  200448:	ebffff14 	bl	2000a0 <uart_send>
  20044c:	e3a0002d 	mov	r0, #45	; 0x2d
  200450:	ebffff12 	bl	2000a0 <uart_send>
  200454:	e3a0000d 	mov	r0, #13
  200458:	ebffff10 	bl	2000a0 <uart_send>
  20045c:	e3a0000a 	mov	r0, #10
  200460:	ebffff0e 	bl	2000a0 <uart_send>
  200464:	e3a0000a 	mov	r0, #10
  200468:	ebffff0c 	bl	2000a0 <uart_send>
  20046c:	e3a00902 	mov	r0, #32768	; 0x8000
  200470:	ebfffeef 	bl	200034 <BRANCHTO>
  200474:	eaffffec 	b	20042c <notmain+0x188>
  200478:	e3a040c1 	mov	r4, #193	; 0xc1
  20047c:	e1a06005 	mov	r6, r5
  200480:	eaffffa9 	b	20032c <notmain+0x88>
  200484:	e0805006 	add	r5, r0, r6
  200488:	e3a04000 	mov	r4, #0
  20048c:	eafffffa 	b	20047c <notmain+0x1d8>
  200490:	e7c85004 	strb	r5, [r8, r4]
  200494:	e2844001 	add	r4, r4, #1
  200498:	e35400ff 	cmp	r4, #255	; 0xff
  20049c:	e0866005 	add	r6, r6, r5
  2004a0:	1affffa1 	bne	20032c <notmain+0x88>
  2004a4:	eaffffac 	b	20035c <notmain+0xb8>
  2004a8:	e1500007 	cmp	r0, r7
  2004ac:	1affffaa 	bne	20035c <notmain+0xb8>
  2004b0:	e0865007 	add	r5, r6, r7
  2004b4:	e3a040c2 	mov	r4, #194	; 0xc2
  2004b8:	eaffffef 	b	20047c <notmain+0x1d8>
  2004bc:	e3540080 	cmp	r4, #128	; 0x80
  2004c0:	1afffff2 	bne	200490 <notmain+0x1ec>
  2004c4:	e20660ff 	and	r6, r6, #255	; 0xff
  2004c8:	e1500006 	cmp	r0, r6
  2004cc:	1affffa2 	bne	20035c <notmain+0xb8>
  2004d0:	e3a00006 	mov	r0, #6
  2004d4:	e2877001 	add	r7, r7, #1
  2004d8:	ebfffef0 	bl	2000a0 <uart_send>
  2004dc:	e2888080 	add	r8, r8, #128	; 0x80
  2004e0:	e20770ff 	and	r7, r7, #255	; 0xff
  2004e4:	e3a040c0 	mov	r4, #192	; 0xc0
  2004e8:	eaffffe3 	b	20047c <notmain+0x1d8>
  2004ec:	12345678 	eorsne	r5, r4, #120, 12	; 0x7800000
  2004f0:	003d08ff 	ldrshteq	r0, [sp], -pc
  2004f4:	001e847f 	andseq	r8, lr, pc, ror r4
  2004f8:	00badbad 	adcseq	sp, sl, sp, lsr #23
  2004fc:	dadadada 	ble	ff8b706c <notmain+0xff6b6dc8>

Disassembly of section .ARM.attributes:

00000000 <.ARM.attributes>:
   0:	00002a41 	andeq	r2, r0, r1, asr #20
   4:	61656100 	cmnvs	r5, r0, lsl #2
   8:	01006962 	tsteq	r0, r2, ror #18
   c:	00000020 	andeq	r0, r0, r0, lsr #32
  10:	4d524105 	ldfmie	f4, [r2, #-20]	; 0xffffffec
  14:	54347620 	ldrtpl	r7, [r4], #-1568	; 0x620
  18:	08020600 	stmdaeq	r2, {r9, sl}
  1c:	12010901 	andne	r0, r1, #16384	; 0x4000
  20:	15011404 	strne	r1, [r1, #-1028]	; 0x404
  24:	18031701 	stmdane	r3, {r0, r8, r9, sl, ip}
  28:	Address 0x0000000000000028 is out of bounds.


Disassembly of section .comment:

00000000 <.comment>:
   0:	3a434347 	bcc	10d0d24 <notmain+0xed0a80>
   4:	4e472820 	cdpmi	8, 4, cr2, cr7, cr0, {1}
   8:	34202955 	strtcc	r2, [r0], #-2389	; 0x955
   c:	332e382e 	teqcc	lr, #3014656	; 0x2e0000
	...
