
video01.elf:     file format elf32-littlearm


Disassembly of section .text:

00008000 <_start>:
    8000:	e3a0d902 	mov	sp, #32768	; 0x8000
    8004:	eb000122 	bl	8494 <notmain>
    8008:	e3a00602 	mov	r0, #2097152	; 0x200000
    800c:	e12fff10 	bx	r0

00008010 <hang>:
    8010:	eafffffe 	b	8010 <hang>

00008014 <PUT32>:
    8014:	e5801000 	str	r1, [r0]
    8018:	e12fff1e 	bx	lr

0000801c <PUT16>:
    801c:	e1c010b0 	strh	r1, [r0]
    8020:	e12fff1e 	bx	lr

00008024 <PUT8>:
    8024:	e5c01000 	strb	r1, [r0]
    8028:	e12fff1e 	bx	lr

0000802c <GET32>:
    802c:	e5900000 	ldr	r0, [r0]
    8030:	e12fff1e 	bx	lr

00008034 <GETPC>:
    8034:	e1a0000e 	mov	r0, lr
    8038:	e12fff1e 	bx	lr

0000803c <dummy>:
    803c:	e12fff1e 	bx	lr

00008040 <start_l1cache>:
    8040:	e3a00000 	mov	r0, #0
    8044:	ee070f17 	mcr	15, 0, r0, cr7, cr7, {0}
    8048:	ee080f17 	mcr	15, 0, r0, cr8, cr7, {0}
    804c:	ee110f10 	mrc	15, 0, r0, cr1, cr0, {0}
    8050:	e3800a01 	orr	r0, r0, #4096	; 0x1000
    8054:	e3800004 	orr	r0, r0, #4
    8058:	ee010f10 	mcr	15, 0, r0, cr1, cr0, {0}
    805c:	e12fff1e 	bx	lr

00008060 <stop_l1cache>:
    8060:	ee110f10 	mrc	15, 0, r0, cr1, cr0, {0}
    8064:	e3c00a01 	bic	r0, r0, #4096	; 0x1000
    8068:	e3c00004 	bic	r0, r0, #4
    806c:	ee010f10 	mcr	15, 0, r0, cr1, cr0, {0}
    8070:	e12fff1e 	bx	lr

00008074 <start_mmu>:
    8074:	e3a02000 	mov	r2, #0
    8078:	ee072f17 	mcr	15, 0, r2, cr7, cr7, {0}
    807c:	ee082f17 	mcr	15, 0, r2, cr8, cr7, {0}
    8080:	e3e02000 	mvn	r2, #0
    8084:	ee032f10 	mcr	15, 0, r2, cr3, cr0, {0}
    8088:	ee020f10 	mcr	15, 0, r0, cr2, cr0, {0}
    808c:	ee020f30 	mcr	15, 0, r0, cr2, cr0, {1}
    8090:	ee112f10 	mrc	15, 0, r2, cr1, cr0, {0}
    8094:	e1822001 	orr	r2, r2, r1
    8098:	ee012f10 	mcr	15, 0, r2, cr1, cr0, {0}
    809c:	e12fff1e 	bx	lr

000080a0 <uart_lcr>:
    80a0:	e92d4008 	push	{r3, lr}
    80a4:	e59f0008 	ldr	r0, [pc, #8]	; 80b4 <uart_lcr+0x14>
    80a8:	ebffffdf 	bl	802c <GET32>
    80ac:	e8bd4008 	pop	{r3, lr}
    80b0:	e12fff1e 	bx	lr
    80b4:	20215054 	eorcs	r5, r1, r4, asr r0

000080b8 <uart_recv>:
    80b8:	e92d4008 	push	{r3, lr}
    80bc:	e59f001c 	ldr	r0, [pc, #28]	; 80e0 <uart_recv+0x28>
    80c0:	ebffffd9 	bl	802c <GET32>
    80c4:	e3100001 	tst	r0, #1
    80c8:	0afffffb 	beq	80bc <uart_recv+0x4>
    80cc:	e59f0010 	ldr	r0, [pc, #16]	; 80e4 <uart_recv+0x2c>
    80d0:	ebffffd5 	bl	802c <GET32>
    80d4:	e20000ff 	and	r0, r0, #255	; 0xff
    80d8:	e8bd4008 	pop	{r3, lr}
    80dc:	e12fff1e 	bx	lr
    80e0:	20215054 	eorcs	r5, r1, r4, asr r0
    80e4:	20215040 	eorcs	r5, r1, r0, asr #32

000080e8 <uart_check>:
    80e8:	e92d4008 	push	{r3, lr}
    80ec:	e59f000c 	ldr	r0, [pc, #12]	; 8100 <uart_check+0x18>
    80f0:	ebffffcd 	bl	802c <GET32>
    80f4:	e2000001 	and	r0, r0, #1
    80f8:	e8bd4008 	pop	{r3, lr}
    80fc:	e12fff1e 	bx	lr
    8100:	20215054 	eorcs	r5, r1, r4, asr r0

00008104 <uart_puts>:
    8104:	e92d4038 	push	{r3, r4, r5, lr}
    8108:	e5d04000 	ldrb	r4, [r0]
    810c:	e3540000 	cmp	r4, #0
    8110:	0a00000a 	beq	8140 <uart_puts+0x3c>
    8114:	e1a05000 	mov	r5, r0
    8118:	e59f0028 	ldr	r0, [pc, #40]	; 8148 <uart_puts+0x44>
    811c:	ebffffc2 	bl	802c <GET32>
    8120:	e3100020 	tst	r0, #32
    8124:	0afffffb 	beq	8118 <uart_puts+0x14>
    8128:	e1a01004 	mov	r1, r4
    812c:	e59f0018 	ldr	r0, [pc, #24]	; 814c <uart_puts+0x48>
    8130:	ebffffb7 	bl	8014 <PUT32>
    8134:	e5f54001 	ldrb	r4, [r5, #1]!
    8138:	e3540000 	cmp	r4, #0
    813c:	1afffff5 	bne	8118 <uart_puts+0x14>
    8140:	e8bd4038 	pop	{r3, r4, r5, lr}
    8144:	e12fff1e 	bx	lr
    8148:	20215054 	eorcs	r5, r1, r4, asr r0
    814c:	20215040 	eorcs	r5, r1, r0, asr #32

00008150 <uart_send>:
    8150:	e92d4010 	push	{r4, lr}
    8154:	e1a04000 	mov	r4, r0
    8158:	e59f001c 	ldr	r0, [pc, #28]	; 817c <uart_send+0x2c>
    815c:	ebffffb2 	bl	802c <GET32>
    8160:	e3100020 	tst	r0, #32
    8164:	0afffffb 	beq	8158 <uart_send+0x8>
    8168:	e59f0010 	ldr	r0, [pc, #16]	; 8180 <uart_send+0x30>
    816c:	e1a01004 	mov	r1, r4
    8170:	ebffffa7 	bl	8014 <PUT32>
    8174:	e8bd4010 	pop	{r4, lr}
    8178:	e12fff1e 	bx	lr
    817c:	20215054 	eorcs	r5, r1, r4, asr r0
    8180:	20215040 	eorcs	r5, r1, r0, asr #32

00008184 <uart_flush>:
    8184:	e92d4008 	push	{r3, lr}
    8188:	e59f0010 	ldr	r0, [pc, #16]	; 81a0 <uart_flush+0x1c>
    818c:	ebffffa6 	bl	802c <GET32>
    8190:	e3100c01 	tst	r0, #256	; 0x100
    8194:	1afffffb 	bne	8188 <uart_flush+0x4>
    8198:	e8bd4008 	pop	{r3, lr}
    819c:	e12fff1e 	bx	lr
    81a0:	20215054 	eorcs	r5, r1, r4, asr r0

000081a4 <hexstrings>:
    81a4:	e92d4070 	push	{r4, r5, r6, lr}
    81a8:	e1a06000 	mov	r6, r0
    81ac:	e3a04020 	mov	r4, #32
    81b0:	e2444004 	sub	r4, r4, #4
    81b4:	e1a01436 	lsr	r1, r6, r4
    81b8:	e201100f 	and	r1, r1, #15
    81bc:	e3510009 	cmp	r1, #9
    81c0:	82815037 	addhi	r5, r1, #55	; 0x37
    81c4:	92815030 	addls	r5, r1, #48	; 0x30
    81c8:	e59f0040 	ldr	r0, [pc, #64]	; 8210 <hexstrings+0x6c>
    81cc:	ebffff96 	bl	802c <GET32>
    81d0:	e3100020 	tst	r0, #32
    81d4:	0afffffb 	beq	81c8 <hexstrings+0x24>
    81d8:	e59f0034 	ldr	r0, [pc, #52]	; 8214 <hexstrings+0x70>
    81dc:	e1a01005 	mov	r1, r5
    81e0:	ebffff8b 	bl	8014 <PUT32>
    81e4:	e3540000 	cmp	r4, #0
    81e8:	1afffff0 	bne	81b0 <hexstrings+0xc>
    81ec:	e59f001c 	ldr	r0, [pc, #28]	; 8210 <hexstrings+0x6c>
    81f0:	ebffff8d 	bl	802c <GET32>
    81f4:	e3100020 	tst	r0, #32
    81f8:	0afffffb 	beq	81ec <hexstrings+0x48>
    81fc:	e59f0010 	ldr	r0, [pc, #16]	; 8214 <hexstrings+0x70>
    8200:	e3a01020 	mov	r1, #32
    8204:	ebffff82 	bl	8014 <PUT32>
    8208:	e8bd4070 	pop	{r4, r5, r6, lr}
    820c:	e12fff1e 	bx	lr
    8210:	20215054 	eorcs	r5, r1, r4, asr r0
    8214:	20215040 	eorcs	r5, r1, r0, asr #32

00008218 <hexstring>:
    8218:	e92d4070 	push	{r4, r5, r6, lr}
    821c:	e1a06000 	mov	r6, r0
    8220:	e3a04020 	mov	r4, #32
    8224:	e2444004 	sub	r4, r4, #4
    8228:	e1a01436 	lsr	r1, r6, r4
    822c:	e201100f 	and	r1, r1, #15
    8230:	e3510009 	cmp	r1, #9
    8234:	82815037 	addhi	r5, r1, #55	; 0x37
    8238:	92815030 	addls	r5, r1, #48	; 0x30
    823c:	e59f0078 	ldr	r0, [pc, #120]	; 82bc <hexstring+0xa4>
    8240:	ebffff79 	bl	802c <GET32>
    8244:	e3100020 	tst	r0, #32
    8248:	0afffffb 	beq	823c <hexstring+0x24>
    824c:	e59f006c 	ldr	r0, [pc, #108]	; 82c0 <hexstring+0xa8>
    8250:	e1a01005 	mov	r1, r5
    8254:	ebffff6e 	bl	8014 <PUT32>
    8258:	e3540000 	cmp	r4, #0
    825c:	1afffff0 	bne	8224 <hexstring+0xc>
    8260:	e59f0054 	ldr	r0, [pc, #84]	; 82bc <hexstring+0xa4>
    8264:	ebffff70 	bl	802c <GET32>
    8268:	e3100020 	tst	r0, #32
    826c:	0afffffb 	beq	8260 <hexstring+0x48>
    8270:	e59f0048 	ldr	r0, [pc, #72]	; 82c0 <hexstring+0xa8>
    8274:	e3a01020 	mov	r1, #32
    8278:	ebffff65 	bl	8014 <PUT32>
    827c:	e59f0038 	ldr	r0, [pc, #56]	; 82bc <hexstring+0xa4>
    8280:	ebffff69 	bl	802c <GET32>
    8284:	e3100020 	tst	r0, #32
    8288:	0afffffb 	beq	827c <hexstring+0x64>
    828c:	e59f002c 	ldr	r0, [pc, #44]	; 82c0 <hexstring+0xa8>
    8290:	e3a0100d 	mov	r1, #13
    8294:	ebffff5e 	bl	8014 <PUT32>
    8298:	e59f001c 	ldr	r0, [pc, #28]	; 82bc <hexstring+0xa4>
    829c:	ebffff62 	bl	802c <GET32>
    82a0:	e3100020 	tst	r0, #32
    82a4:	0afffffb 	beq	8298 <hexstring+0x80>
    82a8:	e59f0010 	ldr	r0, [pc, #16]	; 82c0 <hexstring+0xa8>
    82ac:	e3a0100a 	mov	r1, #10
    82b0:	ebffff57 	bl	8014 <PUT32>
    82b4:	e8bd4070 	pop	{r4, r5, r6, lr}
    82b8:	e12fff1e 	bx	lr
    82bc:	20215054 	eorcs	r5, r1, r4, asr r0
    82c0:	20215040 	eorcs	r5, r1, r0, asr #32

000082c4 <uart_init>:
    82c4:	e92d4010 	push	{r4, lr}
    82c8:	e59f00d8 	ldr	r0, [pc, #216]	; 83a8 <uart_init+0xe4>
    82cc:	e3a01001 	mov	r1, #1
    82d0:	ebffff4f 	bl	8014 <PUT32>
    82d4:	e59f00d0 	ldr	r0, [pc, #208]	; 83ac <uart_init+0xe8>
    82d8:	e3a01000 	mov	r1, #0
    82dc:	ebffff4c 	bl	8014 <PUT32>
    82e0:	e59f00c8 	ldr	r0, [pc, #200]	; 83b0 <uart_init+0xec>
    82e4:	e3a01000 	mov	r1, #0
    82e8:	ebffff49 	bl	8014 <PUT32>
    82ec:	e59f00c0 	ldr	r0, [pc, #192]	; 83b4 <uart_init+0xf0>
    82f0:	e3a01003 	mov	r1, #3
    82f4:	ebffff46 	bl	8014 <PUT32>
    82f8:	e59f00b8 	ldr	r0, [pc, #184]	; 83b8 <uart_init+0xf4>
    82fc:	e3a01000 	mov	r1, #0
    8300:	ebffff43 	bl	8014 <PUT32>
    8304:	e59f00a0 	ldr	r0, [pc, #160]	; 83ac <uart_init+0xe8>
    8308:	e3a01000 	mov	r1, #0
    830c:	ebffff40 	bl	8014 <PUT32>
    8310:	e59f00a4 	ldr	r0, [pc, #164]	; 83bc <uart_init+0xf8>
    8314:	e3a010c6 	mov	r1, #198	; 0xc6
    8318:	ebffff3d 	bl	8014 <PUT32>
    831c:	e59f109c 	ldr	r1, [pc, #156]	; 83c0 <uart_init+0xfc>
    8320:	e59f009c 	ldr	r0, [pc, #156]	; 83c4 <uart_init+0x100>
    8324:	ebffff3a 	bl	8014 <PUT32>
    8328:	e59f0098 	ldr	r0, [pc, #152]	; 83c8 <uart_init+0x104>
    832c:	ebffff3e 	bl	802c <GET32>
    8330:	e3c01a3f 	bic	r1, r0, #258048	; 0x3f000
    8334:	e3811a12 	orr	r1, r1, #73728	; 0x12000
    8338:	e59f0088 	ldr	r0, [pc, #136]	; 83c8 <uart_init+0x104>
    833c:	ebffff34 	bl	8014 <PUT32>
    8340:	e59f0084 	ldr	r0, [pc, #132]	; 83cc <uart_init+0x108>
    8344:	e3a01000 	mov	r1, #0
    8348:	ebffff31 	bl	8014 <PUT32>
    834c:	e3a04000 	mov	r4, #0
    8350:	e1a00004 	mov	r0, r4
    8354:	e2844001 	add	r4, r4, #1
    8358:	ebffff37 	bl	803c <dummy>
    835c:	e3540096 	cmp	r4, #150	; 0x96
    8360:	1afffffa 	bne	8350 <uart_init+0x8c>
    8364:	e59f0064 	ldr	r0, [pc, #100]	; 83d0 <uart_init+0x10c>
    8368:	e3a01903 	mov	r1, #49152	; 0xc000
    836c:	ebffff28 	bl	8014 <PUT32>
    8370:	e3a04000 	mov	r4, #0
    8374:	e1a00004 	mov	r0, r4
    8378:	e2844001 	add	r4, r4, #1
    837c:	ebffff2e 	bl	803c <dummy>
    8380:	e3540096 	cmp	r4, #150	; 0x96
    8384:	1afffffa 	bne	8374 <uart_init+0xb0>
    8388:	e59f0040 	ldr	r0, [pc, #64]	; 83d0 <uart_init+0x10c>
    838c:	e3a01000 	mov	r1, #0
    8390:	ebffff1f 	bl	8014 <PUT32>
    8394:	e59f0014 	ldr	r0, [pc, #20]	; 83b0 <uart_init+0xec>
    8398:	e3a01003 	mov	r1, #3
    839c:	ebffff1c 	bl	8014 <PUT32>
    83a0:	e8bd4010 	pop	{r4, lr}
    83a4:	e12fff1e 	bx	lr
    83a8:	20215004 	eorcs	r5, r1, r4
    83ac:	20215044 	eorcs	r5, r1, r4, asr #32
    83b0:	20215060 	eorcs	r5, r1, r0, rrx
    83b4:	2021504c 	eorcs	r5, r1, ip, asr #32
    83b8:	20215050 	eorcs	r5, r1, r0, asr r0
    83bc:	20215048 	eorcs	r5, r1, r8, asr #32
    83c0:	0000010e 	andeq	r0, r0, lr, lsl #2
    83c4:	20215068 	eorcs	r5, r1, r8, rrx
    83c8:	20200004 	eorcs	r0, r0, r4
    83cc:	20200094 	mlacs	r0, r4, r0, r0
    83d0:	20200098 	mlacs	r0, r8, r0, r0

000083d4 <timer_init>:
    83d4:	e92d4010 	push	{r4, lr}
    83d8:	e59f401c 	ldr	r4, [pc, #28]	; 83fc <timer_init+0x28>
    83dc:	e3a018f9 	mov	r1, #16318464	; 0xf90000
    83e0:	e1a00004 	mov	r0, r4
    83e4:	ebffff0a 	bl	8014 <PUT32>
    83e8:	e1a00004 	mov	r0, r4
    83ec:	e59f100c 	ldr	r1, [pc, #12]	; 8400 <timer_init+0x2c>
    83f0:	ebffff07 	bl	8014 <PUT32>
    83f4:	e8bd4010 	pop	{r4, lr}
    83f8:	e12fff1e 	bx	lr
    83fc:	2000b408 	andcs	fp, r0, r8, lsl #8
    8400:	00f90200 	rscseq	r0, r9, r0, lsl #4

00008404 <timer_tick>:
    8404:	e92d4008 	push	{r3, lr}
    8408:	e59f0008 	ldr	r0, [pc, #8]	; 8418 <timer_tick+0x14>
    840c:	ebffff06 	bl	802c <GET32>
    8410:	e8bd4008 	pop	{r3, lr}
    8414:	e12fff1e 	bx	lr
    8418:	2000b420 	andcs	fp, r0, r0, lsr #8

0000841c <MailboxWrite>:
    841c:	e92d4038 	push	{r3, r4, r5, lr}
    8420:	e1a04000 	mov	r4, r0
    8424:	e1a05001 	mov	r5, r1
    8428:	e59f0020 	ldr	r0, [pc, #32]	; 8450 <MailboxWrite+0x34>
    842c:	ebfffefe 	bl	802c <GET32>
    8430:	e3500000 	cmp	r0, #0
    8434:	bafffffb 	blt	8428 <MailboxWrite+0xc>
    8438:	e59f0014 	ldr	r0, [pc, #20]	; 8454 <MailboxWrite+0x38>
    843c:	e0851004 	add	r1, r5, r4
    8440:	ebfffef3 	bl	8014 <PUT32>
    8444:	e3a00000 	mov	r0, #0
    8448:	e8bd4038 	pop	{r3, r4, r5, lr}
    844c:	e12fff1e 	bx	lr
    8450:	2000b898 	mulcs	r0, r8, r8
    8454:	2000b8a0 	andcs	fp, r0, r0, lsr #17

00008458 <MailboxRead>:
    8458:	e92d4010 	push	{r4, lr}
    845c:	e1a04000 	mov	r4, r0
    8460:	e59f0024 	ldr	r0, [pc, #36]	; 848c <MailboxRead+0x34>
    8464:	ebfffef0 	bl	802c <GET32>
    8468:	e3100101 	tst	r0, #1073741824	; 0x40000000
    846c:	1afffffb 	bne	8460 <MailboxRead+0x8>
    8470:	e59f0018 	ldr	r0, [pc, #24]	; 8490 <MailboxRead+0x38>
    8474:	ebfffeec 	bl	802c <GET32>
    8478:	e200300f 	and	r3, r0, #15
    847c:	e1530004 	cmp	r3, r4
    8480:	1afffff6 	bne	8460 <MailboxRead+0x8>
    8484:	e8bd4010 	pop	{r4, lr}
    8488:	e12fff1e 	bx	lr
    848c:	2000b898 	mulcs	r0, r8, r8
    8490:	2000b880 	andcs	fp, r0, r0, lsl #17

00008494 <notmain>:
    8494:	e92d4010 	push	{r4, lr}
    8498:	e24dd010 	sub	sp, sp, #16
    849c:	ebffff88 	bl	82c4 <uart_init>
    84a0:	ebffffcb 	bl	83d4 <timer_init>
    84a4:	e59f0164 	ldr	r0, [pc, #356]	; 8610 <notmain+0x17c>
    84a8:	e3a01d0a 	mov	r1, #640	; 0x280
    84ac:	ebfffed8 	bl	8014 <PUT32>
    84b0:	e59f015c 	ldr	r0, [pc, #348]	; 8614 <notmain+0x180>
    84b4:	e3a01e1e 	mov	r1, #480	; 0x1e0
    84b8:	ebfffed5 	bl	8014 <PUT32>
    84bc:	e59f0154 	ldr	r0, [pc, #340]	; 8618 <notmain+0x184>
    84c0:	e3a01d0a 	mov	r1, #640	; 0x280
    84c4:	ebfffed2 	bl	8014 <PUT32>
    84c8:	e59f014c 	ldr	r0, [pc, #332]	; 861c <notmain+0x188>
    84cc:	e3a01e1e 	mov	r1, #480	; 0x1e0
    84d0:	ebfffecf 	bl	8014 <PUT32>
    84d4:	e59f0144 	ldr	r0, [pc, #324]	; 8620 <notmain+0x18c>
    84d8:	e3a01000 	mov	r1, #0
    84dc:	ebfffecc 	bl	8014 <PUT32>
    84e0:	e59f013c 	ldr	r0, [pc, #316]	; 8624 <notmain+0x190>
    84e4:	e3a01010 	mov	r1, #16
    84e8:	ebfffec9 	bl	8014 <PUT32>
    84ec:	e59f0134 	ldr	r0, [pc, #308]	; 8628 <notmain+0x194>
    84f0:	e3a01000 	mov	r1, #0
    84f4:	ebfffec6 	bl	8014 <PUT32>
    84f8:	e59f012c 	ldr	r0, [pc, #300]	; 862c <notmain+0x198>
    84fc:	e3a01000 	mov	r1, #0
    8500:	ebfffec3 	bl	8014 <PUT32>
    8504:	e59f0124 	ldr	r0, [pc, #292]	; 8630 <notmain+0x19c>
    8508:	e3a01000 	mov	r1, #0
    850c:	ebfffec0 	bl	8014 <PUT32>
    8510:	e59f011c 	ldr	r0, [pc, #284]	; 8634 <notmain+0x1a0>
    8514:	e3a01000 	mov	r1, #0
    8518:	ebfffebd 	bl	8014 <PUT32>
    851c:	e59f0114 	ldr	r0, [pc, #276]	; 8638 <notmain+0x1a4>
    8520:	ebfffec1 	bl	802c <GET32>
    8524:	e3500000 	cmp	r0, #0
    8528:	bafffffb 	blt	851c <notmain+0x88>
    852c:	e59f0108 	ldr	r0, [pc, #264]	; 863c <notmain+0x1a8>
    8530:	e59f1108 	ldr	r1, [pc, #264]	; 8640 <notmain+0x1ac>
    8534:	ebfffeb6 	bl	8014 <PUT32>
    8538:	e59f00f8 	ldr	r0, [pc, #248]	; 8638 <notmain+0x1a4>
    853c:	ebfffeba 	bl	802c <GET32>
    8540:	e2104101 	ands	r4, r0, #1073741824	; 0x40000000
    8544:	1afffffb 	bne	8538 <notmain+0xa4>
    8548:	e59f00f4 	ldr	r0, [pc, #244]	; 8644 <notmain+0x1b0>
    854c:	ebfffeb6 	bl	802c <GET32>
    8550:	e200000f 	and	r0, r0, #15
    8554:	e3500001 	cmp	r0, #1
    8558:	1afffff6 	bne	8538 <notmain+0xa4>
    855c:	e59f20e4 	ldr	r2, [pc, #228]	; 8648 <notmain+0x1b4>
    8560:	e1a03004 	mov	r3, r4
    8564:	e5a23004 	str	r3, [r2, #4]!
    8568:	e2833d0a 	add	r3, r3, #640	; 0x280
    856c:	e3530919 	cmp	r3, #409600	; 0x64000
    8570:	1afffffb 	bne	8564 <notmain+0xd0>
    8574:	e59f00b4 	ldr	r0, [pc, #180]	; 8630 <notmain+0x19c>
    8578:	ebfffeab 	bl	802c <GET32>
    857c:	e3a0cb3e 	mov	ip, #63488	; 0xf800
    8580:	e58dc000 	str	ip, [sp]
    8584:	e3a01023 	mov	r1, #35	; 0x23
    8588:	e3a02068 	mov	r2, #104	; 0x68
    858c:	e59f30b8 	ldr	r3, [pc, #184]	; 864c <notmain+0x1b8>
    8590:	e3a00f87 	mov	r0, #540	; 0x21c
    8594:	eb00010e 	bl	89d4 <drawLine>
    8598:	e3a00000 	mov	r0, #0
    859c:	eb0000e7 	bl	8940 <clrScreen>
    85a0:	e59f00a8 	ldr	r0, [pc, #168]	; 8650 <notmain+0x1bc>
    85a4:	ebfffed6 	bl	8104 <uart_puts>
    85a8:	e59f00a4 	ldr	r0, [pc, #164]	; 8654 <notmain+0x1c0>
    85ac:	eb000047 	bl	86d0 <Random>
    85b0:	eb000070 	bl	8778 <GetTimeStamp>
    85b4:	e59fc09c 	ldr	ip, [pc, #156]	; 8658 <notmain+0x1c4>
    85b8:	e59fe09c 	ldr	lr, [pc, #156]	; 865c <notmain+0x1c8>
    85bc:	e3a01000 	mov	r1, #0
    85c0:	e1a0300c 	mov	r3, ip
    85c4:	e58dc004 	str	ip, [sp, #4]
    85c8:	e3a0ca0f 	mov	ip, #61440	; 0xf000
    85cc:	e1a02001 	mov	r2, r1
    85d0:	e58de000 	str	lr, [sp]
    85d4:	e58dc008 	str	ip, [sp, #8]
    85d8:	e1a04000 	mov	r4, r0
    85dc:	e3a00f4b 	mov	r0, #300	; 0x12c
    85e0:	eb0001b7 	bl	8cc4 <drawTriangle>
    85e4:	eb000063 	bl	8778 <GetTimeStamp>
    85e8:	e0640000 	rsb	r0, r4, r0
    85ec:	ebffff09 	bl	8218 <hexstring>
    85f0:	e59f0068 	ldr	r0, [pc, #104]	; 8660 <notmain+0x1cc>
    85f4:	ebfffec2 	bl	8104 <uart_puts>
    85f8:	e59f0064 	ldr	r0, [pc, #100]	; 8664 <notmain+0x1d0>
    85fc:	eb000061 	bl	8788 <WaitMicros>
    8600:	e3a00000 	mov	r0, #0
    8604:	e28dd010 	add	sp, sp, #16
    8608:	e8bd4010 	pop	{r4, lr}
    860c:	e12fff1e 	bx	lr
    8610:	40040000 	andmi	r0, r4, r0
    8614:	40040004 	andmi	r0, r4, r4
    8618:	40040008 	andmi	r0, r4, r8
    861c:	4004000c 	andmi	r0, r4, ip
    8620:	40040010 	andmi	r0, r4, r0, lsl r0
    8624:	40040014 	andmi	r0, r4, r4, lsl r0
    8628:	40040018 	andmi	r0, r4, r8, lsl r0
    862c:	4004001c 	andmi	r0, r4, ip, lsl r0
    8630:	40040020 	andmi	r0, r4, r0, lsr #32
    8634:	40040024 	andmi	r0, r4, r4, lsr #32
    8638:	2000b898 	mulcs	r0, r8, r8
    863c:	2000b8a0 	andcs	fp, r0, r0, lsr #17
    8640:	40040001 	andmi	r0, r4, r1
    8644:	2000b880 	andcs	fp, r0, r0, lsl #17
    8648:	000097ac 	andeq	r9, r0, ip, lsr #15
    864c:	00000143 	andeq	r0, r0, r3, asr #2
    8650:	00008f74 	andeq	r8, r0, r4, ror pc
    8654:	0003881c 	andeq	r8, r3, ip, lsl r8
    8658:	000001df 	ldrdeq	r0, [r0], -pc	; <UNPREDICTABLE>
    865c:	0000027f 	andeq	r0, r0, pc, ror r2
    8660:	00008f80 	andeq	r8, r0, r0, lsl #31
    8664:	00001388 	andeq	r1, r0, r8, lsl #7

00008668 <SetForeColor>:
    8668:	e3500801 	cmp	r0, #65536	; 0x10000
    866c:	21a0f00e 	movcs	pc, lr
    8670:	e59f10e4 	ldr	r1, [pc, #228]	; 875c <charPixelLoopEnd$+0x1c>
    8674:	e1c100b0 	strh	r0, [r1]
    8678:	e1a0f00e 	mov	pc, lr

0000867c <SetGraphicsAddress>:
    867c:	e59f10dc 	ldr	r1, [pc, #220]	; 8760 <charPixelLoopEnd$+0x20>
    8680:	e5810000 	str	r0, [r1]
    8684:	e1a0f00e 	mov	pc, lr

00008688 <DrawPixel>:
    8688:	e59f20d0 	ldr	r2, [pc, #208]	; 8760 <charPixelLoopEnd$+0x20>
    868c:	e5922000 	ldr	r2, [r2]
    8690:	e5923004 	ldr	r3, [r2, #4]
    8694:	e2433001 	sub	r3, r3, #1
    8698:	e1510003 	cmp	r1, r3
    869c:	81a0f00e 	movhi	pc, lr
    86a0:	e5923000 	ldr	r3, [r2]
    86a4:	e2433001 	sub	r3, r3, #1
    86a8:	e1500003 	cmp	r0, r3
    86ac:	81a0f00e 	movhi	pc, lr
    86b0:	e5922020 	ldr	r2, [r2, #32]
    86b4:	e2833001 	add	r3, r3, #1
    86b8:	e0200391 	mla	r0, r1, r3, r0
    86bc:	e0822080 	add	r2, r2, r0, lsl #1
    86c0:	e59f3094 	ldr	r3, [pc, #148]	; 875c <charPixelLoopEnd$+0x1c>
    86c4:	e1d330b0 	ldrh	r3, [r3]
    86c8:	e1c230b0 	strh	r3, [r2]
    86cc:	e1a0f00e 	mov	pc, lr

000086d0 <Random>:
    86d0:	e59f108c 	ldr	r1, [pc, #140]	; 8764 <charPixelLoopEnd$+0x24>
    86d4:	e0010190 	mul	r1, r0, r1
    86d8:	e0010190 	mul	r1, r0, r1
    86dc:	e0811000 	add	r1, r1, r0
    86e0:	e2810049 	add	r0, r1, #73	; 0x49
    86e4:	e1a0f00e 	mov	pc, lr

000086e8 <DrawChar>:
    86e8:	e350007f 	cmp	r0, #127	; 0x7f
    86ec:	83a00000 	movhi	r0, #0
    86f0:	83a01000 	movhi	r1, #0
    86f4:	81a0f00e 	movhi	pc, lr
    86f8:	e92d41f0 	push	{r4, r5, r6, r7, r8, lr}
    86fc:	e1a04001 	mov	r4, r1
    8700:	e1a05002 	mov	r5, r2
    8704:	e59f605c 	ldr	r6, [pc, #92]	; 8768 <charPixelLoopEnd$+0x28>
    8708:	e0866200 	add	r6, r6, r0, lsl #4

0000870c <lineLoop$>:
    870c:	e5d67000 	ldrb	r7, [r6]
    8710:	e3a08008 	mov	r8, #8

00008714 <charPixelLoop$>:
    8714:	e2588001 	subs	r8, r8, #1
    8718:	ba000008 	blt	8740 <charPixelLoopEnd$>
    871c:	e1a07087 	lsl	r7, r7, #1
    8720:	e3170c01 	tst	r7, #256	; 0x100
    8724:	0afffffa 	beq	8714 <charPixelLoop$>
    8728:	e59f203c 	ldr	r2, [pc, #60]	; 876c <charPixelLoopEnd$+0x2c>
    872c:	e0840008 	add	r0, r4, r8
    8730:	e1a01005 	mov	r1, r5
    8734:	eb000094 	bl	898c <setPixel>
    8738:	e3380000 	teq	r8, #0
    873c:	1afffff4 	bne	8714 <charPixelLoop$>

00008740 <charPixelLoopEnd$>:
    8740:	e2855001 	add	r5, r5, #1
    8744:	e2866001 	add	r6, r6, #1
    8748:	e316000f 	tst	r6, #15
    874c:	1affffee 	bne	870c <lineLoop$>
    8750:	e3a00008 	mov	r0, #8
    8754:	e3a01010 	mov	r1, #16
    8758:	e8bd81f0 	pop	{r4, r5, r6, r7, r8, pc}
    875c:	00008fa0 	andeq	r8, r0, r0, lsr #31
    8760:	00008fa4 	andeq	r8, r0, r4, lsr #31
    8764:	0000ef35 	andeq	lr, r0, r5, lsr pc
    8768:	00008fb0 			; <UNDEFINED> instruction: 0x00008fb0
    876c:	0000ffff 	strdeq	pc, [r0], -pc	; <UNPREDICTABLE>

00008770 <GetSystemTimerBase>:
    8770:	e59f0034 	ldr	r0, [pc, #52]	; 87ac <loop$+0x14>
    8774:	e1a0f00e 	mov	pc, lr

00008778 <GetTimeStamp>:
    8778:	e52de004 	push	{lr}		; (str lr, [sp, #-4]!)
    877c:	ebfffffb 	bl	8770 <GetSystemTimerBase>
    8780:	e1c000d4 	ldrd	r0, [r0, #4]
    8784:	e49df004 	pop	{pc}		; (ldr pc, [sp], #4)

00008788 <WaitMicros>:
    8788:	e1a02000 	mov	r2, r0
    878c:	e52de004 	push	{lr}		; (str lr, [sp, #-4]!)
    8790:	ebfffff8 	bl	8778 <GetTimeStamp>
    8794:	e1a03000 	mov	r3, r0

00008798 <loop$>:
    8798:	ebfffff6 	bl	8778 <GetTimeStamp>
    879c:	e0401003 	sub	r1, r0, r3
    87a0:	e1510002 	cmp	r1, r2
    87a4:	9afffffb 	bls	8798 <loop$>
    87a8:	e49df004 	pop	{pc}		; (ldr pc, [sp], #4)
    87ac:	20003000 	andcs	r3, r0, r0

000087b0 <strcmp>:
    87b0:	e4d03001 	ldrb	r3, [r0], #1
    87b4:	e4d12001 	ldrb	r2, [r1], #1
    87b8:	e1530002 	cmp	r3, r2
    87bc:	1a000003 	bne	87d0 <strcmp+0x20>
    87c0:	e3530000 	cmp	r3, #0
    87c4:	1afffff9 	bne	87b0 <strcmp>
    87c8:	e1a00003 	mov	r0, r3
    87cc:	e12fff1e 	bx	lr
    87d0:	e1520003 	cmp	r2, r3
    87d4:	93a00001 	movls	r0, #1
    87d8:	83e00000 	mvnhi	r0, #0
    87dc:	e12fff1e 	bx	lr

000087e0 <evalCommand>:
    87e0:	e92d45f0 	push	{r4, r5, r6, r7, r8, sl, lr}
    87e4:	e5d03000 	ldrb	r3, [r0]
    87e8:	e213e0df 	ands	lr, r3, #223	; 0xdf
    87ec:	e24dd0cc 	sub	sp, sp, #204	; 0xcc
    87f0:	e1a08000 	mov	r8, r0
    87f4:	e1a06001 	mov	r6, r1
    87f8:	e1a05002 	mov	r5, r2
    87fc:	0a000044 	beq	8914 <evalCommand+0x134>
    8800:	e1a04000 	mov	r4, r0
    8804:	e3a0c000 	mov	ip, #0
    8808:	e1a0700d 	mov	r7, sp
    880c:	ea000001 	b	8818 <evalCommand+0x38>
    8810:	e3500064 	cmp	r0, #100	; 0x64
    8814:	0a000032 	beq	88e4 <evalCommand+0x104>
    8818:	e7c7300c 	strb	r3, [r7, ip]
    881c:	e5f43001 	ldrb	r3, [r4, #1]!
    8820:	e28c0001 	add	r0, ip, #1
    8824:	e213a0df 	ands	sl, r3, #223	; 0xdf
    8828:	e1a0c000 	mov	ip, r0
    882c:	1afffff7 	bne	8810 <evalCommand+0x30>
    8830:	e2804001 	add	r4, r0, #1
    8834:	ebfffe77 	bl	8218 <hexstring>
    8838:	e7d83004 	ldrb	r3, [r8, r4]
    883c:	e28d10c8 	add	r1, sp, #200	; 0xc8
    8840:	e0812004 	add	r2, r1, r4
    8844:	e31300df 	tst	r3, #223	; 0xdf
    8848:	e542a0c8 	strb	sl, [r2, #-200]	; 0xc8
    884c:	0a00002e 	beq	890c <evalCommand+0x12c>
    8850:	e28da064 	add	sl, sp, #100	; 0x64
    8854:	e0882004 	add	r2, r8, r4
    8858:	e064100a 	rsb	r1, r4, sl
    885c:	ea000001 	b	8868 <evalCommand+0x88>
    8860:	e35400c7 	cmp	r4, #199	; 0xc7
    8864:	ca000004 	bgt	887c <evalCommand+0x9c>
    8868:	e7c13004 	strb	r3, [r1, r4]
    886c:	e5f23001 	ldrb	r3, [r2, #1]!
    8870:	e31300df 	tst	r3, #223	; 0xdf
    8874:	e2844001 	add	r4, r4, #1
    8878:	1afffff8 	bne	8860 <evalCommand+0x80>
    887c:	e1a0000d 	mov	r0, sp
    8880:	ebfffe1f 	bl	8104 <uart_puts>
    8884:	e59f009c 	ldr	r0, [pc, #156]	; 8928 <evalCommand+0x148>
    8888:	ebfffe1d 	bl	8104 <uart_puts>
    888c:	e1a0000a 	mov	r0, sl
    8890:	ebfffe1b 	bl	8104 <uart_puts>
    8894:	e59f1090 	ldr	r1, [pc, #144]	; 892c <evalCommand+0x14c>
    8898:	e24d2001 	sub	r2, sp, #1
    889c:	e5f13001 	ldrb	r3, [r1, #1]!
    88a0:	e5f20001 	ldrb	r0, [r2, #1]!
    88a4:	e1530000 	cmp	r3, r0
    88a8:	1a000005 	bne	88c4 <evalCommand+0xe4>
    88ac:	e3530000 	cmp	r3, #0
    88b0:	1afffff9 	bne	889c <evalCommand+0xbc>
    88b4:	e1a00005 	mov	r0, r5
    88b8:	e28dd0cc 	add	sp, sp, #204	; 0xcc
    88bc:	e8bd45f0 	pop	{r4, r5, r6, r7, r8, sl, lr}
    88c0:	e12fff1e 	bx	lr
    88c4:	e59f0064 	ldr	r0, [pc, #100]	; 8930 <evalCommand+0x150>
    88c8:	ebfffe0d 	bl	8104 <uart_puts>
    88cc:	e1a02005 	mov	r2, r5
    88d0:	e1a0000a 	mov	r0, sl
    88d4:	e1a01006 	mov	r1, r6
    88d8:	eb0000e4 	bl	8c70 <drawString>
    88dc:	e2855010 	add	r5, r5, #16
    88e0:	eafffff3 	b	88b4 <evalCommand+0xd4>
    88e4:	e3a0a065 	mov	sl, #101	; 0x65
    88e8:	e1a0400a 	mov	r4, sl
    88ec:	ebfffe49 	bl	8218 <hexstring>
    88f0:	e7d8300a 	ldrb	r3, [r8, sl]
    88f4:	e28d10c8 	add	r1, sp, #200	; 0xc8
    88f8:	e0812004 	add	r2, r1, r4
    88fc:	e31300df 	tst	r3, #223	; 0xdf
    8900:	e3a01000 	mov	r1, #0
    8904:	e54210c8 	strb	r1, [r2, #-200]	; 0xc8
    8908:	1affffd0 	bne	8850 <evalCommand+0x70>
    890c:	e28da064 	add	sl, sp, #100	; 0x64
    8910:	eaffffd9 	b	887c <evalCommand+0x9c>
    8914:	e3a0a001 	mov	sl, #1
    8918:	e1a0400a 	mov	r4, sl
    891c:	e1a0000e 	mov	r0, lr
    8920:	e1a0700d 	mov	r7, sp
    8924:	eafffff0 	b	88ec <evalCommand+0x10c>
    8928:	00008f80 	andeq	r8, r0, r0, lsl #31
    892c:	00008f83 	andeq	r8, r0, r3, lsl #31
    8930:	00008f8c 	andeq	r8, r0, ip, lsl #31

00008934 <abs>:
    8934:	e3500000 	cmp	r0, #0
    8938:	b2600000 	rsblt	r0, r0, #0
    893c:	e12fff1e 	bx	lr

00008940 <clrScreen>:
    8940:	e92d40f8 	push	{r3, r4, r5, r6, r7, lr}
    8944:	e1a06000 	mov	r6, r0
    8948:	e59f0038 	ldr	r0, [pc, #56]	; 8988 <clrScreen+0x48>
    894c:	ebfffdb6 	bl	802c <GET32>
    8950:	e2807a96 	add	r7, r0, #614400	; 0x96000
    8954:	e2805d0f 	add	r5, r0, #960	; 0x3c0
    8958:	e1a04000 	mov	r4, r0
    895c:	e1a00004 	mov	r0, r4
    8960:	e1a01006 	mov	r1, r6
    8964:	e2844002 	add	r4, r4, #2
    8968:	ebfffdab 	bl	801c <PUT16>
    896c:	e1550004 	cmp	r5, r4
    8970:	1afffff9 	bne	895c <clrScreen+0x1c>
    8974:	e1550007 	cmp	r5, r7
    8978:	e1a00005 	mov	r0, r5
    897c:	1afffff4 	bne	8954 <clrScreen+0x14>
    8980:	e8bd40f8 	pop	{r3, r4, r5, r6, r7, lr}
    8984:	e12fff1e 	bx	lr
    8988:	40040020 	andmi	r0, r4, r0, lsr #32

0000898c <setPixel>:
    898c:	e3510e1e 	cmp	r1, #480	; 0x1e0
    8990:	b3500d0a 	cmplt	r0, #640	; 0x280
    8994:	e92d4070 	push	{r4, r5, r6, lr}
    8998:	e1a05000 	mov	r5, r0
    899c:	e1a04001 	mov	r4, r1
    89a0:	e1a06002 	mov	r6, r2
    89a4:	aa000007 	bge	89c8 <setPixel+0x3c>
    89a8:	e59f0020 	ldr	r0, [pc, #32]	; 89d0 <setPixel+0x44>
    89ac:	ebfffd9e 	bl	802c <GET32>
    89b0:	e0844104 	add	r4, r4, r4, lsl #2
    89b4:	e0855384 	add	r5, r5, r4, lsl #7
    89b8:	e1a01806 	lsl	r1, r6, #16
    89bc:	e0800085 	add	r0, r0, r5, lsl #1
    89c0:	e1a01821 	lsr	r1, r1, #16
    89c4:	ebfffd94 	bl	801c <PUT16>
    89c8:	e8bd4070 	pop	{r4, r5, r6, lr}
    89cc:	e12fff1e 	bx	lr
    89d0:	40040020 	andmi	r0, r4, r0, lsr #32

000089d4 <drawLine>:
    89d4:	e92d4ff0 	push	{r4, r5, r6, r7, r8, r9, sl, fp, lr}
    89d8:	e3500d0a 	cmp	r0, #640	; 0x280
    89dc:	e1a05000 	mov	r5, r0
    89e0:	c2405d0a 	subgt	r5, r0, #640	; 0x280
    89e4:	e3520d0a 	cmp	r2, #640	; 0x280
    89e8:	e1a08002 	mov	r8, r2
    89ec:	c2428d0a 	subgt	r8, r2, #640	; 0x280
    89f0:	e3510e1e 	cmp	r1, #480	; 0x1e0
    89f4:	e1a04001 	mov	r4, r1
    89f8:	c2414e1e 	subgt	r4, r1, #480	; 0x1e0
    89fc:	e3530e1e 	cmp	r3, #480	; 0x1e0
    8a00:	e1a0a003 	mov	sl, r3
    8a04:	e0659008 	rsb	r9, r5, r8
    8a08:	c243ae1e 	subgt	sl, r3, #480	; 0x1e0
    8a0c:	e24dd01c 	sub	sp, sp, #28
    8a10:	e0293fc9 	eor	r3, r9, r9, asr #31
    8a14:	e0433fc9 	sub	r3, r3, r9, asr #31
    8a18:	e064700a 	rsb	r7, r4, sl
    8a1c:	e1550008 	cmp	r5, r8
    8a20:	e58d3008 	str	r3, [sp, #8]
    8a24:	a3e03000 	mvnge	r3, #0
    8a28:	b3a03001 	movlt	r3, #1
    8a2c:	e3570000 	cmp	r7, #0
    8a30:	b2677000 	rsblt	r7, r7, #0
    8a34:	e154000a 	cmp	r4, sl
    8a38:	e58d300c 	str	r3, [sp, #12]
    8a3c:	a3e03000 	mvnge	r3, #0
    8a40:	b3a03001 	movlt	r3, #1
    8a44:	e58d3010 	str	r3, [sp, #16]
    8a48:	e59d3008 	ldr	r3, [sp, #8]
    8a4c:	e59d1040 	ldr	r1, [sp, #64]	; 0x40
    8a50:	e1530007 	cmp	r3, r7
    8a54:	c59d3008 	ldrgt	r3, [sp, #8]
    8a58:	e1a01801 	lsl	r1, r1, #16
    8a5c:	d0876fa7 	addle	r6, r7, r7, lsr #31
    8a60:	c1a060c3 	asrgt	r6, r3, #1
    8a64:	e1a01821 	lsr	r1, r1, #16
    8a68:	e59d3008 	ldr	r3, [sp, #8]
    8a6c:	d1a060c6 	asrle	r6, r6, #1
    8a70:	e59f209c 	ldr	r2, [pc, #156]	; 8b14 <drawLine+0x140>
    8a74:	e59f909c 	ldr	r9, [pc, #156]	; 8b18 <drawLine+0x144>
    8a78:	e58d1014 	str	r1, [sp, #20]
    8a7c:	d2666000 	rsble	r6, r6, #0
    8a80:	e263b000 	rsb	fp, r3, #0
    8a84:	e1540002 	cmp	r4, r2
    8a88:	d1550009 	cmple	r5, r9
    8a8c:	ca000008 	bgt	8ab4 <drawLine+0xe0>
    8a90:	e59f0084 	ldr	r0, [pc, #132]	; 8b1c <drawLine+0x148>
    8a94:	e58d2004 	str	r2, [sp, #4]
    8a98:	ebfffd63 	bl	802c <GET32>
    8a9c:	e0843104 	add	r3, r4, r4, lsl #2
    8aa0:	e0853383 	add	r3, r5, r3, lsl #7
    8aa4:	e0800083 	add	r0, r0, r3, lsl #1
    8aa8:	e59d1014 	ldr	r1, [sp, #20]
    8aac:	ebfffd5a 	bl	801c <PUT16>
    8ab0:	e59d2004 	ldr	r2, [sp, #4]
    8ab4:	e154000a 	cmp	r4, sl
    8ab8:	01550008 	cmpeq	r5, r8
    8abc:	0a000011 	beq	8b08 <drawLine+0x134>
    8ac0:	e156000b 	cmp	r6, fp
    8ac4:	c59d100c 	ldrgt	r1, [sp, #12]
    8ac8:	c0673006 	rsbgt	r3, r7, r6
    8acc:	d1a03006 	movle	r3, r6
    8ad0:	c0855001 	addgt	r5, r5, r1
    8ad4:	e1560007 	cmp	r6, r7
    8ad8:	a1a06003 	movge	r6, r3
    8adc:	aaffffe8 	bge	8a84 <drawLine+0xb0>
    8ae0:	e59d1008 	ldr	r1, [sp, #8]
    8ae4:	e0836001 	add	r6, r3, r1
    8ae8:	e59d3010 	ldr	r3, [sp, #16]
    8aec:	e0844003 	add	r4, r4, r3
    8af0:	e1540002 	cmp	r4, r2
    8af4:	d1550009 	cmple	r5, r9
    8af8:	daffffe4 	ble	8a90 <drawLine+0xbc>
    8afc:	e154000a 	cmp	r4, sl
    8b00:	01550008 	cmpeq	r5, r8
    8b04:	1affffed 	bne	8ac0 <drawLine+0xec>
    8b08:	e28dd01c 	add	sp, sp, #28
    8b0c:	e8bd4ff0 	pop	{r4, r5, r6, r7, r8, r9, sl, fp, lr}
    8b10:	e12fff1e 	bx	lr
    8b14:	000001df 	ldrdeq	r0, [r0], -pc	; <UNPREDICTABLE>
    8b18:	0000027f 	andeq	r0, r0, pc, ror r2
    8b1c:	40040020 	andmi	r0, r4, r0, lsr #32

00008b20 <drawChar>:
    8b20:	e92d4ff0 	push	{r4, r5, r6, r7, r8, r9, sl, fp, lr}
    8b24:	e350007f 	cmp	r0, #127	; 0x7f
    8b28:	e24dd00c 	sub	sp, sp, #12
    8b2c:	e1a06001 	mov	r6, r1
    8b30:	e1a07002 	mov	r7, r2
    8b34:	0a000003 	beq	8b48 <drawChar+0x28>
    8b38:	ebfffeea 	bl	86e8 <DrawChar>
    8b3c:	e28dd00c 	add	sp, sp, #12
    8b40:	e8bd4ff0 	pop	{r4, r5, r6, r7, r8, r9, sl, fp, lr}
    8b44:	e12fff1e 	bx	lr
    8b48:	e2813007 	add	r3, r1, #7
    8b4c:	e082a102 	add	sl, r2, r2, lsl #2
    8b50:	e58d3004 	str	r3, [sp, #4]
    8b54:	e59f8068 	ldr	r8, [pc, #104]	; 8bc4 <drawChar+0xa4>
    8b58:	e282900f 	add	r9, r2, #15
    8b5c:	e1a0a38a 	lsl	sl, sl, #7
    8b60:	e59f3060 	ldr	r3, [pc, #96]	; 8bc8 <drawChar+0xa8>
    8b64:	e1560003 	cmp	r6, r3
    8b68:	c3a0b000 	movgt	fp, #0
    8b6c:	d3a0b001 	movle	fp, #1
    8b70:	e086500a 	add	r5, r6, sl
    8b74:	e1a04007 	mov	r4, r7
    8b78:	e1540008 	cmp	r4, r8
    8b7c:	c3a03000 	movgt	r3, #0
    8b80:	d20b3001 	andle	r3, fp, #1
    8b84:	e3530000 	cmp	r3, #0
    8b88:	e2844001 	add	r4, r4, #1
    8b8c:	0a000004 	beq	8ba4 <drawChar+0x84>
    8b90:	e59f0034 	ldr	r0, [pc, #52]	; 8bcc <drawChar+0xac>
    8b94:	ebfffd24 	bl	802c <GET32>
    8b98:	e3a01000 	mov	r1, #0
    8b9c:	e0800085 	add	r0, r0, r5, lsl #1
    8ba0:	ebfffd1d 	bl	801c <PUT16>
    8ba4:	e1540009 	cmp	r4, r9
    8ba8:	e2855d0a 	add	r5, r5, #640	; 0x280
    8bac:	dafffff1 	ble	8b78 <drawChar+0x58>
    8bb0:	e59d3004 	ldr	r3, [sp, #4]
    8bb4:	e2866001 	add	r6, r6, #1
    8bb8:	e1560003 	cmp	r6, r3
    8bbc:	daffffe7 	ble	8b60 <drawChar+0x40>
    8bc0:	eaffffdd 	b	8b3c <drawChar+0x1c>
    8bc4:	000001df 	ldrdeq	r0, [r0], -pc	; <UNPREDICTABLE>
    8bc8:	0000027f 	andeq	r0, r0, pc, ror r2
    8bcc:	40040020 	andmi	r0, r4, r0, lsr #32

00008bd0 <delChar>:
    8bd0:	e92d4ff0 	push	{r4, r5, r6, r7, r8, r9, sl, fp, lr}
    8bd4:	e2803007 	add	r3, r0, #7
    8bd8:	e24dd00c 	sub	sp, sp, #12
    8bdc:	e081a101 	add	sl, r1, r1, lsl #2
    8be0:	e58d3004 	str	r3, [sp, #4]
    8be4:	e59f8078 	ldr	r8, [pc, #120]	; 8c64 <delChar+0x94>
    8be8:	e1a07001 	mov	r7, r1
    8bec:	e281900f 	add	r9, r1, #15
    8bf0:	e1a0a38a 	lsl	sl, sl, #7
    8bf4:	e1a06000 	mov	r6, r0
    8bf8:	e59f3068 	ldr	r3, [pc, #104]	; 8c68 <delChar+0x98>
    8bfc:	e1560003 	cmp	r6, r3
    8c00:	c3a0b000 	movgt	fp, #0
    8c04:	d3a0b001 	movle	fp, #1
    8c08:	e086500a 	add	r5, r6, sl
    8c0c:	e1a04007 	mov	r4, r7
    8c10:	e1540008 	cmp	r4, r8
    8c14:	c3a03000 	movgt	r3, #0
    8c18:	d20b3001 	andle	r3, fp, #1
    8c1c:	e3530000 	cmp	r3, #0
    8c20:	e2844001 	add	r4, r4, #1
    8c24:	0a000004 	beq	8c3c <delChar+0x6c>
    8c28:	e59f003c 	ldr	r0, [pc, #60]	; 8c6c <delChar+0x9c>
    8c2c:	ebfffcfe 	bl	802c <GET32>
    8c30:	e3a01000 	mov	r1, #0
    8c34:	e0800085 	add	r0, r0, r5, lsl #1
    8c38:	ebfffcf7 	bl	801c <PUT16>
    8c3c:	e1540009 	cmp	r4, r9
    8c40:	e2855d0a 	add	r5, r5, #640	; 0x280
    8c44:	dafffff1 	ble	8c10 <delChar+0x40>
    8c48:	e59d3004 	ldr	r3, [sp, #4]
    8c4c:	e2866001 	add	r6, r6, #1
    8c50:	e1560003 	cmp	r6, r3
    8c54:	daffffe7 	ble	8bf8 <delChar+0x28>
    8c58:	e28dd00c 	add	sp, sp, #12
    8c5c:	e8bd4ff0 	pop	{r4, r5, r6, r7, r8, r9, sl, fp, lr}
    8c60:	e12fff1e 	bx	lr
    8c64:	000001df 	ldrdeq	r0, [r0], -pc	; <UNPREDICTABLE>
    8c68:	0000027f 	andeq	r0, r0, pc, ror r2
    8c6c:	40040020 	andmi	r0, r4, r0, lsr #32

00008c70 <drawString>:
    8c70:	e92d40f8 	push	{r3, r4, r5, r6, r7, lr}
    8c74:	e1a05000 	mov	r5, r0
    8c78:	e5d00000 	ldrb	r0, [r0]
    8c7c:	e3500000 	cmp	r0, #0
    8c80:	e1a07001 	mov	r7, r1
    8c84:	e1a06002 	mov	r6, r2
    8c88:	0a00000b 	beq	8cbc <drawString+0x4c>
    8c8c:	e1a04001 	mov	r4, r1
    8c90:	e350000a 	cmp	r0, #10
    8c94:	e1a01004 	mov	r1, r4
    8c98:	e1a02006 	mov	r2, r6
    8c9c:	01a04007 	moveq	r4, r7
    8ca0:	02866010 	addeq	r6, r6, #16
    8ca4:	0a000001 	beq	8cb0 <drawString+0x40>
    8ca8:	ebfffe8e 	bl	86e8 <DrawChar>
    8cac:	e2844008 	add	r4, r4, #8
    8cb0:	e5f50001 	ldrb	r0, [r5, #1]!
    8cb4:	e3500000 	cmp	r0, #0
    8cb8:	1afffff4 	bne	8c90 <drawString+0x20>
    8cbc:	e8bd40f8 	pop	{r3, r4, r5, r6, r7, lr}
    8cc0:	e12fff1e 	bx	lr

00008cc4 <drawTriangle>:
    8cc4:	e92d4ff0 	push	{r4, r5, r6, r7, r8, r9, sl, fp, lr}
    8cc8:	e24dd03c 	sub	sp, sp, #60	; 0x3c
    8ccc:	e1a00b00 	lsl	r0, r0, #22
    8cd0:	e59dc060 	ldr	ip, [sp, #96]	; 0x60
    8cd4:	e1a00b20 	lsr	r0, r0, #22
    8cd8:	e1a02b02 	lsl	r2, r2, #22
    8cdc:	e1a02b22 	lsr	r2, r2, #22
    8ce0:	e3500d0a 	cmp	r0, #640	; 0x280
    8ce4:	e1a0cb0c 	lsl	ip, ip, #22
    8ce8:	a2400d0a 	subge	r0, r0, #640	; 0x280
    8cec:	e1a07b2c 	lsr	r7, ip, #22
    8cf0:	e3520d0a 	cmp	r2, #640	; 0x280
    8cf4:	e1a01b81 	lsl	r1, r1, #23
    8cf8:	e59d4064 	ldr	r4, [sp, #100]	; 0x64
    8cfc:	e1a01ba1 	lsr	r1, r1, #23
    8d00:	a2422d0a 	subge	r2, r2, #640	; 0x280
    8d04:	e1a03b83 	lsl	r3, r3, #23
    8d08:	e3570d0a 	cmp	r7, #640	; 0x280
    8d0c:	e1a03ba3 	lsr	r3, r3, #23
    8d10:	a2477d0a 	subge	r7, r7, #640	; 0x280
    8d14:	e1a04b84 	lsl	r4, r4, #23
    8d18:	e3510e1e 	cmp	r1, #480	; 0x1e0
    8d1c:	a2400e1e 	subge	r0, r0, #480	; 0x1e0
    8d20:	e1a0cba4 	lsr	ip, r4, #23
    8d24:	e3530e1e 	cmp	r3, #480	; 0x1e0
    8d28:	a2400e1e 	subge	r0, r0, #480	; 0x1e0
    8d2c:	e35c0e1e 	cmp	ip, #480	; 0x1e0
    8d30:	a2400e1e 	subge	r0, r0, #480	; 0x1e0
    8d34:	e0624000 	rsb	r4, r2, r0
    8d38:	e58d402c 	str	r4, [sp, #44]	; 0x2c
    8d3c:	e0040491 	mul	r4, r1, r4
    8d40:	e06c9003 	rsb	r9, ip, r3
    8d44:	e58d401c 	str	r4, [sp, #28]
    8d48:	e0040992 	mul	r4, r2, r9
    8d4c:	e0675002 	rsb	r5, r7, r2
    8d50:	e063a001 	rsb	sl, r3, r1
    8d54:	e58d5030 	str	r5, [sp, #48]	; 0x30
    8d58:	e0050593 	mul	r5, r3, r5
    8d5c:	e0606007 	rsb	r6, r0, r7
    8d60:	e0080a90 	mul	r8, r0, sl
    8d64:	e58d6034 	str	r6, [sp, #52]	; 0x34
    8d68:	e006069c 	mul	r6, ip, r6
    8d6c:	e061b00c 	rsb	fp, r1, ip
    8d70:	e58d4020 	str	r4, [sp, #32]
    8d74:	e0040b97 	mul	r4, r7, fp
    8d78:	e58d5004 	str	r5, [sp, #4]
    8d7c:	e1530001 	cmp	r3, r1
    8d80:	31a05003 	movcc	r5, r3
    8d84:	21a05001 	movcs	r5, r1
    8d88:	e58d8008 	str	r8, [sp, #8]
    8d8c:	e155000c 	cmp	r5, ip
    8d90:	21a0500c 	movcs	r5, ip
    8d94:	e58d5028 	str	r5, [sp, #40]	; 0x28
    8d98:	e58d6024 	str	r6, [sp, #36]	; 0x24
    8d9c:	e59d5008 	ldr	r5, [sp, #8]
    8da0:	e59d601c 	ldr	r6, [sp, #28]
    8da4:	e0665005 	rsb	r5, r6, r5
    8da8:	e58d5018 	str	r5, [sp, #24]
    8dac:	e59d6004 	ldr	r6, [sp, #4]
    8db0:	e59d5020 	ldr	r5, [sp, #32]
    8db4:	e0665005 	rsb	r5, r6, r5
    8db8:	e58d501c 	str	r5, [sp, #28]
    8dbc:	e59d5024 	ldr	r5, [sp, #36]	; 0x24
    8dc0:	e0654004 	rsb	r4, r5, r4
    8dc4:	e58d4020 	str	r4, [sp, #32]
    8dc8:	e28d4028 	add	r4, sp, #40	; 0x28
    8dcc:	e8940050 	ldm	r4, {r4, r6}
    8dd0:	e59d5018 	ldr	r5, [sp, #24]
    8dd4:	e0265694 	mla	r6, r4, r6, r5
    8dd8:	e1570002 	cmp	r7, r2
    8ddc:	31a08007 	movcc	r8, r7
    8de0:	21a08002 	movcs	r8, r2
    8de4:	e1580000 	cmp	r8, r0
    8de8:	21a08000 	movcs	r8, r0
    8dec:	e58d6018 	str	r6, [sp, #24]
    8df0:	e0060a98 	mul	r6, r8, sl
    8df4:	e59d5030 	ldr	r5, [sp, #48]	; 0x30
    8df8:	e58d6008 	str	r6, [sp, #8]
    8dfc:	e59d601c 	ldr	r6, [sp, #28]
    8e00:	e0256594 	mla	r5, r4, r5, r6
    8e04:	e0040998 	mul	r4, r8, r9
    8e08:	e59d6020 	ldr	r6, [sp, #32]
    8e0c:	e58d501c 	str	r5, [sp, #28]
    8e10:	e58d4004 	str	r4, [sp, #4]
    8e14:	e59d5028 	ldr	r5, [sp, #40]	; 0x28
    8e18:	e59d4034 	ldr	r4, [sp, #52]	; 0x34
    8e1c:	e0246495 	mla	r4, r5, r4, r6
    8e20:	e0060b98 	mul	r6, r8, fp
    8e24:	e1530001 	cmp	r3, r1
    8e28:	31a03001 	movcc	r3, r1
    8e2c:	e1570002 	cmp	r7, r2
    8e30:	21a02007 	movcs	r2, r7
    8e34:	e153000c 	cmp	r3, ip
    8e38:	31a0300c 	movcc	r3, ip
    8e3c:	e1520000 	cmp	r2, r0
    8e40:	31a02000 	movcc	r2, r0
    8e44:	e59dc018 	ldr	ip, [sp, #24]
    8e48:	e59d0008 	ldr	r0, [sp, #8]
    8e4c:	e1550003 	cmp	r5, r3
    8e50:	e59d101c 	ldr	r1, [sp, #28]
    8e54:	e59d5004 	ldr	r5, [sp, #4]
    8e58:	e58d2020 	str	r2, [sp, #32]
    8e5c:	e060200c 	rsb	r2, r0, ip
    8e60:	e0650001 	rsb	r0, r5, r1
    8e64:	e066c004 	rsb	ip, r6, r4
    8e68:	ca00003b 	bgt	8f5c <drawTriangle+0x298>
    8e6c:	e59d1068 	ldr	r1, [sp, #104]	; 0x68
    8e70:	e0834103 	add	r4, r3, r3, lsl #2
    8e74:	e1a01801 	lsl	r1, r1, #16
    8e78:	e1a04384 	lsl	r4, r4, #7
    8e7c:	e1a01821 	lsr	r1, r1, #16
    8e80:	e58d4018 	str	r4, [sp, #24]
    8e84:	e58d1024 	str	r1, [sp, #36]	; 0x24
    8e88:	e58dc01c 	str	ip, [sp, #28]
    8e8c:	e1a0c000 	mov	ip, r0
    8e90:	e59d4020 	ldr	r4, [sp, #32]
    8e94:	e1580004 	cmp	r8, r4
    8e98:	ca000020 	bgt	8f20 <drawTriangle+0x25c>
    8e9c:	e59d701c 	ldr	r7, [sp, #28]
    8ea0:	e59d4020 	ldr	r4, [sp, #32]
    8ea4:	e1a0600c 	mov	r6, ip
    8ea8:	e1a05002 	mov	r5, r2
    8eac:	e3560000 	cmp	r6, #0
    8eb0:	a3550000 	cmpge	r5, #0
    8eb4:	ba000013 	blt	8f08 <drawTriangle+0x244>
    8eb8:	e3570000 	cmp	r7, #0
    8ebc:	da000011 	ble	8f08 <drawTriangle+0x244>
    8ec0:	e59f00a0 	ldr	r0, [pc, #160]	; 8f68 <drawTriangle+0x2a4>
    8ec4:	e59f10a0 	ldr	r1, [pc, #160]	; 8f6c <drawTriangle+0x2a8>
    8ec8:	e1540000 	cmp	r4, r0
    8ecc:	d1530001 	cmple	r3, r1
    8ed0:	ca00000c 	bgt	8f08 <drawTriangle+0x244>
    8ed4:	e59f0094 	ldr	r0, [pc, #148]	; 8f70 <drawTriangle+0x2ac>
    8ed8:	e58d2010 	str	r2, [sp, #16]
    8edc:	e58d300c 	str	r3, [sp, #12]
    8ee0:	e58dc014 	str	ip, [sp, #20]
    8ee4:	ebfffc50 	bl	802c <GET32>
    8ee8:	e59de018 	ldr	lr, [sp, #24]
    8eec:	e084100e 	add	r1, r4, lr
    8ef0:	e0800081 	add	r0, r0, r1, lsl #1
    8ef4:	e59d1024 	ldr	r1, [sp, #36]	; 0x24
    8ef8:	ebfffc47 	bl	801c <PUT16>
    8efc:	e59dc014 	ldr	ip, [sp, #20]
    8f00:	e59d300c 	ldr	r3, [sp, #12]
    8f04:	e59d2010 	ldr	r2, [sp, #16]
    8f08:	e2444001 	sub	r4, r4, #1
    8f0c:	e1580004 	cmp	r8, r4
    8f10:	e085500a 	add	r5, r5, sl
    8f14:	e0866009 	add	r6, r6, r9
    8f18:	e087700b 	add	r7, r7, fp
    8f1c:	daffffe2 	ble	8eac <drawTriangle+0x1e8>
    8f20:	e59d5018 	ldr	r5, [sp, #24]
    8f24:	e59d602c 	ldr	r6, [sp, #44]	; 0x2c
    8f28:	e59d4028 	ldr	r4, [sp, #40]	; 0x28
    8f2c:	e2455d0a 	sub	r5, r5, #640	; 0x280
    8f30:	e2433001 	sub	r3, r3, #1
    8f34:	e58d5018 	str	r5, [sp, #24]
    8f38:	e0662002 	rsb	r2, r6, r2
    8f3c:	e59d501c 	ldr	r5, [sp, #28]
    8f40:	e59d6034 	ldr	r6, [sp, #52]	; 0x34
    8f44:	e1540003 	cmp	r4, r3
    8f48:	e59d4030 	ldr	r4, [sp, #48]	; 0x30
    8f4c:	e0665005 	rsb	r5, r6, r5
    8f50:	e064c00c 	rsb	ip, r4, ip
    8f54:	e58d501c 	str	r5, [sp, #28]
    8f58:	daffffcc 	ble	8e90 <drawTriangle+0x1cc>
    8f5c:	e28dd03c 	add	sp, sp, #60	; 0x3c
    8f60:	e8bd4ff0 	pop	{r4, r5, r6, r7, r8, r9, sl, fp, lr}
    8f64:	e12fff1e 	bx	lr
    8f68:	0000027f 	andeq	r0, r0, pc, ror r2
    8f6c:	000001df 	ldrdeq	r0, [r0], -pc	; <UNPREDICTABLE>
    8f70:	40040020 	andmi	r0, r4, r0, lsr #32

Disassembly of section .rodata.str1.4:

00008f74 <.rodata.str1.4>:
    8f74:	656d6974 	strbvs	r6, [sp, #-2420]!	; 0x974
    8f78:	6d617473 	cfstrdvs	mvd7, [r1, #-460]!	; 0xfffffe34
    8f7c:	00203a70 	eoreq	r3, r0, r0, ror sl
    8f80:	00000a0d 	andeq	r0, r0, sp, lsl #20
    8f84:	6f686365 	svcvs	0x00686365
    8f88:	00000000 	andeq	r0, r0, r0
    8f8c:	6f686365 	svcvs	0x00686365
    8f90:	0d676e69 	stcleq	14, cr6, [r7, #-420]!	; 0xfffffe5c
    8f94:	0000000a 	andeq	r0, r0, sl

Disassembly of section .data:

00008fa0 <foreColor>:
    8fa0:	0000ffff 	strdeq	pc, [r0], -pc	; <UNPREDICTABLE>

00008fa4 <graphicsAddress>:
	...

00008fb0 <font>:
	...
    91c0:	18180000 	ldmdane	r8, {}	; <UNPREDICTABLE>
    91c4:	00181818 	andseq	r1, r8, r8, lsl r8
    91c8:	00180000 	andseq	r0, r8, r0
    91cc:	00000000 	andeq	r0, r0, r0
    91d0:	24242400 	strtcs	r2, [r4], #-1024	; 0x400
    91d4:	00000024 	andeq	r0, r0, r4, lsr #32
	...
    91e0:	24480000 	strbcs	r0, [r8], #-0
    91e4:	7f2424fe 	svcvc	0x002424fe
    91e8:	00121212 	andseq	r1, r2, r2, lsl r2
    91ec:	00000000 	andeq	r0, r0, r0
    91f0:	523c0000 	eorspl	r0, ip, #0
    91f4:	503c1212 	eorspl	r1, ip, r2, lsl r2
    91f8:	003e5250 	eorseq	r5, lr, r0, asr r2
    91fc:	00000000 	andeq	r0, r0, r0
    9200:	49470000 	stmdbmi	r7, {}^	; <UNPREDICTABLE>
    9204:	e8101729 	ldmda	r0, {r0, r3, r5, r8, r9, sl, ip}
    9208:	00e29294 	smlaleq	r9, r2, r4, r2
    920c:	00000000 	andeq	r0, r0, r0
    9210:	243c0000 	ldrtcs	r0, [ip], #-0
    9214:	4b4e1c24 	blmi	13902ac <multiplylookup+0x1386afc>
    9218:	00de2331 	sbcseq	r2, lr, r1, lsr r3
    921c:	00000000 	andeq	r0, r0, r0
    9220:	18181800 	ldmdane	r8, {fp, ip}
    9224:	00000008 	andeq	r0, r0, r8
	...
    9230:	08101000 	ldmdaeq	r0, {ip}
    9234:	04040c08 	streq	r0, [r4], #-3080	; 0xc08
    9238:	08080c04 	stmdaeq	r8, {r2, sl, fp}
    923c:	00001010 	andeq	r1, r0, r0, lsl r0
    9240:	10080800 	andne	r0, r8, r0, lsl #16
    9244:	20203010 	eorcs	r3, r0, r0, lsl r0
    9248:	10103020 	andsne	r3, r0, r0, lsr #32
    924c:	00000818 	andeq	r0, r0, r8, lsl r8
    9250:	182c0000 	stmdane	ip!, {}	; <UNPREDICTABLE>
    9254:	00002418 	andeq	r2, r0, r8, lsl r4
	...
    9264:	087e0808 	ldmdaeq	lr!, {r3, fp}^
    9268:	00000008 	andeq	r0, r0, r8
	...
    9278:	040c0800 	streq	r0, [ip], #-2048	; 0x800
    927c:	00000004 	andeq	r0, r0, r4
    9280:	00000000 	andeq	r0, r0, r0
    9284:	3c000000 	stccc	0, cr0, [r0], {-0}
	...
    9298:	00181800 	andseq	r1, r8, r0, lsl #16
    929c:	00000000 	andeq	r0, r0, r0
    92a0:	20204000 	eorcs	r4, r0, r0
    92a4:	08081010 	stmdaeq	r8, {r4, ip}
    92a8:	00020404 	andeq	r0, r2, r4, lsl #8
    92ac:	00000000 	andeq	r0, r0, r0
    92b0:	663c0000 	ldrtvs	r0, [ip], -r0
    92b4:	425a4242 	subsmi	r4, sl, #536870916	; 0x20000004
    92b8:	003c6642 	eorseq	r6, ip, r2, asr #12
    92bc:	00000000 	andeq	r0, r0, r0
    92c0:	16180000 	ldrne	r0, [r8], -r0
    92c4:	10101010 	andsne	r1, r0, r0, lsl r0
    92c8:	007e1010 	rsbseq	r1, lr, r0, lsl r0
    92cc:	00000000 	andeq	r0, r0, r0
    92d0:	623c0000 	eorsvs	r0, ip, #0
    92d4:	18306040 	ldmdane	r0!, {r6, sp, lr}
    92d8:	007e060c 	rsbseq	r0, lr, ip, lsl #12
    92dc:	00000000 	andeq	r0, r0, r0
    92e0:	623c0000 	eorsvs	r0, ip, #0
    92e4:	60186040 	andsvs	r6, r8, r0, asr #32
    92e8:	003c4240 	eorseq	r4, ip, r0, asr #4
    92ec:	00000000 	andeq	r0, r0, r0
    92f0:	30300000 	eorscc	r0, r0, r0
    92f4:	22242428 	eorcs	r2, r4, #40, 8	; 0x28000000
    92f8:	0020207e 	eoreq	r2, r0, lr, ror r0
    92fc:	00000000 	andeq	r0, r0, r0
    9300:	027e0000 	rsbseq	r0, lr, #0
    9304:	40663a02 	rsbmi	r3, r6, r2, lsl #20
    9308:	003c6240 	eorseq	r6, ip, r0, asr #4
    930c:	00000000 	andeq	r0, r0, r0
    9310:	44380000 	ldrtmi	r0, [r8], #-0
    9314:	42663a02 	rsbmi	r3, r6, #8192	; 0x2000
    9318:	003c6442 	eorseq	r6, ip, r2, asr #8
    931c:	00000000 	andeq	r0, r0, r0
    9320:	407e0000 	rsbsmi	r0, lr, r0
    9324:	18101020 	ldmdane	r0, {r5, ip}
    9328:	00080808 	andeq	r0, r8, r8, lsl #16
    932c:	00000000 	andeq	r0, r0, r0
    9330:	663c0000 	ldrtvs	r0, [ip], -r0
    9334:	66186642 	ldrvs	r6, [r8], -r2, asr #12
    9338:	003c4242 	eorseq	r4, ip, r2, asr #4
    933c:	00000000 	andeq	r0, r0, r0
    9340:	663c0000 	ldrtvs	r0, [ip], -r0
    9344:	5c664242 	sfmpl	f4, 2, [r6], #-264	; 0xfffffef8
    9348:	001c2240 	andseq	r2, ip, r0, asr #4
	...
    9354:	00001818 	andeq	r1, r0, r8, lsl r8
    9358:	00181800 	andseq	r1, r8, r0, lsl #16
	...
    9364:	00001818 	andeq	r1, r0, r8, lsl r8
    9368:	08081800 	stmdaeq	r8, {fp, ip}
    936c:	00000004 	andeq	r0, r0, r4
    9370:	40000000 	andmi	r0, r0, r0
    9374:	0c020c30 	stceq	12, cr0, [r2], {48}	; 0x30
    9378:	00004030 	andeq	r4, r0, r0, lsr r0
	...
    9384:	00007e00 	andeq	r7, r0, r0, lsl #28
    9388:	0000007e 	andeq	r0, r0, lr, ror r0
    938c:	00000000 	andeq	r0, r0, r0
    9390:	02000000 	andeq	r0, r0, #0
    9394:	3040300c 	subcc	r3, r0, ip
    9398:	0000020c 	andeq	r0, r0, ip, lsl #4
    939c:	00000000 	andeq	r0, r0, r0
    93a0:	623c0000 	eorsvs	r0, ip, #0
    93a4:	18204042 	stmdane	r0!, {r1, r6, lr}
    93a8:	00080008 	andeq	r0, r8, r8
    93ac:	00000000 	andeq	r0, r0, r0
    93b0:	42443800 	submi	r3, r4, #0, 16
    93b4:	a5a5a59a 	strge	sl, [r5, #1434]!	; 0x59a
    93b8:	42026d55 	andmi	r6, r2, #5440	; 0x1540
    93bc:	0000003c 	andeq	r0, r0, ip, lsr r0
    93c0:	18180000 	ldmdane	r8, {}	; <UNPREDICTABLE>
    93c4:	7e242424 	cdpvc	4, 2, cr2, cr4, cr4, {1}
    93c8:	00814242 	addeq	r4, r1, r2, asr #4
    93cc:	00000000 	andeq	r0, r0, r0
    93d0:	623e0000 	eorsvs	r0, lr, #0
    93d4:	423e6242 	eorsmi	r6, lr, #536870916	; 0x20000004
    93d8:	003e4242 	eorseq	r4, lr, r2, asr #4
    93dc:	00000000 	andeq	r0, r0, r0
    93e0:	66380000 	ldrtvs	r0, [r8], -r0
    93e4:	02020242 	andeq	r0, r2, #536870916	; 0x20000004
    93e8:	00384442 	eorseq	r4, r8, r2, asr #8
    93ec:	00000000 	andeq	r0, r0, r0
    93f0:	621e0000 	andsvs	r0, lr, #0
    93f4:	42424242 	submi	r4, r2, #536870916	; 0x20000004
    93f8:	003e6242 	eorseq	r6, lr, r2, asr #4
    93fc:	00000000 	andeq	r0, r0, r0
    9400:	027e0000 	rsbseq	r0, lr, #0
    9404:	027e0202 	rsbseq	r0, lr, #536870912	; 0x20000000
    9408:	007e0202 	rsbseq	r0, lr, r2, lsl #4
    940c:	00000000 	andeq	r0, r0, r0
    9410:	027e0000 	rsbseq	r0, lr, #0
    9414:	027e0202 	rsbseq	r0, lr, #536870912	; 0x20000000
    9418:	00020202 	andeq	r0, r2, r2, lsl #4
    941c:	00000000 	andeq	r0, r0, r0
    9420:	46380000 	ldrtmi	r0, [r8], -r0
    9424:	42720202 	rsbsmi	r0, r2, #536870912	; 0x20000000
    9428:	003c4642 	eorseq	r4, ip, r2, asr #12
    942c:	00000000 	andeq	r0, r0, r0
    9430:	42420000 	submi	r0, r2, #0
    9434:	427e4242 	rsbsmi	r4, lr, #536870916	; 0x20000004
    9438:	00424242 	subeq	r4, r2, r2, asr #4
    943c:	00000000 	andeq	r0, r0, r0
    9440:	187e0000 	ldmdane	lr!, {}^	; <UNPREDICTABLE>
    9444:	18181818 	ldmdane	r8, {r3, r4, fp, ip}
    9448:	007e1818 	rsbseq	r1, lr, r8, lsl r8
    944c:	00000000 	andeq	r0, r0, r0
    9450:	20380000 	eorscs	r0, r8, r0
    9454:	20202020 	eorcs	r2, r0, r0, lsr #32
    9458:	001c2622 	andseq	r2, ip, r2, lsr #12
    945c:	00000000 	andeq	r0, r0, r0
    9460:	22420000 	subcs	r0, r2, #0
    9464:	121e0a12 	andsne	r0, lr, #73728	; 0x12000
    9468:	00c24222 	sbceq	r4, r2, r2, lsr #4
    946c:	00000000 	andeq	r0, r0, r0
    9470:	04040000 	streq	r0, [r4], #-0
    9474:	04040404 	streq	r0, [r4], #-1028	; 0x404
    9478:	007c0404 	rsbseq	r0, ip, r4, lsl #8
    947c:	00000000 	andeq	r0, r0, r0
    9480:	66460000 	strbvs	r0, [r6], -r0
    9484:	5a5a5a66 	bpl	169fe24 <multiplylookup+0x1696674>
    9488:	00424242 	subeq	r4, r2, r2, asr #4
    948c:	00000000 	andeq	r0, r0, r0
    9490:	46460000 	strbmi	r0, [r6], -r0
    9494:	525a4a4a 	subspl	r4, sl, #303104	; 0x4a000
    9498:	00626252 	rsbeq	r6, r2, r2, asr r2
    949c:	00000000 	andeq	r0, r0, r0
    94a0:	663c0000 	ldrtvs	r0, [ip], -r0
    94a4:	42424242 	submi	r4, r2, #536870916	; 0x20000004
    94a8:	003c6642 	eorseq	r6, ip, r2, asr #12
    94ac:	00000000 	andeq	r0, r0, r0
    94b0:	423e0000 	eorsmi	r0, lr, #0
    94b4:	3e624242 	cdpcc	2, 6, cr4, cr2, cr2, {2}
    94b8:	00020202 	andeq	r0, r2, r2, lsl #4
    94bc:	00000000 	andeq	r0, r0, r0
    94c0:	663c0000 	ldrtvs	r0, [ip], -r0
    94c4:	42424242 	submi	r4, r2, #536870916	; 0x20000004
    94c8:	103c6642 	eorsne	r6, ip, r2, asr #12
    94cc:	00000060 	andeq	r0, r0, r0, rrx
    94d0:	423e0000 	eorsmi	r0, lr, #0
    94d4:	123e4242 	eorsne	r4, lr, #536870916	; 0x20000004
    94d8:	00426222 	subeq	r6, r2, r2, lsr #4
    94dc:	00000000 	andeq	r0, r0, r0
    94e0:	423c0000 	eorsmi	r0, ip, #0
    94e4:	40380602 	eorsmi	r0, r8, r2, lsl #12
    94e8:	003c4240 	eorseq	r4, ip, r0, asr #4
    94ec:	00000000 	andeq	r0, r0, r0
    94f0:	187e0000 	ldmdane	lr!, {}^	; <UNPREDICTABLE>
    94f4:	18181818 	ldmdane	r8, {r3, r4, fp, ip}
    94f8:	00181818 	andseq	r1, r8, r8, lsl r8
    94fc:	00000000 	andeq	r0, r0, r0
    9500:	42420000 	submi	r0, r2, #0
    9504:	42424242 	submi	r4, r2, #536870916	; 0x20000004
    9508:	003c6642 	eorseq	r6, ip, r2, asr #12
    950c:	00000000 	andeq	r0, r0, r0
    9510:	42c30000 	sbcmi	r0, r3, #0
    9514:	24244242 	strtcs	r4, [r4], #-578	; 0x242
    9518:	00181824 	andseq	r1, r8, r4, lsr #16
    951c:	00000000 	andeq	r0, r0, r0
    9520:	81810000 	orrhi	r0, r1, r0
    9524:	5a5a5adb 	bpl	16a0098 <multiplylookup+0x16968e8>
    9528:	00666666 	rsbeq	r6, r6, r6, ror #12
    952c:	00000000 	andeq	r0, r0, r0
    9530:	66420000 	strbvs	r0, [r2], -r0
    9534:	18181824 	ldmdane	r8, {r2, r5, fp, ip}
    9538:	00426224 	subeq	r6, r2, r4, lsr #4
    953c:	00000000 	andeq	r0, r0, r0
    9540:	42420000 	submi	r0, r2, #0
    9544:	18182424 	ldmdane	r8, {r2, r5, sl, sp}
    9548:	00181818 	andseq	r1, r8, r8, lsl r8
    954c:	00000000 	andeq	r0, r0, r0
    9550:	607e0000 	rsbsvs	r0, lr, r0
    9554:	0c081020 	stceq	0, cr1, [r8], {32}
    9558:	00ff0204 	rscseq	r0, pc, r4, lsl #4
    955c:	00000000 	andeq	r0, r0, r0
    9560:	08083800 	stmdaeq	r8, {fp, ip, sp}
    9564:	08080808 	stmdaeq	r8, {r3, fp}
    9568:	08080808 	stmdaeq	r8, {r3, fp}
    956c:	00003808 	andeq	r3, r0, r8, lsl #16
    9570:	04040200 	streq	r0, [r4], #-512	; 0x200
    9574:	10100808 	andsne	r0, r0, r8, lsl #16
    9578:	00402020 	subeq	r2, r0, r0, lsr #32
    957c:	00000000 	andeq	r0, r0, r0
    9580:	10101c00 	andsne	r1, r0, r0, lsl #24
    9584:	10101010 	andsne	r1, r0, r0, lsl r0
    9588:	10101010 	andsne	r1, r0, r0, lsl r0
    958c:	00001c10 	andeq	r1, r0, r0, lsl ip
    9590:	18180000 	ldmdane	r8, {}	; <UNPREDICTABLE>
    9594:	42422424 	submi	r2, r2, #36, 8	; 0x24000000
	...
    95ac:	000000ff 	strdeq	r0, [r0], -pc	; <UNPREDICTABLE>
    95b0:	00100800 	andseq	r0, r0, r0, lsl #16
	...
    95c4:	7c60223c 	sfmvc	f2, 2, [r0], #-240	; 0xffffff10
    95c8:	00de6262 	sbcseq	r6, lr, r2, ror #4
    95cc:	00000000 	andeq	r0, r0, r0
    95d0:	02020200 	andeq	r0, r2, #0, 4
    95d4:	4242663a 	submi	r6, r2, #60817408	; 0x3a00000
    95d8:	003a6642 	eorseq	r6, sl, r2, asr #12
	...
    95e4:	0202463c 	andeq	r4, r2, #60, 12	; 0x3c00000
    95e8:	003c4602 	eorseq	r4, ip, r2, lsl #12
    95ec:	00000000 	andeq	r0, r0, r0
    95f0:	40404000 	submi	r4, r0, r0
    95f4:	4242665c 	submi	r6, r2, #92, 12	; 0x5c00000
    95f8:	005c6642 	subseq	r6, ip, r2, asr #12
	...
    9604:	7e42663c 	mcrvc	6, 2, r6, cr2, cr12, {1}
    9608:	003c4602 	eorseq	r4, ip, r2, lsl #12
    960c:	00000000 	andeq	r0, r0, r0
    9610:	08087800 	stmdaeq	r8, {fp, ip, sp, lr}
    9614:	0808087e 	stmdaeq	r8, {r1, r2, r3, r4, r5, r6, fp}
    9618:	00080808 	andeq	r0, r8, r8, lsl #16
	...
    9624:	4242665c 	submi	r6, r2, #92, 12	; 0x5c00000
    9628:	405c6642 	subsmi	r6, ip, r2, asr #12
    962c:	00003c66 	andeq	r3, r0, r6, ror #24
    9630:	02020200 	andeq	r0, r2, #0, 4
    9634:	4242663a 	submi	r6, r2, #60817408	; 0x3a00000
    9638:	00424242 	subeq	r4, r2, r2, asr #4
    963c:	00000000 	andeq	r0, r0, r0
    9640:	00001000 	andeq	r1, r0, r0
    9644:	1010101c 	andsne	r1, r0, ip, lsl r0
    9648:	007e1010 	rsbseq	r1, lr, r0, lsl r0
    964c:	00000000 	andeq	r0, r0, r0
    9650:	00001000 	andeq	r1, r0, r0
    9654:	1010101c 	andsne	r1, r0, ip, lsl r0
    9658:	10101010 	andsne	r1, r0, r0, lsl r0
    965c:	00000e10 	andeq	r0, r0, r0, lsl lr
    9660:	04040400 	streq	r0, [r4], #-1024	; 0x400
    9664:	1c143464 	cfldrsne	mvf3, [r4], {100}	; 0x64
    9668:	00442414 	subeq	r2, r4, r4, lsl r4
    966c:	00000000 	andeq	r0, r0, r0
    9670:	10101c00 	andsne	r1, r0, r0, lsl #24
    9674:	10101010 	andsne	r1, r0, r0, lsl r0
    9678:	007e1010 	rsbseq	r1, lr, r0, lsl r0
	...
    9684:	5a5a5a6e 	bpl	16a0044 <multiplylookup+0x1696894>
    9688:	005a5a5a 	subseq	r5, sl, sl, asr sl
	...
    9694:	4242663a 	submi	r6, r2, #60817408	; 0x3a00000
    9698:	00424242 	subeq	r4, r2, r2, asr #4
	...
    96a4:	4242663c 	submi	r6, r2, #60, 12	; 0x3c00000
    96a8:	003c6642 	eorseq	r6, ip, r2, asr #12
	...
    96b4:	4242663a 	submi	r6, r2, #60817408	; 0x3a00000
    96b8:	023a6642 	eorseq	r6, sl, #69206016	; 0x4200000
    96bc:	00000202 	andeq	r0, r0, r2, lsl #4
    96c0:	00000000 	andeq	r0, r0, r0
    96c4:	4242665c 	submi	r6, r2, #92, 12	; 0x5c00000
    96c8:	405c6642 	subsmi	r6, ip, r2, asr #12
    96cc:	00004040 	andeq	r4, r0, r0, asr #32
    96d0:	00000000 	andeq	r0, r0, r0
    96d4:	04040c74 	streq	r0, [r4], #-3188	; 0xc74
    96d8:	00040404 	andeq	r0, r4, r4, lsl #8
	...
    96e4:	3806463c 	stmdacc	r6, {r2, r3, r4, r5, r9, sl, lr}
    96e8:	003c4240 	eorseq	r4, ip, r0, asr #4
    96ec:	00000000 	andeq	r0, r0, r0
    96f0:	04000000 	streq	r0, [r0], #-0
    96f4:	0404043e 	streq	r0, [r4], #-1086	; 0x43e
    96f8:	00780c04 	rsbseq	r0, r8, r4, lsl #24
	...
    9704:	42424242 	submi	r4, r2, #536870916	; 0x20000004
    9708:	005c6642 	subseq	r6, ip, r2, asr #12
	...
    9714:	24664242 	strbtcs	r4, [r6], #-578	; 0x242
    9718:	00181824 	andseq	r1, r8, r4, lsr #16
	...
    9724:	5a5ac381 	bpl	16ba530 <multiplylookup+0x16b0d80>
    9728:	0066665a 	rsbeq	r6, r6, sl, asr r6
	...
    9734:	18182442 	ldmdane	r8, {r1, r6, sl, sp}
    9738:	0042241c 	subeq	r2, r2, ip, lsl r4
	...
    9744:	24644242 	strbtcs	r4, [r4], #-578	; 0x242
    9748:	0818182c 	ldmdaeq	r8, {r2, r3, r5, fp, ip}
    974c:	00000608 	andeq	r0, r0, r8, lsl #12
    9750:	00000000 	andeq	r0, r0, r0
    9754:	0810207e 	ldmdaeq	r0, {r1, r2, r3, r4, r5, r6, sp}
    9758:	007e060c 	rsbseq	r0, lr, ip, lsl #12
    975c:	00000000 	andeq	r0, r0, r0
    9760:	08187000 	ldmdaeq	r8, {ip, sp, lr}
    9764:	04080808 	streq	r0, [r8], #-2056	; 0x808
    9768:	08080808 	stmdaeq	r8, {r3, fp}
    976c:	00007018 	andeq	r7, r0, r8, lsl r0
    9770:	18181800 	ldmdane	r8, {fp, ip}
    9774:	18181818 	ldmdane	r8, {r3, r4, fp, ip}
    9778:	18181818 	ldmdane	r8, {r3, r4, fp, ip}
    977c:	00001818 	andeq	r1, r0, r8, lsl r8
    9780:	10180e00 	andsne	r0, r8, r0, lsl #28
    9784:	20101010 	andscs	r1, r0, r0, lsl r0
    9788:	10101010 	andsne	r1, r0, r0, lsl r0
    978c:	00000e18 	andeq	r0, r0, r8, lsl lr
    9790:	00000000 	andeq	r0, r0, r0
    9794:	00700e00 	rsbseq	r0, r0, r0, lsl #28
	...

Disassembly of section .bss:

000097b0 <multiplylookup>:
	...

Disassembly of section .ARM.attributes:

00000000 <.ARM.attributes>:
   0:	00002b41 	andeq	r2, r0, r1, asr #22
   4:	61656100 	cmnvs	r5, r0, lsl #2
   8:	01006962 	tsteq	r0, r2, ror #18
   c:	00000021 	andeq	r0, r0, r1, lsr #32
  10:	4d524105 	ldfmie	f4, [r2, #-20]	; 0xffffffec
  14:	54357620 	ldrtpl	r7, [r5], #-1568	; 0x620
  18:	04060045 	streq	r0, [r6], #-69	; 0x45
  1c:	01090108 	tsteq	r9, r8, lsl #2
  20:	01140412 	tsteq	r4, r2, lsl r4
  24:	03170115 	tsteq	r7, #1073741829	; 0x40000005
  28:	011a0118 	tsteq	sl, r8, lsl r1

Disassembly of section .comment:

00000000 <.comment>:
   0:	3a434347 	bcc	10d0d24 <multiplylookup+0x10c7574>
   4:	4e472820 	cdpmi	8, 4, cr2, cr7, cr0, {1}
   8:	34202955 	strtcc	r2, [r0], #-2389	; 0x955
   c:	322e372e 	eorcc	r3, lr, #12058624	; 0xb80000
	...

Disassembly of section .debug_line:

00000000 <.debug_line>:
   0:	0000005a 	andeq	r0, r0, sl, asr r0
   4:	00200002 	eoreq	r0, r0, r2
   8:	01020000 	mrseq	r0, (UNDEF: 2)
   c:	000d0efb 	strdeq	r0, [sp], -fp
  10:	01010101 	tsteq	r1, r1, lsl #2
  14:	01000000 	mrseq	r0, (UNDEF: 0)
  18:	00010000 	andeq	r0, r1, r0
  1c:	74636576 	strbtvc	r6, [r3], #-1398	; 0x576
  20:	2e73726f 	cdpcs	2, 7, cr7, cr3, cr15, {3}
  24:	00000073 	andeq	r0, r0, r3, ror r0
  28:	05000000 	streq	r0, [r0, #-0]
  2c:	00800002 	addeq	r0, r0, r2
  30:	2f2f1800 	svccs	0x002f1800
  34:	2f322f2f 	svccs	0x00322f2f
  38:	2f322f32 	svccs	0x00322f32
  3c:	2f322f32 	svccs	0x00322f32
  40:	2f2f3232 	svccs	0x002f3232
  44:	2f2f2f2f 	svccs	0x002f2f2f
  48:	2f2f322f 	svccs	0x002f322f
  4c:	2f332f2f 	svccs	0x00332f2f
  50:	302f302f 	eorcc	r3, pc, pc, lsr #32
  54:	2f2f302f 	svccs	0x002f302f
  58:	00020230 	andeq	r0, r2, r0, lsr r2
  5c:	01430101 	cmpeq	r3, r1, lsl #2
  60:	00020000 	andeq	r0, r2, r0
  64:	0000002b 	andeq	r0, r0, fp, lsr #32
  68:	0efb0102 	cdpeq	1, 15, cr0, cr11, cr2, {0}
  6c:	0101000d 	tsteq	r1, sp
  70:	00000101 	andeq	r0, r0, r1, lsl #2
  74:	00000100 	andeq	r0, r0, r0, lsl #2
  78:	65700001 	ldrbvs	r0, [r0, #-1]!
  7c:	68706972 	ldmdavs	r0!, {r1, r4, r5, r6, r8, fp, sp, lr}^
  80:	0000632e 	andeq	r6, r0, lr, lsr #6
  84:	65700000 	ldrbvs	r0, [r0, #-0]!
  88:	68706972 	ldmdavs	r0!, {r1, r4, r5, r6, r8, fp, sp, lr}^
  8c:	0000682e 	andeq	r6, r0, lr, lsr #16
  90:	00000000 	andeq	r0, r0, r0
  94:	80a00205 	adchi	r0, r0, r5, lsl #4
  98:	25030000 	strcs	r0, [r3, #-0]
  9c:	024b2f01 	subeq	r2, fp, #1, 30
  a0:	01010006 	tsteq	r1, r6
  a4:	b8020500 	stmdalt	r2, {r8, sl}
  a8:	03000080 	movweq	r0, #128	; 0x80
  ac:	8431012a 	ldrthi	r0, [r1], #-298	; 0x12a
  b0:	000a024b 	andeq	r0, sl, fp, asr #4
  b4:	05000101 	streq	r0, [r0, #-257]	; 0x101
  b8:	0080e802 	addeq	lr, r0, r2, lsl #16
  bc:	01330300 	teqeq	r3, r0, lsl #6
  c0:	08024c2f 	stmdaeq	r2, {r0, r1, r2, r3, r5, sl, fp, lr}
  c4:	00010100 	andeq	r0, r1, r0, lsl #2
  c8:	81040205 	tsthi	r4, r5, lsl #4
  cc:	37030000 	strcc	r0, [r3, -r0]
  d0:	0a033101 	beq	cc4dc <multiplylookup+0xc2d2c>
  d4:	74038482 	strvc	r8, [r3], #-1154	; 0x482
  d8:	08026a66 	stmdaeq	r2, {r1, r2, r5, r6, r9, fp, sp, lr}
  dc:	00010100 	andeq	r0, r1, r0, lsl #2
  e0:	81500205 	cmphi	r0, r5, lsl #4
  e4:	c1030000 	mrsgt	r0, (UNDEF: 3)
  e8:	844d0100 	strbhi	r0, [sp], #-256	; 0x100
  ec:	00080267 	andeq	r0, r8, r7, ror #4
  f0:	05000101 	streq	r0, [r0, #-257]	; 0x101
  f4:	00818402 	addeq	r8, r1, r2, lsl #8
  f8:	00ca0300 	sbceq	r0, sl, r0, lsl #6
  fc:	02843101 	addeq	r3, r4, #1073741824	; 0x40000000
 100:	01010006 	tsteq	r1, r6
 104:	a4020500 	strge	r0, [r2], #-1280	; 0x500
 108:	03000081 	movweq	r0, #129	; 0x81
 10c:	2e0100d2 	mcrcs	0, 0, r0, cr1, cr2, {6}
 110:	4b2f3133 	blmi	bcc5e4 <multiplylookup+0xbc2e34>
 114:	84666803 	strbthi	r6, [r6], #-2051	; 0x803
 118:	03661803 	cmneq	r6, #196608	; 0x30000
 11c:	03844a66 	orreq	r4, r4, #417792	; 0x66000
 120:	0802661b 	stmdaeq	r2, {r0, r1, r3, r4, r9, sl, sp, lr}
 124:	00010100 	andeq	r0, r1, r0, lsl #2
 128:	82180205 	andshi	r0, r8, #1342177280	; 0x50000000
 12c:	e4030000 	str	r0, [r3], #-0
 130:	032e0100 	teqeq	lr, #0, 2
 134:	2f312e73 	svccs	0x00312e73
 138:	6668034b 	strbtvs	r0, [r8], -fp, asr #6
 13c:	66180384 	ldrvs	r0, [r8], -r4, lsl #7
 140:	844a6603 	strbhi	r6, [sl], #-1539	; 0x603
 144:	84648464 	strbthi	r8, [r4], #-1124	; 0x464
 148:	02662203 	rsbeq	r2, r6, #805306368	; 0x30000000
 14c:	01010008 	tsteq	r1, r8
 150:	c4020500 	strgt	r0, [r2], #-1280	; 0x500
 154:	03000082 	movweq	r0, #130	; 0x82
 158:	310100eb 	smlattcc	r1, fp, r0, r0
 15c:	67676767 	strbvs	r6, [r7, -r7, ror #14]!
 160:	67676767 	strbvs	r6, [r7, -r7, ror #14]!
 164:	6767304d 	strbvs	r3, [r7, -sp, asr #32]!
 168:	02040200 	andeq	r0, r4, #0, 4
 16c:	9f062e06 	svcls	0x00062e06
 170:	04020067 	streq	r0, [r2], #-103	; 0x67
 174:	062e0602 	strteq	r0, [lr], -r2, lsl #12
 178:	0267679f 	rsbeq	r6, r7, #41680896	; 0x27c0000
 17c:	0101001a 	tsteq	r1, sl, lsl r0
 180:	d4020500 	strle	r0, [r2], #-1280	; 0x500
 184:	03000083 	movweq	r0, #131	; 0x83
 188:	31010185 	smlabbcc	r1, r5, r1, r0
 18c:	08026783 	stmdaeq	r2, {r0, r1, r7, r8, r9, sl, sp, lr}
 190:	00010100 	andeq	r0, r1, r0, lsl #2
 194:	84040205 	strhi	r0, [r4], #-517	; 0x205
 198:	8d030000 	stchi	0, cr0, [r3, #-0]
 19c:	4b2f0101 	blmi	bc05a8 <multiplylookup+0xbb6df8>
 1a0:	01000602 	tsteq	r0, r2, lsl #12
 1a4:	0000dd01 	andeq	sp, r0, r1, lsl #26
 1a8:	6e000200 	cdpvs	2, 0, cr0, cr0, cr0, {0}
 1ac:	02000000 	andeq	r0, r0, #0
 1b0:	0d0efb01 	vstreq	d15, [lr, #-4]
 1b4:	01010100 	mrseq	r0, (UNDEF: 17)
 1b8:	00000001 	andeq	r0, r0, r1
 1bc:	01000001 	tsteq	r0, r1
 1c0:	64697600 	strbtvs	r7, [r9], #-1536	; 0x600
 1c4:	31306f65 	teqcc	r0, r5, ror #30
 1c8:	0000632e 	andeq	r6, r0, lr, lsr #6
 1cc:	65760000 	ldrbvs	r0, [r6, #-0]!
 1d0:	726f7463 	rsbvc	r7, pc, #1660944384	; 0x63000000
 1d4:	00682e73 	rsbeq	r2, r8, r3, ror lr
 1d8:	70000000 	andvc	r0, r0, r0
 1dc:	70697265 	rsbvc	r7, r9, r5, ror #4
 1e0:	00682e68 	rsbeq	r2, r8, r8, ror #28
 1e4:	64000000 	strvs	r0, [r0], #-0
 1e8:	6c707369 	ldclvs	3, cr7, [r0], #-420	; 0xfffffe5c
 1ec:	682e7961 	stmdavs	lr!, {r0, r5, r6, r8, fp, ip, sp, lr}
 1f0:	00000000 	andeq	r0, r0, r0
 1f4:	636e7566 	cmnvs	lr, #427819008	; 0x19800000
 1f8:	6e6f6974 	mcrvs	9, 3, r6, cr15, cr4, {3}
 1fc:	00682e73 	rsbeq	r2, r8, r3, ror lr
 200:	74000000 	strvc	r0, [r0], #-0
 204:	72656d69 	rsbvc	r6, r5, #6720	; 0x1a40
 208:	0000682e 	andeq	r6, r0, lr, lsr #16
 20c:	65740000 	ldrbvs	r0, [r4, #-0]!
 210:	6e696d72 	mcrvs	13, 3, r6, cr9, cr2, {3}
 214:	682e6c61 	stmdavs	lr!, {r0, r5, r6, sl, fp, sp, lr}
 218:	00000000 	andeq	r0, r0, r0
 21c:	02050000 	andeq	r0, r5, #0
 220:	0000841c 	andeq	r8, r0, ip, lsl r4
 224:	6c013303 	stcvs	3, cr3, [r1], {3}
 228:	0a026884 	beq	9a440 <multiplylookup+0x90c90>
 22c:	00010100 	andeq	r0, r1, r0, lsl #2
 230:	84580205 	ldrbhi	r0, [r8], #-517	; 0x205
 234:	c0030000 	andgt	r0, r3, r0
 238:	09030100 	stmdbeq	r3, {r8}
 23c:	4c4d4b4a 	mcrrmi	11, 4, r4, sp, cr10
 240:	00080269 	andeq	r0, r8, r9, ror #4
 244:	05000101 	streq	r0, [r0, #-257]	; 0x101
 248:	00849402 	addeq	r9, r4, r2, lsl #8
 24c:	00d90300 	sbcseq	r0, r9, r0, lsl #6
 250:	302f4e01 	eorcc	r4, pc, r1, lsl #28
 254:	67676767 	strbvs	r6, [r7, -r7, ror #14]!
 258:	67676767 	strbvs	r6, [r7, -r7, ror #14]!
 25c:	66500367 	ldrbvs	r0, [r0], -r7, ror #6
 260:	660e0384 	strvs	r0, [lr], -r4, lsl #7
 264:	004c4d4b 	subeq	r4, ip, fp, asr #26
 268:	03020402 	movweq	r0, #9218	; 0x2402
 26c:	02009e22 	andeq	r9, r0, #544	; 0x220
 270:	50490204 	subpl	r0, r9, r4, lsl #4
 274:	4d4bd84d 	stclmi	8, cr13, [fp, #-308]	; 0xfffffecc
 278:	1e08304d 	cdpne	0, 0, cr3, cr8, cr13, {2}
 27c:	4b6a4e30 	blmi	1a93b44 <multiplylookup+0x1a8a394>
 280:	0034024c 	eorseq	r0, r4, ip, asr #4
 284:	00810101 	addeq	r0, r1, r1, lsl #2
 288:	00020000 	andeq	r0, r2, r0
 28c:	00000022 	andeq	r0, r0, r2, lsr #32
 290:	0efb0102 	cdpeq	1, 15, cr0, cr11, cr2, {0}
 294:	0101000d 	tsteq	r1, sp
 298:	00000101 	andeq	r0, r0, r1, lsl #2
 29c:	00000100 	andeq	r0, r0, r0, lsl #2
 2a0:	75660001 	strbvc	r0, [r6, #-1]!
 2a4:	6974636e 	ldmdbvs	r4!, {r1, r2, r3, r5, r6, r8, r9, sp, lr}^
 2a8:	2e736e6f 	cdpcs	14, 7, cr6, cr3, cr15, {3}
 2ac:	00000073 	andeq	r0, r0, r3, ror r0
 2b0:	05000000 	streq	r0, [r0, #-0]
 2b4:	00866802 	addeq	r6, r6, r2, lsl #16
 2b8:	01110300 	tsteq	r1, r0, lsl #6
 2bc:	2f2f2f2f 	svccs	0x002f2f2f
 2c0:	352f2f32 	strcc	r2, [pc, #-3890]!	; fffff396 <multiplylookup+0xffff5be6>
 2c4:	2f2f302f 	svccs	0x002f302f
 2c8:	2f2f322f 	svccs	0x002f322f
 2cc:	2f2f2f2f 	svccs	0x002f2f2f
 2d0:	2f2f3131 	svccs	0x002f3131
 2d4:	2f2f3431 	svccs	0x002f3431
 2d8:	3230302f 	eorscc	r3, r0, #47	; 0x2f
 2dc:	302f2f2f 	eorcc	r2, pc, pc, lsr #30
 2e0:	2f2f2f32 	svccs	0x002f2f32
 2e4:	2f312f33 	svccs	0x00312f33
 2e8:	2f2f2f2f 	svccs	0x002f2f2f
 2ec:	302f2f2f 	eorcc	r2, pc, pc, lsr #30
 2f0:	2f2f322f 	svccs	0x002f322f
 2f4:	302f352f 	eorcc	r3, pc, pc, lsr #10
 2f8:	2e7f9403 	cdpcs	4, 7, cr9, cr15, cr3, {0}
 2fc:	2e2a0334 	mcrcs	3, 1, r0, cr10, cr4, {1}
 300:	032e1603 	teqeq	lr, #3145728	; 0x300000
 304:	02022e0f 	andeq	r2, r2, #15, 28	; 0xf0
 308:	42010100 	andmi	r0, r1, #0, 2
 30c:	02000000 	andeq	r0, r0, #0
 310:	00001e00 	andeq	r1, r0, r0, lsl #28
 314:	fb010200 	blx	40b1e <multiplylookup+0x3736e>
 318:	01000d0e 	tsteq	r0, lr, lsl #26
 31c:	00010101 	andeq	r0, r1, r1, lsl #2
 320:	00010000 	andeq	r0, r1, r0
 324:	74000100 	strvc	r0, [r0], #-256	; 0x100
 328:	72656d69 	rsbvc	r6, r5, #6720	; 0x1a40
 32c:	0000732e 	andeq	r7, r0, lr, lsr #6
 330:	00000000 	andeq	r0, r0, r0
 334:	87700205 	ldrbhi	r0, [r0, -r5, lsl #4]!
 338:	2f140000 	svccs	0x00140000
 33c:	2f2f2f33 	svccs	0x002f2f33
 340:	302f2f33 	eorcc	r2, pc, r3, lsr pc	; <UNPREDICTABLE>
 344:	302f3030 	eorcc	r3, pc, r0, lsr r0	; <UNPREDICTABLE>
 348:	2e640331 	mcrcs	3, 3, r0, cr4, cr1, {1}
 34c:	01000202 	tsteq	r0, r2, lsl #4
 350:	0000a601 	andeq	sl, r0, r1, lsl #12
 354:	3a000200 	bcc	b5c <_start-0x74a4>
 358:	02000000 	andeq	r0, r0, #0
 35c:	0d0efb01 	vstreq	d15, [lr, #-4]
 360:	01010100 	mrseq	r0, (UNDEF: 17)
 364:	00000001 	andeq	r0, r0, r1
 368:	01000001 	tsteq	r0, r1
 36c:	72657400 	rsbvc	r7, r5, #0, 8
 370:	616e696d 	cmnvs	lr, sp, ror #18
 374:	00632e6c 	rsbeq	r2, r3, ip, ror #28
 378:	70000000 	andvc	r0, r0, r0
 37c:	70697265 	rsbvc	r7, r9, r5, ror #4
 380:	00682e68 	rsbeq	r2, r8, r8, ror #28
 384:	64000000 	strvs	r0, [r0], #-0
 388:	6c707369 	ldclvs	3, cr7, [r0], #-420	; 0xfffffe5c
 38c:	682e7961 	stmdavs	lr!, {r0, r5, r6, r8, fp, ip, sp, lr}
 390:	00000000 	andeq	r0, r0, r0
 394:	02050000 	andeq	r0, r5, #0
 398:	000087b0 			; <UNDEFINED> instruction: 0x000087b0
 39c:	2f2f1616 	svccs	0x002f1616
 3a0:	292f4d4c 	stmdbcs	pc!, {r2, r3, r6, r8, sl, fp, lr}	; <UNPREDICTABLE>
 3a4:	01000802 	tsteq	r0, r2, lsl #16
 3a8:	02050001 	andeq	r0, r5, #1
 3ac:	000087e0 	andeq	r8, r0, r0, ror #15
 3b0:	33011103 	movwcc	r1, #4355	; 0x1103
 3b4:	496b2e45 	stmdbmi	fp!, {r0, r2, r6, r9, sl, fp, sp}^
 3b8:	02040200 	andeq	r0, r4, #0, 4
 3bc:	302d4b67 	eorcc	r4, sp, r7, ror #22
 3c0:	332d6b2c 	teqcc	sp, #44, 22	; 0xb000
 3c4:	322a4e2a 	eorcc	r4, sl, #672	; 0x2a0
 3c8:	004a7203 	subeq	r7, sl, r3, lsl #4
 3cc:	03020402 	movweq	r0, #9218	; 0x2402
 3d0:	2d4b660e 	stclcs	6, cr6, [fp, #-56]	; 0xffffffc8
 3d4:	4b322c4c 	blmi	c8b50c <multiplylookup+0xc81d5c>
 3d8:	666c034b 	strbtvs	r0, [ip], -fp, asr #6
 3dc:	2c2e7903 	stccs	9, cr7, [lr], #-12
 3e0:	27034c30 	smladxcs	r3, r0, ip, r4
 3e4:	8274034a 	rsbshi	r0, r4, #671088641	; 0x28000001
 3e8:	6d03834b 	stcvs	3, cr8, [r3, #-300]	; 0xfffffed4
 3ec:	2a334e4a 	bcs	cd3d1c <multiplylookup+0xcca56c>
 3f0:	034e2a4e 	movteq	r2, #59982	; 0xea4e
 3f4:	10026677 	andne	r6, r2, r7, ror r6
 3f8:	44010100 	strmi	r0, [r1], #-256	; 0x100
 3fc:	02000002 	andeq	r0, r0, #2
 400:	00004900 	andeq	r4, r0, r0, lsl #18
 404:	fb010200 	blx	40c0e <multiplylookup+0x3745e>
 408:	01000d0e 	tsteq	r0, lr, lsl #26
 40c:	00010101 	andeq	r0, r1, r1, lsl #2
 410:	00010000 	andeq	r0, r1, r0
 414:	64000100 	strvs	r0, [r0], #-256	; 0x100
 418:	6c707369 	ldclvs	3, cr7, [r0], #-420	; 0xfffffe5c
 41c:	632e7961 	teqvs	lr, #1589248	; 0x184000
 420:	00000000 	andeq	r0, r0, r0
 424:	74636576 	strbtvc	r6, [r3], #-1398	; 0x576
 428:	2e73726f 	cdpcs	2, 7, cr7, cr3, cr15, {3}
 42c:	00000068 	andeq	r0, r0, r8, rrx
 430:	6e756600 	cdpvs	6, 7, cr6, cr5, cr0, {0}
 434:	6f697463 	svcvs	0x00697463
 438:	682e736e 	stmdavs	lr!, {r1, r2, r3, r5, r6, r8, r9, ip, sp, lr}
 43c:	00000000 	andeq	r0, r0, r0
 440:	70736964 	rsbsvc	r6, r3, r4, ror #18
 444:	2e79616c 	rpwcsez	f6, f1, #4.0
 448:	00000068 	andeq	r0, r0, r8, rrx
 44c:	05000000 	streq	r0, [r0, #-0]
 450:	00893402 	addeq	r3, r9, r2, lsl #8
 454:	02151500 	andseq	r1, r5, #0, 10
 458:	01010006 	tsteq	r1, r6
 45c:	40020500 	andmi	r0, r2, r0, lsl #10
 460:	03000089 	movweq	r0, #137	; 0x89
 464:	302e0116 	eorcc	r0, lr, r6, lsl r1
 468:	04020048 	streq	r0, [r2], #-72	; 0x48
 46c:	002e0601 	eoreq	r0, lr, r1, lsl #12
 470:	06020402 	streq	r0, [r2], -r2, lsl #8
 474:	0402004f 	streq	r0, [r2], #-79	; 0x4f
 478:	02004b02 	andeq	r4, r0, #2048	; 0x800
 47c:	002d0204 	eoreq	r0, sp, r4, lsl #4
 480:	2d020402 	cfstrscs	mvf0, [r2, #-8]
 484:	06026c49 	streq	r6, [r2], -r9, asr #24
 488:	00010100 	andeq	r0, r1, r0, lsl #2
 48c:	898c0205 	stmibhi	ip, {r0, r2, r9}
 490:	20030000 	andcs	r0, r3, r0
 494:	2e491301 	cdpcs	3, 4, cr1, cr9, cr1, {0}
 498:	4b4b3067 	blmi	12cc63c <multiplylookup+0x12c2e8c>
 49c:	0602682f 	streq	r6, [r2], -pc, lsr #16
 4a0:	00010100 	andeq	r0, r1, r0, lsl #2
 4a4:	89d40205 	ldmibhi	r4, {r0, r2, r9}^
 4a8:	29030000 	stmdbcs	r3, {}	; <UNPREDICTABLE>
 4ac:	2f2d2f01 	svccs	0x002d2f01
 4b0:	2f302c2f 	svccs	0x00302c2f
 4b4:	2a2f312b 	bcs	bcc968 <multiplylookup+0xbc31b8>
 4b8:	6d2a2c34 	stcvs	12, cr2, [sl, #-208]!	; 0xffffff30
 4bc:	2f2dbb2d 	svccs	0x002dbb2d
 4c0:	2e740367 	cdpcs	3, 7, cr0, cr4, cr7, {3}
 4c4:	032e0c03 	teqeq	lr, #768	; 0x300
 4c8:	0c034a74 	stceq	10, cr4, [r3], {116}	; 0x74
 4cc:	4a74032e 	bmi	1d0118c <multiplylookup+0x1cf79dc>
 4d0:	032e1203 	teqeq	lr, #805306368	; 0x30000000
 4d4:	70032e7a 	andvc	r2, r3, sl, ror lr
 4d8:	0c034e2e 	stceq	14, cr4, [r3], {46}	; 0x2e
 4dc:	6a03342e 	bvs	cd59c <multiplylookup+0xc3dec>
 4e0:	4c67682e 	stclmi	8, cr6, [r7], #-184	; 0xffffff48
 4e4:	68820f03 	stmvs	r2, {r0, r1, r8, r9, sl, fp}
 4e8:	0402009f 	streq	r0, [r2], #-159	; 0x9f
 4ec:	00660601 	rsbeq	r0, r6, r1, lsl #12
 4f0:	06010402 	streq	r0, [r1], -r2, lsl #8
 4f4:	03826903 	orreq	r6, r2, #49152	; 0xc000
 4f8:	026c6614 	rsbeq	r6, ip, #20, 12	; 0x1400000
 4fc:	0101000c 	tsteq	r1, ip
 500:	20020500 	andcs	r0, r2, r0, lsl #10
 504:	0300008b 	movweq	r0, #139	; 0x8b
 508:	2d2f013c 	stfcss	f0, [pc, #-240]!	; 420 <_start-0x7be0>
 50c:	2f324b2e 	svccs	0x00324b2e
 510:	2e770369 	cdpcs	3, 7, cr0, cr7, cr9, {3}
 514:	032e0903 	teqeq	lr, #49152	; 0xc000
 518:	1b032e5c 	blne	cbe90 <multiplylookup+0xc26e0>
 51c:	d665034a 	strbtle	r0, [r5], -sl, asr #6
 520:	03822503 	orreq	r2, r2, #12582912	; 0xc00000
 524:	4d302e5b 	ldcmi	14, cr2, [r0, #-364]!	; 0xfffffe94
 528:	65662003 	strbvs	r2, [r6, #-3]!
 52c:	01001002 	tsteq	r0, r2
 530:	02050001 	andeq	r0, r5, #1
 534:	00008bd0 	ldrdeq	r8, [r0], -r0
 538:	0100c303 	tsteq	r0, r3, lsl #6
 53c:	302e2c30 	eorcc	r2, lr, r0, lsr ip
 540:	032e5c03 	teqeq	lr, #768	; 0x300
 544:	00682e22 	rsbeq	r2, r8, r2, lsr #28
 548:	9c010402 	cfstrsls	mvf0, [r1], {2}
 54c:	034a5e03 	movteq	r5, #44547	; 0xae03
 550:	5b038225 	blpl	e0dec <multiplylookup+0xd763c>
 554:	004d302e 	subeq	r3, sp, lr, lsr #32
 558:	03020402 	movweq	r0, #9218	; 0x2402
 55c:	87656620 	strbhi	r6, [r5, -r0, lsr #12]!
 560:	01000c02 	tsteq	r0, r2, lsl #24
 564:	02050001 	andeq	r0, r5, #1
 568:	00008c70 	andeq	r8, r0, r0, ror ip
 56c:	0100cc03 	tsteq	r0, r3, lsl #24
 570:	4f45332e 	svcmi	0x0045332e
 574:	2f46334b 	svccs	0x0046334b
 578:	032f332c 	teqeq	pc, #44, 6	; 0xb0000000
 57c:	0b032e79 	bleq	cbf68 <multiplylookup+0xc27b8>
 580:	00040266 	andeq	r0, r4, r6, ror #4
 584:	05000101 	streq	r0, [r0, #-257]	; 0x101
 588:	008cc402 	addeq	ip, ip, r2, lsl #8
 58c:	00dd0300 	sbcseq	r0, sp, r0, lsl #6
 590:	2c304b01 	ldccs	11, cr4, [r0], #-4
 594:	322a4f2f 	eorcc	r4, sl, #47, 30	; 0xbc
 598:	302a332a 	eorcc	r3, sl, sl, lsr #6
 59c:	322b322c 	eorcc	r3, fp, #44, 4	; 0xc0000002
 5a0:	322b322a 	eorcc	r3, fp, #-1610612734	; 0xa0000002
 5a4:	034b3346 	movteq	r3, #45894	; 0xb346
 5a8:	034e4a0c 	movteq	r4, #59916	; 0xea0c
 5ac:	2f352e79 	svccs	0x00352e79
 5b0:	3233292a 	eorscc	r2, r3, #688128	; 0xa8000
 5b4:	322c302b 	eorcc	r3, ip, #43	; 0x2b
 5b8:	352e7803 	strcc	r7, [lr, #-2051]!	; 0x803
 5bc:	03812d2f 	orreq	r2, r1, #3008	; 0xbc0
 5c0:	0d032e75 	stceq	14, cr2, [r3, #-468]	; 0xfffffe2c
 5c4:	83832c66 	orrhi	r2, r3, #26112	; 0x6600
 5c8:	d66f0368 	strbtle	r0, [pc], -r8, ror #6
 5cc:	4b4a1103 	blmi	12849e0 <multiplylookup+0x127b230>
 5d0:	2d672f2d 	stclcs	15, cr2, [r7, #-180]!	; 0xffffff4c
 5d4:	f270034b 	vcgt.s<illegal width 64>	q8, q0, <illegal reg q5.5>
 5d8:	4a100348 	bmi	401300 <multiplylookup+0x3f7b50>
 5dc:	6f032b4e 	svcvs	0x00032b4e
 5e0:	2e10034a 	cdpcs	3, 1, cr0, cr0, cr10, {2}
 5e4:	03302f2f 	teqeq	r0, #47, 30	; 0xbc
 5e8:	032e7fa4 	teqeq	lr, #164, 30	; 0x290
 5ec:	48032e38 	stmdami	r3, {r3, r4, r5, r9, sl, fp, sp}
 5f0:	2e38032e 	cdpcs	3, 3, cr0, cr8, cr14, {1}
 5f4:	032e4803 	teqeq	lr, #196608	; 0x30000
 5f8:	48032e38 	stmdami	r3, {r3, r4, r5, r9, sl, fp, sp}
 5fc:	00da032e 	sbcseq	r0, sl, lr, lsr #6
 600:	02002d2e 	andeq	r2, r0, #2944	; 0xb80
 604:	06350104 	ldrteq	r0, [r5], -r4, lsl #2
 608:	00830666 	addeq	r0, r3, r6, ror #12
 60c:	06010402 	streq	r0, [r1], -r2, lsl #8
 610:	9b030666 	blls	c1fb0 <multiplylookup+0xb8800>
 614:	03a04a7f 	moveq	r4, #520192	; 0x7f000
 618:	49039e3a 	stmdbmi	r3, {r1, r3, r4, r5, r9, sl, fp, ip, pc}
 61c:	00df034a 	sbcseq	r0, pc, sl, asr #6
 620:	2f2f4eba 	svccs	0x002f4eba
 624:	522e7a03 	eorpl	r7, lr, #12288	; 0x3000
 628:	032e7403 	teqeq	lr, #50331648	; 0x3000000
 62c:	0330820c 	teqeq	r0, #12, 4	; 0xc0000000
 630:	0d034a72 	vstreq	s8, [r3, #-456]	; 0xfffffe38
 634:	2f2d2f2e 	svccs	0x002d2f2e
 638:	032e7203 	teqeq	lr, #805306368	; 0x30000000
 63c:	0c022e10 	stceq	14, cr2, [r2], {16}
 640:	Address 0x0000000000000640 is out of bounds.


Disassembly of section .debug_info:

00000000 <.debug_info>:
       0:	00000054 	andeq	r0, r0, r4, asr r0
       4:	00000002 	andeq	r0, r0, r2
       8:	01040000 	mrseq	r0, (UNDEF: 4)
       c:	00000000 	andeq	r0, r0, r0
      10:	00008000 	andeq	r8, r0, r0
      14:	000080a0 	andeq	r8, r0, r0, lsr #1
      18:	74636576 	strbtvc	r6, [r3], #-1398	; 0x576
      1c:	2e73726f 	cdpcs	2, 7, cr7, cr3, cr15, {3}
      20:	552f0073 	strpl	r0, [pc, #-115]!	; ffffffb5 <multiplylookup+0xffff6805>
      24:	73726573 	cmnvc	r2, #482344960	; 0x1cc00000
      28:	6f6e6d2f 	svcvs	0x006e6d2f
      2c:	2f6e616c 	svccs	0x006e616c
      30:	2f746967 	svccs	0x00746967
      34:	70736172 	rsbsvc	r6, r3, r2, ror r1
      38:	72726562 	rsbsvc	r6, r2, #411041792	; 0x18800000
      3c:	2f697079 	svccs	0x00697079
      40:	65646976 	strbvs	r6, [r4, #-2422]!	; 0x976
      44:	0031306f 	eorseq	r3, r1, pc, rrx
      48:	20554e47 	subscs	r4, r5, r7, asr #28
      4c:	32205341 	eorcc	r5, r0, #67108865	; 0x4000001
      50:	2e33322e 	cdpcs	2, 3, cr3, cr3, cr14, {1}
      54:	80010031 	andhi	r0, r1, r1, lsr r0
      58:	00000702 	andeq	r0, r0, r2, lsl #14
      5c:	00140002 	andseq	r0, r4, r2
      60:	01040000 	mrseq	r0, (UNDEF: 4)
      64:	00001401 	andeq	r1, r0, r1, lsl #8
      68:	001bea01 	andseq	lr, fp, r1, lsl #20
      6c:	00002300 	andeq	r2, r0, r0, lsl #6
	...
      7c:	00005e00 	andeq	r5, r0, r0, lsl #28
      80:	00000000 	andeq	r0, r0, r0
      84:	49010200 	stmdbmi	r1, {r9}
      88:	0100000b 	tsteq	r0, fp
      8c:	005f0125 	subseq	r0, pc, r5, lsr #2
      90:	80a00000 	adchi	r0, r0, r0
      94:	80b80000 	adcshi	r0, r8, r0
      98:	00000000 	andeq	r0, r0, r0
      9c:	5f010000 	svcpl	0x00010000
      a0:	03000000 	movweq	r0, #0
      a4:	000080ac 	andeq	r8, r0, ip, lsr #1
      a8:	000006c4 	andeq	r0, r0, r4, asr #13
      ac:	05500104 	ldrbeq	r0, [r0, #-260]	; 0x104
      b0:	2150540c 	cmpcs	r0, ip, lsl #8
      b4:	05000020 	streq	r0, [r0, #-32]
      b8:	14af0704 	strtne	r0, [pc], #1796	; c0 <_start-0x7f40>
      bc:	01020000 	mrseq	r0, (UNDEF: 2)
      c0:	000020bd 	strheq	r2, [r0], -sp
      c4:	5f012a01 	svcpl	0x00012a01
      c8:	b8000000 	stmdalt	r0, {}	; <UNPREDICTABLE>
      cc:	e8000080 	stmda	r0, {r7}
      d0:	20000080 	andcs	r0, r0, r0, lsl #1
      d4:	01000000 	mrseq	r0, (UNDEF: 0)
      d8:	000000af 	andeq	r0, r0, pc, lsr #1
      dc:	0080c406 	addeq	ip, r0, r6, lsl #8
      e0:	0006c400 	andeq	ip, r6, r0, lsl #8
      e4:	00009b00 	andeq	r9, r0, r0, lsl #22
      e8:	50010400 	andpl	r0, r1, r0, lsl #8
      ec:	50540c05 	subspl	r0, r4, r5, lsl #24
      f0:	03002021 	movweq	r2, #33	; 0x21
      f4:	000080d4 	ldrdeq	r8, [r0], -r4
      f8:	000006c4 	andeq	r0, r0, r4, asr #13
      fc:	05500104 	ldrbeq	r0, [r0, #-260]	; 0x104
     100:	2150400c 	cmpcs	r0, ip
     104:	02000020 	andeq	r0, r0, #32
     108:	000d6b01 	andeq	r6, sp, r1, lsl #22
     10c:	01330100 	teqeq	r3, r0, lsl #2
     110:	0000005f 	andeq	r0, r0, pc, asr r0
     114:	000080e8 	andeq	r8, r0, r8, ror #1
     118:	00008104 	andeq	r8, r0, r4, lsl #2
     11c:	00000040 	andeq	r0, r0, r0, asr #32
     120:	0000e101 	andeq	lr, r0, r1, lsl #2
     124:	80f40300 	rscshi	r0, r4, r0, lsl #6
     128:	06c40000 	strbeq	r0, [r4], r0
     12c:	01040000 	mrseq	r0, (UNDEF: 4)
     130:	540c0550 	strpl	r0, [ip], #-1360	; 0x550
     134:	00202150 	eoreq	r2, r0, r0, asr r1
     138:	2d010700 	stccs	7, cr0, [r1, #-0]
     13c:	01000019 	tsteq	r0, r9, lsl r0
     140:	f9010141 			; <UNDEFINED> instruction: 0xf9010141
     144:	08000000 	stmdaeq	r0, {}	; <UNPREDICTABLE>
     148:	41010063 	tstmi	r1, r3, rrx
     14c:	0000005f 	andeq	r0, r0, pc, asr r0
     150:	3c010900 	stccc	9, cr0, [r1], {-0}
     154:	01000011 	tsteq	r0, r1, lsl r0
     158:	81040138 	tsthi	r4, r8, lsr r1
     15c:	81500000 	cmphi	r0, r0
     160:	00600000 	rsbeq	r0, r0, r0
     164:	75010000 	strvc	r0, [r1, #-0]
     168:	0a000001 	beq	174 <_start-0x7e8c>
     16c:	00727473 	rsbseq	r7, r2, r3, ror r4
     170:	01753801 	cmneq	r5, r1, lsl #16
     174:	00800000 	addeq	r0, r0, r0
     178:	690b0000 	stmdbvs	fp, {}	; <UNPREDICTABLE>
     17c:	82390100 	eorshi	r0, r9, #0, 2
     180:	a1000001 	tstge	r0, r1
     184:	0c000000 	stceq	0, cr0, [r0], {-0}
     188:	000000e1 	andeq	r0, r0, r1, ror #1
     18c:	00008118 	andeq	r8, r0, r8, lsl r1
     190:	00008134 	andeq	r8, r0, r4, lsr r1
     194:	ef0d3c01 	svc	0x000d3c01
     198:	06000000 	streq	r0, [r0], -r0
     19c:	00008120 	andeq	r8, r0, r0, lsr #2
     1a0:	000006c4 	andeq	r0, r0, r4, asr #13
     1a4:	0000015a 	andeq	r0, r0, sl, asr r1
     1a8:	05500104 	ldrbeq	r0, [r0, #-260]	; 0x104
     1ac:	2150540c 	cmpcs	r0, ip, lsl #8
     1b0:	34030020 	strcc	r0, [r3], #-32
     1b4:	dc000081 	stcle	0, cr0, [r0], {129}	; 0x81
     1b8:	04000006 	streq	r0, [r0], #-6
     1bc:	74025101 	strvc	r5, [r2], #-257	; 0x101
     1c0:	50010400 	andpl	r0, r1, r0, lsl #8
     1c4:	50400c05 	subpl	r0, r0, r5, lsl #24
     1c8:	00002021 	andeq	r2, r0, r1, lsr #32
     1cc:	7b040e00 	blvc	1039d4 <multiplylookup+0xfa224>
     1d0:	05000001 	streq	r0, [r0, #-1]
     1d4:	07cf0801 	strbeq	r0, [pc, r1, lsl #16]
     1d8:	040f0000 	streq	r0, [pc], #-0	; 1e0 <_start-0x7e20>
     1dc:	746e6905 	strbtvc	r6, [lr], #-2309	; 0x905
     1e0:	00e11000 	rsceq	r1, r1, r0
     1e4:	81500000 	cmphi	r0, r0
     1e8:	81840000 	orrhi	r0, r4, r0
     1ec:	00b50000 	adcseq	r0, r5, r0
     1f0:	d9010000 	stmdble	r1, {}	; <UNPREDICTABLE>
     1f4:	11000001 	tstne	r0, r1
     1f8:	000000ef 	andeq	r0, r0, pc, ror #1
     1fc:	000000d5 	ldrdeq	r0, [r0], -r5
     200:	00816006 	addeq	r6, r1, r6
     204:	0006c400 	andeq	ip, r6, r0, lsl #8
     208:	0001bf00 	andeq	fp, r1, r0, lsl #30
     20c:	50010400 	andpl	r0, r1, r0, lsl #8
     210:	50540c05 	subspl	r0, r4, r5, lsl #24
     214:	03002021 	movweq	r2, #33	; 0x21
     218:	00008174 	andeq	r8, r0, r4, ror r1
     21c:	000006dc 	ldrdeq	r0, [r0], -ip
     220:	02510104 	subseq	r0, r1, #4, 2
     224:	01040074 	tsteq	r4, r4, ror r0
     228:	400c0550 	andmi	r0, ip, r0, asr r5
     22c:	00202150 	eoreq	r2, r0, r0, asr r1
     230:	de010900 	cdple	9, 0, cr0, cr1, cr0, {0}
     234:	01000000 	mrseq	r0, (UNDEF: 0)
     238:	8184014a 	orrhi	r0, r4, sl, asr #2
     23c:	81a40000 			; <UNDEFINED> instruction: 0x81a40000
     240:	00f30000 	rscseq	r0, r3, r0
     244:	07010000 	streq	r0, [r1, -r0]
     248:	03000002 	movweq	r0, #2
     24c:	00008190 	muleq	r0, r0, r1
     250:	000006c4 	andeq	r0, r0, r4, asr #13
     254:	05500104 	ldrbeq	r0, [r0, #-260]	; 0x104
     258:	2150540c 	cmpcs	r0, ip, lsl #8
     25c:	07000020 	streq	r0, [r0, -r0, lsr #32]
     260:	001ba001 	andseq	sl, fp, r1
     264:	01520100 	cmpeq	r2, r0, lsl #2
     268:	00023301 	andeq	r3, r2, r1, lsl #6
     26c:	00640800 	rsbeq	r0, r4, r0, lsl #16
     270:	005f5201 	subseq	r5, pc, r1, lsl #4
     274:	72120000 	andsvc	r0, r2, #0
     278:	55010062 	strpl	r0, [r1, #-98]	; 0x62
     27c:	0000005f 	andeq	r0, r0, pc, asr r0
     280:	00637212 	rsbeq	r7, r3, r2, lsl r2
     284:	005f5601 	subseq	r5, pc, r1, lsl #12
     288:	10000000 	andne	r0, r0, r0
     28c:	00000207 	andeq	r0, r0, r7, lsl #4
     290:	000081a4 	andeq	r8, r0, r4, lsr #3
     294:	00008218 	andeq	r8, r0, r8, lsl r2
     298:	00000113 	andeq	r0, r0, r3, lsl r1
     29c:	0002f501 	andeq	pc, r2, r1, lsl #10
     2a0:	02151100 	andseq	r1, r5, #0, 2
     2a4:	01330000 	teqeq	r3, r0
     2a8:	1e130000 	cdpne	0, 1, cr0, cr3, cr0, {0}
     2ac:	51000002 	tstpl	r0, r2
     2b0:	13000001 	movwne	r0, #1
     2b4:	00000228 	andeq	r0, r0, r8, lsr #4
     2b8:	00000171 	andeq	r0, r0, r1, ror r1
     2bc:	0000e114 	andeq	lr, r0, r4, lsl r1
     2c0:	0081c800 	addeq	ip, r1, r0, lsl #16
     2c4:	0081e400 	addeq	lr, r1, r0, lsl #8
     2c8:	af5e0100 	svcge	0x005e0100
     2cc:	15000002 	strne	r0, [r0, #-2]
     2d0:	000000ef 	andeq	r0, r0, pc, ror #1
     2d4:	d0065501 	andle	r5, r6, r1, lsl #10
     2d8:	c4000081 	strgt	r0, [r0], #-129	; 0x81
     2dc:	95000006 	strls	r0, [r0, #-6]
     2e0:	04000002 	streq	r0, [r0], #-2
     2e4:	0c055001 	stceq	0, cr5, [r5], {1}
     2e8:	20215054 	eorcs	r5, r1, r4, asr r0
     2ec:	81e40300 	mvnhi	r0, r0, lsl #6
     2f0:	06dc0000 	ldrbeq	r0, [ip], r0
     2f4:	01040000 	mrseq	r0, (UNDEF: 4)
     2f8:	00750251 	rsbseq	r0, r5, r1, asr r2
     2fc:	05500104 	ldrbeq	r0, [r0, #-260]	; 0x104
     300:	2150400c 	cmpcs	r0, ip
     304:	0c000020 	stceq	0, cr0, [r0], {32}
     308:	000000e1 	andeq	r0, r0, r1, ror #1
     30c:	000081ec 	andeq	r8, r0, ip, ror #3
     310:	00008208 	andeq	r8, r0, r8, lsl #4
     314:	ef0d6101 	svc	0x000d6101
     318:	06000000 	streq	r0, [r0], -r0
     31c:	000081f4 	strdeq	r8, [r0], -r4
     320:	000006c4 	andeq	r0, r0, r4, asr #13
     324:	000002da 	ldrdeq	r0, [r0], -sl
     328:	05500104 	ldrbeq	r0, [r0, #-260]	; 0x104
     32c:	2150540c 	cmpcs	r0, ip, lsl #8
     330:	08030020 	stmdaeq	r3, {r5}
     334:	dc000082 	stcle	0, cr0, [r0], {130}	; 0x82
     338:	04000006 	streq	r0, [r0], #-6
     33c:	08025101 	stmdaeq	r2, {r0, r8, ip, lr}
     340:	50010420 	andpl	r0, r1, r0, lsr #8
     344:	50400c05 	subpl	r0, r0, r5, lsl #24
     348:	00002021 	andeq	r2, r0, r1, lsr #32
     34c:	46010900 	strmi	r0, [r1], -r0, lsl #18
     350:	01000016 	tsteq	r0, r6, lsl r0
     354:	82180164 	andshi	r0, r8, #100, 2
     358:	82c40000 	sbchi	r0, r4, #0
     35c:	018f0000 	orreq	r0, pc, r0
     360:	72010000 	andvc	r0, r1, #0
     364:	0a000004 	beq	37c <_start-0x7c84>
     368:	64010064 	strvs	r0, [r1], #-100	; 0x64
     36c:	0000005f 	andeq	r0, r0, pc, asr r0
     370:	000001af 	andeq	r0, r0, pc, lsr #3
     374:	00020714 	andeq	r0, r2, r4, lsl r7
     378:	00822400 	addeq	r2, r2, r0, lsl #8
     37c:	00827c00 	addeq	r7, r2, r0, lsl #24
     380:	e3660100 	cmn	r6, #0, 2
     384:	11000003 	tstne	r0, r3
     388:	00000215 	andeq	r0, r0, r5, lsl r2
     38c:	000001cd 	andeq	r0, r0, sp, asr #3
     390:	00822416 	addeq	r2, r2, r6, lsl r4
     394:	00827c00 	addeq	r7, r2, r0, lsl #24
     398:	021e1700 	andseq	r1, lr, #0, 14
     39c:	54010000 	strpl	r0, [r1], #-0
     3a0:	00022813 	andeq	r2, r2, r3, lsl r8
     3a4:	0001eb00 	andeq	lr, r1, r0, lsl #22
     3a8:	00e11400 	rsceq	r1, r1, r0, lsl #8
     3ac:	823c0000 	eorshi	r0, ip, #0
     3b0:	82580000 	subshi	r0, r8, #0
     3b4:	5e010000 	cdppl	0, 0, cr0, cr1, cr0, {0}
     3b8:	0000039c 	muleq	r0, ip, r3
     3bc:	0000ef15 	andeq	lr, r0, r5, lsl pc
     3c0:	06550100 	ldrbeq	r0, [r5], -r0, lsl #2
     3c4:	00008244 	andeq	r8, r0, r4, asr #4
     3c8:	000006c4 	andeq	r0, r0, r4, asr #13
     3cc:	00000382 	andeq	r0, r0, r2, lsl #7
     3d0:	05500104 	ldrbeq	r0, [r0, #-260]	; 0x104
     3d4:	2150540c 	cmpcs	r0, ip, lsl #8
     3d8:	58030020 	stmdapl	r3, {r5}
     3dc:	dc000082 	stcle	0, cr0, [r0], {130}	; 0x82
     3e0:	04000006 	streq	r0, [r0], #-6
     3e4:	75025101 	strvc	r5, [r2, #-257]	; 0x101
     3e8:	50010400 	andpl	r0, r1, r0, lsl #8
     3ec:	50400c05 	subpl	r0, r0, r5, lsl #24
     3f0:	00002021 	andeq	r2, r0, r1, lsr #32
     3f4:	0000e10c 	andeq	lr, r0, ip, lsl #2
     3f8:	00826000 	addeq	r6, r2, r0
     3fc:	00827c00 	addeq	r7, r2, r0, lsl #24
     400:	0d610100 	stfeqe	f0, [r1, #-0]
     404:	000000ef 	andeq	r0, r0, pc, ror #1
     408:	00826806 	addeq	r6, r2, r6, lsl #16
     40c:	0006c400 	andeq	ip, r6, r0, lsl #8
     410:	0003c700 	andeq	ip, r3, r0, lsl #14
     414:	50010400 	andpl	r0, r1, r0, lsl #8
     418:	50540c05 	subspl	r0, r4, r5, lsl #24
     41c:	03002021 	movweq	r2, #33	; 0x21
     420:	0000827c 	andeq	r8, r0, ip, ror r2
     424:	000006dc 	ldrdeq	r0, [r0], -ip
     428:	02510104 	subseq	r0, r1, #4, 2
     42c:	01042008 	tsteq	r4, r8
     430:	400c0550 	andmi	r0, ip, r0, asr r5
     434:	00202150 	eoreq	r2, r0, r0, asr r1
     438:	14000000 	strne	r0, [r0], #-0
     43c:	000000e1 	andeq	r0, r0, r1, ror #1
     440:	0000827c 	andeq	r8, r0, ip, ror r2
     444:	00008298 	muleq	r0, r8, r2
     448:	042c6701 	strteq	r6, [ip], #-1793	; 0x701
     44c:	ef180000 	svc	0x00180000
     450:	0d000000 	stceq	0, cr0, [r0, #-0]
     454:	00828406 	addeq	r8, r2, r6, lsl #8
     458:	0006c400 	andeq	ip, r6, r0, lsl #8
     45c:	00041300 	andeq	r1, r4, r0, lsl #6
     460:	50010400 	andpl	r0, r1, r0, lsl #8
     464:	50540c05 	subspl	r0, r4, r5, lsl #24
     468:	03002021 	movweq	r2, #33	; 0x21
     46c:	00008298 	muleq	r0, r8, r2
     470:	000006dc 	ldrdeq	r0, [r0], -ip
     474:	01510104 	cmpeq	r1, r4, lsl #2
     478:	5001043d 	andpl	r0, r1, sp, lsr r4
     47c:	50400c05 	subpl	r0, r0, r5, lsl #24
     480:	00002021 	andeq	r2, r0, r1, lsr #32
     484:	0000e10c 	andeq	lr, r0, ip, lsl #2
     488:	00829800 	addeq	r9, r2, r0, lsl #16
     48c:	0082b400 	addeq	fp, r2, r0, lsl #8
     490:	18680100 	stmdane	r8!, {r8}^
     494:	000000ef 	andeq	r0, r0, pc, ror #1
     498:	82a0060a 	adchi	r0, r0, #10485760	; 0xa00000
     49c:	06c40000 	strbeq	r0, [r4], r0
     4a0:	04580000 	ldrbeq	r0, [r8], #-0
     4a4:	01040000 	mrseq	r0, (UNDEF: 4)
     4a8:	540c0550 	strpl	r0, [ip], #-1360	; 0x550
     4ac:	00202150 	eoreq	r2, r0, r0, asr r1
     4b0:	0082b403 	addeq	fp, r2, r3, lsl #8
     4b4:	0006dc00 	andeq	sp, r6, r0, lsl #24
     4b8:	51010400 	tstpl	r1, r0, lsl #8
     4bc:	01043a01 	tsteq	r4, r1, lsl #20
     4c0:	400c0550 	andmi	r0, ip, r0, asr r5
     4c4:	00202150 	eoreq	r2, r0, r0, asr r1
     4c8:	01090000 	mrseq	r0, (UNDEF: 9)
     4cc:	000002fd 	strdeq	r0, [r0], -sp
     4d0:	c4016b01 	strgt	r6, [r1], #-2817	; 0xb01
     4d4:	d4000082 	strle	r0, [r0], #-130	; 0x82
     4d8:	09000083 	stmdbeq	r0, {r0, r1, r7}
     4dc:	01000002 	tsteq	r0, r2
     4e0:	00000642 	andeq	r0, r0, r2, asr #12
     4e4:	0061720b 	rsbeq	r7, r1, fp, lsl #4
     4e8:	005f6d01 	subseq	r6, pc, r1, lsl #26
     4ec:	02290000 	eoreq	r0, r9, #0
     4f0:	d4060000 	strle	r0, [r6], #-0
     4f4:	dc000082 	stcle	0, cr0, [r0], {130}	; 0x82
     4f8:	b6000006 	strlt	r0, [r0], -r6
     4fc:	04000004 	streq	r0, [r0], #-4
     500:	31015101 	tstcc	r1, r1, lsl #2
     504:	05500104 	ldrbeq	r0, [r0, #-260]	; 0x104
     508:	2150040c 	cmpcs	r0, ip, lsl #8
     50c:	e0060020 	and	r0, r6, r0, lsr #32
     510:	dc000082 	stcle	0, cr0, [r0], {130}	; 0x82
     514:	d2000006 	andle	r0, r0, #6
     518:	04000004 	streq	r0, [r0], #-4
     51c:	30015101 	andcc	r5, r1, r1, lsl #2
     520:	05500104 	ldrbeq	r0, [r0, #-260]	; 0x104
     524:	2150440c 	cmpcs	r0, ip, lsl #8
     528:	ec060020 	stc	0, cr0, [r6], {32}
     52c:	dc000082 	stcle	0, cr0, [r0], {130}	; 0x82
     530:	ee000006 	cdp	0, 0, cr0, cr0, cr6, {0}
     534:	04000004 	streq	r0, [r0], #-4
     538:	30015101 	andcc	r5, r1, r1, lsl #2
     53c:	05500104 	ldrbeq	r0, [r0, #-260]	; 0x104
     540:	2150600c 	cmpcs	r0, ip
     544:	f8060020 			; <UNDEFINED> instruction: 0xf8060020
     548:	dc000082 	stcle	0, cr0, [r0], {130}	; 0x82
     54c:	0a000006 	beq	56c <_start-0x7a94>
     550:	04000005 	streq	r0, [r0], #-5
     554:	33015101 	movwcc	r5, #4353	; 0x1101
     558:	05500104 	ldrbeq	r0, [r0, #-260]	; 0x104
     55c:	21504c0c 	cmpcs	r0, ip, lsl #24
     560:	04060020 	streq	r0, [r6], #-32
     564:	dc000083 	stcle	0, cr0, [r0], {131}	; 0x83
     568:	26000006 	strcs	r0, [r0], -r6
     56c:	04000005 	streq	r0, [r0], #-5
     570:	30015101 	andcc	r5, r1, r1, lsl #2
     574:	05500104 	ldrbeq	r0, [r0, #-260]	; 0x104
     578:	2150500c 	cmpcs	r0, ip
     57c:	10060020 	andne	r0, r6, r0, lsr #32
     580:	dc000083 	stcle	0, cr0, [r0], {131}	; 0x83
     584:	42000006 	andmi	r0, r0, #6
     588:	04000005 	streq	r0, [r0], #-5
     58c:	30015101 	andcc	r5, r1, r1, lsl #2
     590:	05500104 	ldrbeq	r0, [r0, #-260]	; 0x104
     594:	2150440c 	cmpcs	r0, ip, lsl #8
     598:	1c060020 	stcne	0, cr0, [r6], {32}
     59c:	dc000083 	stcle	0, cr0, [r0], {131}	; 0x83
     5a0:	5f000006 	svcpl	0x00000006
     5a4:	04000005 	streq	r0, [r0], #-5
     5a8:	08025101 	stmdaeq	r2, {r0, r8, ip, lr}
     5ac:	500104c6 	andpl	r0, r1, r6, asr #9
     5b0:	50480c05 	subpl	r0, r8, r5, lsl #24
     5b4:	06002021 	streq	r2, [r0], -r1, lsr #32
     5b8:	00008328 	andeq	r8, r0, r8, lsr #6
     5bc:	000006dc 	ldrdeq	r0, [r0], -ip
     5c0:	0000057d 	andeq	r0, r0, sp, ror r5
     5c4:	03510104 	cmpeq	r1, #4, 2
     5c8:	04010e0a 	streq	r0, [r1], #-3594	; 0xe0a
     5cc:	0c055001 	stceq	0, cr5, [r5], {1}
     5d0:	20215068 	eorcs	r5, r1, r8, rrx
     5d4:	83300600 	teqhi	r0, #0, 12
     5d8:	06c40000 	strbeq	r0, [r4], r0
     5dc:	05940000 	ldreq	r0, [r4]
     5e0:	01040000 	mrseq	r0, (UNDEF: 4)
     5e4:	040c0550 	streq	r0, [ip], #-1360	; 0x550
     5e8:	00202000 	eoreq	r2, r0, r0
     5ec:	00834006 	addeq	r4, r3, r6
     5f0:	0006dc00 	andeq	sp, r6, r0, lsl #24
     5f4:	0005ab00 	andeq	sl, r5, r0, lsl #22
     5f8:	50010400 	andpl	r0, r1, r0, lsl #8
     5fc:	00040c05 	andeq	r0, r4, r5, lsl #24
     600:	06002020 	streq	r2, [r0], -r0, lsr #32
     604:	0000834c 	andeq	r8, r0, ip, asr #6
     608:	000006dc 	ldrdeq	r0, [r0], -ip
     60c:	000005c7 	andeq	r0, r0, r7, asr #11
     610:	01510104 	cmpeq	r1, r4, lsl #2
     614:	50010430 	andpl	r0, r1, r0, lsr r4
     618:	00940c05 	addseq	r0, r4, r5, lsl #24
     61c:	06002020 	streq	r2, [r0], -r0, lsr #32
     620:	0000835c 	andeq	r8, r0, ip, asr r3
     624:	000006f5 	strdeq	r0, [r0], -r5
     628:	000005db 	ldrdeq	r0, [r0], -fp
     62c:	02500104 	subseq	r0, r0, #4, 2
     630:	06007f74 			; <UNDEFINED> instruction: 0x06007f74
     634:	00008370 	andeq	r8, r0, r0, ror r3
     638:	000006dc 	ldrdeq	r0, [r0], -ip
     63c:	000005f9 	strdeq	r0, [r0], -r9
     640:	03510104 	cmpeq	r1, #4, 2
     644:	04c0000a 	strbeq	r0, [r0], #10
     648:	0c055001 	stceq	0, cr5, [r5], {1}
     64c:	20200098 	mlacs	r0, r8, r0, r0
     650:	83800600 	orrhi	r0, r0, #0, 12
     654:	06f50000 	ldrbteq	r0, [r5], r0
     658:	060d0000 	streq	r0, [sp], -r0
     65c:	01040000 	mrseq	r0, (UNDEF: 4)
     660:	7f740250 	svcvc	0x00740250
     664:	83940600 	orrshi	r0, r4, #0, 12
     668:	06dc0000 	ldrbeq	r0, [ip], r0
     66c:	06290000 	strteq	r0, [r9], -r0
     670:	01040000 	mrseq	r0, (UNDEF: 4)
     674:	04300151 	ldrteq	r0, [r0], #-337	; 0x151
     678:	0c055001 	stceq	0, cr5, [r5], {1}
     67c:	20200098 	mlacs	r0, r8, r0, r0
     680:	83a00300 	movhi	r0, #0, 6
     684:	06dc0000 	ldrbeq	r0, [ip], r0
     688:	01040000 	mrseq	r0, (UNDEF: 4)
     68c:	04330151 	ldrteq	r0, [r3], #-337	; 0x151
     690:	0c055001 	stceq	0, cr5, [r5], {1}
     694:	20215060 	eorcs	r5, r1, r0, rrx
     698:	01090000 	mrseq	r0, (UNDEF: 9)
     69c:	00000f33 	andeq	r0, r0, r3, lsr pc
     6a0:	d4018501 	strle	r8, [r1], #-1281	; 0x501
     6a4:	04000083 	streq	r0, [r0], #-131	; 0x83
     6a8:	90000084 	andls	r0, r0, r4, lsl #1
     6ac:	01000002 	tsteq	r0, r2
     6b0:	00000692 	muleq	r0, r2, r6
     6b4:	0083e806 	addeq	lr, r3, r6, lsl #16
     6b8:	0006dc00 	andeq	sp, r6, r0, lsl #24
     6bc:	00067800 	andeq	r7, r6, r0, lsl #16
     6c0:	51010400 	tstpl	r1, r0, lsl #8
     6c4:	40f90804 	rscsmi	r0, r9, r4, lsl #16
     6c8:	50010424 	andpl	r0, r1, r4, lsr #8
     6cc:	00007402 	andeq	r7, r0, r2, lsl #8
     6d0:	0083f403 	addeq	pc, r3, r3, lsl #8
     6d4:	0006dc00 	andeq	sp, r6, r0, lsl #24
     6d8:	51010400 	tstpl	r1, r0, lsl #8
     6dc:	02000c05 	andeq	r0, r0, #1280	; 0x500
     6e0:	010400f9 	strdeq	r0, [r4, -r9]
     6e4:	00740250 	rsbseq	r0, r4, r0, asr r2
     6e8:	01020000 	mrseq	r0, (UNDEF: 2)
     6ec:	00000bba 			; <UNDEFINED> instruction: 0x00000bba
     6f0:	5f018d01 	svcpl	0x00018d01
     6f4:	04000000 	streq	r0, [r0], #-0
     6f8:	1c000084 	stcne	0, cr0, [r0], {132}	; 0x84
     6fc:	b0000084 	andlt	r0, r0, r4, lsl #1
     700:	01000002 	tsteq	r0, r2
     704:	000006c4 	andeq	r0, r0, r4, asr #13
     708:	00841003 	addeq	r1, r4, r3
     70c:	0006c400 	andeq	ip, r6, r0, lsl #8
     710:	50010400 	andpl	r0, r1, r0, lsl #8
     714:	b4200c05 	strtlt	r0, [r0], #-3077	; 0xc05
     718:	00002000 	andeq	r2, r0, r0
     71c:	03640119 	cmneq	r4, #1073741830	; 0x40000006
     720:	08010000 	stmdaeq	r1, {}	; <UNPREDICTABLE>
     724:	00005f01 	andeq	r5, r0, r1, lsl #30
     728:	06dc0100 	ldrbeq	r0, [ip], r0, lsl #2
     72c:	5f1a0000 	svcpl	0x001a0000
     730:	00000000 	andeq	r0, r0, r0
     734:	2319011b 	tstcs	r9, #-1073741818	; 0xc0000006
     738:	05010000 	streq	r0, [r1, #-0]
     73c:	06f50101 	ldrbteq	r0, [r5], r1, lsl #2
     740:	5f1a0000 	svcpl	0x001a0000
     744:	1a000000 	bne	74c <_start-0x78b4>
     748:	0000005f 	andeq	r0, r0, pc, asr r0
     74c:	15011c00 	strne	r1, [r1, #-3072]	; 0xc00
     750:	0100000b 	tsteq	r0, fp
     754:	1a01010a 	bne	40b84 <multiplylookup+0x373d4>
     758:	0000005f 	andeq	r0, r0, pc, asr r0
     75c:	06140000 	ldreq	r0, [r4], -r0
     760:	00020000 	andeq	r0, r2, r0
     764:	000001a0 	andeq	r0, r0, r0, lsr #3
     768:	14010104 	strne	r0, [r1], #-260	; 0x104
     76c:	2c010000 	stccs	0, cr0, [r1], {-0}
     770:	23000024 	movwcs	r0, #36	; 0x24
     774:	60000000 	andvs	r0, r0, r0
	...
     780:	a5000000 	strge	r0, [r0, #-0]
     784:	c8000001 	stmdagt	r0, {r0}
     788:	02000008 	andeq	r0, r0, #8
     78c:	00235001 	eoreq	r5, r3, r1
     790:	01330100 	teqeq	r3, r0, lsl #2
     794:	00000061 	andeq	r0, r0, r1, rrx
     798:	00006101 	andeq	r6, r0, r1, lsl #2
     79c:	24630300 	strbtcs	r0, [r3], #-768	; 0x300
     7a0:	33010000 	movwcc	r0, #4096	; 0x1000
     7a4:	00000061 	andeq	r0, r0, r1, rrx
     7a8:	00244003 	eoreq	r4, r4, r3
     7ac:	61330100 	teqvs	r3, r0, lsl #2
     7b0:	04000000 	streq	r0, [r0], #-0
     7b4:	000024a9 	andeq	r2, r0, r9, lsr #9
     7b8:	00613501 	rsbeq	r3, r1, r1, lsl #10
     7bc:	05000000 	streq	r0, [r0, #-0]
     7c0:	14af0704 	strtne	r0, [pc], #1796	; 7c8 <_start-0x7838>
     7c4:	2d060000 	stccs	0, cr0, [r6, #-0]
     7c8:	1c000000 	stcne	0, cr0, [r0], {-0}
     7cc:	58000084 	stmdapl	r0, {r2, r7}
     7d0:	d0000084 	andle	r0, r0, r4, lsl #1
     7d4:	01000002 	tsteq	r0, r2
     7d8:	000000cd 	andeq	r0, r0, sp, asr #1
     7dc:	00003f07 	andeq	r3, r0, r7, lsl #30
     7e0:	0002f000 	andeq	pc, r2, r0
     7e4:	004a0700 	subeq	r0, sl, r0, lsl #14
     7e8:	030e0000 	movweq	r0, #57344	; 0xe000
     7ec:	55080000 	strpl	r0, [r8, #-0]
     7f0:	80000000 	andhi	r0, r0, r0
     7f4:	092000b8 	stmdbeq	r0!, {r3, r4, r5, r7}
     7f8:	00008430 	andeq	r8, r0, r0, lsr r4
     7fc:	000004f4 	strdeq	r0, [r0], -r4
     800:	000000b0 	strheq	r0, [r0], -r0	; <UNPREDICTABLE>
     804:	0550010a 	ldrbeq	r0, [r0, #-266]	; 0x10a
     808:	00b8980c 	adcseq	r9, r8, ip, lsl #16
     80c:	440b0020 	strmi	r0, [fp], #-32
     810:	0c000084 	stceq	0, cr0, [r0], {132}	; 0x84
     814:	0a000005 	beq	830 <_start-0x77d0>
     818:	75055101 	strvc	r5, [r5, #-257]	; 0x101
     81c:	22007400 	andcs	r7, r0, #0, 8
     820:	0550010a 	ldrbeq	r0, [r0, #-266]	; 0x10a
     824:	00b8a00c 	adcseq	sl, r8, ip
     828:	02000020 	andeq	r0, r0, #32
     82c:	00245701 	eoreq	r5, r4, r1, lsl #14
     830:	01400100 	mrseq	r0, (UNDEF: 80)
     834:	00000061 	andeq	r0, r0, r1, rrx
     838:	00010001 	andeq	r0, r1, r1
     83c:	24400300 	strbcs	r0, [r0], #-768	; 0x300
     840:	40010000 	andmi	r0, r1, r0
     844:	00000061 	andeq	r0, r0, r1, rrx
     848:	0061720c 	rsbeq	r7, r1, ip, lsl #4
     84c:	00614201 	rsbeq	r4, r1, r1, lsl #4
     850:	a9040000 	stmdbge	r4, {}	; <UNPREDICTABLE>
     854:	01000024 	tsteq	r0, r4, lsr #32
     858:	00006143 	andeq	r6, r0, r3, asr #2
     85c:	cd060000 	stcgt	0, cr0, [r6, #-0]
     860:	58000000 	stmdapl	r0, {}	; <UNPREDICTABLE>
     864:	94000084 	strls	r0, [r0], #-132	; 0x84
     868:	2c000084 	stccs	0, cr0, [r0], {132}	; 0x84
     86c:	01000003 	tsteq	r0, r3
     870:	0000015c 	andeq	r0, r0, ip, asr r1
     874:	0000df07 	andeq	sp, r0, r7, lsl #30
     878:	00034c00 	andeq	r4, r3, r0, lsl #24
     87c:	00ea0d00 	rsceq	r0, sl, r0, lsl #26
     880:	036a0000 	cmneq	sl, #0
     884:	f4080000 	vst4.8	{d0-d3}, [r8], r0
     888:	80000000 	andhi	r0, r0, r0
     88c:	092000b8 	stmdbeq	r0!, {r3, r4, r5, r7}
     890:	00008468 	andeq	r8, r0, r8, ror #8
     894:	000004f4 	strdeq	r0, [r0], -r4
     898:	00000148 	andeq	r0, r0, r8, asr #2
     89c:	0550010a 	ldrbeq	r0, [r0, #-266]	; 0x10a
     8a0:	00b8980c 	adcseq	r9, r8, ip, lsl #16
     8a4:	780b0020 	stmdavc	fp, {r5}
     8a8:	f4000084 	vst4.32	{d0-d3}, [r0], r4
     8ac:	0a000004 	beq	8c4 <_start-0x773c>
     8b0:	0c055001 	stceq	0, cr5, [r5], {1}
     8b4:	2000b880 	andcs	fp, r0, r0, lsl #17
     8b8:	010e0000 	mrseq	r0, (UNDEF: 14)
     8bc:	000024a1 	andeq	r2, r0, r1, lsr #9
     8c0:	c3015901 	movwgt	r5, #6401	; 0x1901
     8c4:	94000004 	strls	r0, [r0], #-4
     8c8:	68000084 	stmdavs	r0, {r2, r7}
     8cc:	88000086 	stmdahi	r0, {r1, r2, r7}
     8d0:	01000003 	tsteq	r0, r3
     8d4:	000004c3 	andeq	r0, r0, r3, asr #9
     8d8:	0061720f 	rsbeq	r7, r1, pc, lsl #4
     8dc:	00615b01 	rsbeq	r5, r1, r1, lsl #22
     8e0:	0c000000 	stceq	0, cr0, [r0], {-0}
     8e4:	01006272 	tsteq	r0, r2, ror r2
     8e8:	0000615b 	andeq	r6, r0, fp, asr r1
     8ec:	79720c00 	ldmdbvc	r2!, {sl, fp}^
     8f0:	615c0100 	cmpvs	ip, r0, lsl #2
     8f4:	0c000000 	stceq	0, cr0, [r0], {-0}
     8f8:	01007872 	tsteq	r0, r2, ror r8
     8fc:	0000615c 	andeq	r6, r0, ip, asr r1
     900:	00690c00 	rsbeq	r0, r9, r0, lsl #24
     904:	04c37001 	strbeq	r7, [r3], #1
     908:	97100000 	ldrls	r0, [r0, -r0]
     90c:	01000024 	tsteq	r0, r4, lsr #32
     910:	0004c37e 	andeq	ip, r4, lr, ror r3
     914:	0003b400 	andeq	fp, r3, r0, lsl #8
     918:	23a10400 			; <UNDEFINED> instruction: 0x23a10400
     91c:	7f010000 	svcvc	0x00010000
     920:	000004c3 	andeq	r0, r0, r3, asr #9
     924:	00002d11 	andeq	r2, r0, r1, lsl sp
     928:	00851c00 	addeq	r1, r5, r0, lsl #24
     92c:	00853800 	addeq	r3, r5, r0, lsl #16
     930:	2b6d0100 	blcs	1b40d38 <multiplylookup+0x1b37588>
     934:	12000002 	andne	r0, r0, #2
     938:	0000004a 	andeq	r0, r0, sl, asr #32
     93c:	003f1301 	eorseq	r1, pc, r1, lsl #6
     940:	00000000 	andeq	r0, r0, r0
     944:	1c144004 	ldcne	0, cr4, [r4], {4}
     948:	38000085 	stmdacc	r0, {r0, r2, r7}
     94c:	15000085 	strne	r0, [r0, #-133]	; 0x85
     950:	00000055 	andeq	r0, r0, r5, asr r0
     954:	00852409 	addeq	r2, r5, r9, lsl #8
     958:	0004f400 	andeq	pc, r4, r0, lsl #8
     95c:	00020d00 	andeq	r0, r2, r0, lsl #26
     960:	50010a00 	andpl	r0, r1, r0, lsl #20
     964:	b8980c05 	ldmlt	r8, {r0, r2, sl, fp}
     968:	0b002000 	bleq	8970 <clrScreen+0x30>
     96c:	00008538 	andeq	r8, r0, r8, lsr r5
     970:	0000050c 	andeq	r0, r0, ip, lsl #10
     974:	0551010a 	ldrbeq	r0, [r1, #-266]	; 0x10a
     978:	0400010c 	streq	r0, [r0], #-268	; 0x10c
     97c:	50010a40 	andpl	r0, r1, r0, asr #20
     980:	b8a00c05 	stmialt	r0!, {r0, r2, sl, fp}
     984:	00002000 	andeq	r2, r0, r0
     988:	00cd1100 	sbceq	r1, sp, r0, lsl #2
     98c:	85380000 	ldrhi	r0, [r8, #-0]!
     990:	85640000 	strbhi	r0, [r4, #-0]!
     994:	6e010000 	cdpvs	0, 0, cr0, cr1, cr0, {0}
     998:	00000287 	andeq	r0, r0, r7, lsl #5
     99c:	0000df12 	andeq	sp, r0, r2, lsl pc
     9a0:	38140100 	ldmdacc	r4, {r8}
     9a4:	64000085 	strvs	r0, [r0], #-133	; 0x85
     9a8:	0d000085 	stceq	0, cr0, [r0, #-532]	; 0xfffffdec
     9ac:	000000ea 	andeq	r0, r0, sl, ror #1
     9b0:	000003d2 	ldrdeq	r0, [r0], -r2
     9b4:	0000f415 	andeq	pc, r0, r5, lsl r4	; <UNPREDICTABLE>
     9b8:	85400900 	strbhi	r0, [r0, #-2304]	; 0x900
     9bc:	04f40000 	ldrbteq	r0, [r4], #0
     9c0:	02720000 	rsbseq	r0, r2, #0
     9c4:	010a0000 	mrseq	r0, (UNDEF: 10)
     9c8:	980c0550 	stmdals	ip, {r4, r6, r8, sl}
     9cc:	002000b8 	strheq	r0, [r0], -r8	; <UNPREDICTABLE>
     9d0:	0085500b 	addeq	r5, r5, fp
     9d4:	0004f400 	andeq	pc, r4, r0, lsl #8
     9d8:	50010a00 	andpl	r0, r1, r0, lsl #20
     9dc:	b8800c05 	stmlt	r0, {r0, r2, sl, fp}
     9e0:	00002000 	andeq	r2, r0, r0
     9e4:	84a01600 	strthi	r1, [r0], #1536	; 0x600
     9e8:	05250000 	streq	r0, [r5, #-0]!
     9ec:	a4160000 	ldrge	r0, [r6], #-0
     9f0:	2f000084 	svccs	0x00000084
     9f4:	09000005 	stmdbeq	r0, {r0, r2}
     9f8:	000084b0 			; <UNDEFINED> instruction: 0x000084b0
     9fc:	0000050c 	andeq	r0, r0, ip, lsl #10
     a00:	000002b7 			; <UNDEFINED> instruction: 0x000002b7
     a04:	0351010a 	cmpeq	r1, #-2147483646	; 0x80000002
     a08:	0a02800a 	beq	a0a38 <multiplylookup+0x97288>
     a0c:	0c055001 	stceq	0, cr5, [r5], {1}
     a10:	40040000 	andmi	r0, r4, r0
     a14:	84bc0900 	ldrthi	r0, [ip], #2304	; 0x900
     a18:	050c0000 	streq	r0, [ip, #-0]
     a1c:	02d50000 	sbcseq	r0, r5, #0
     a20:	010a0000 	mrseq	r0, (UNDEF: 10)
     a24:	e00a0351 	and	r0, sl, r1, asr r3
     a28:	50010a01 	andpl	r0, r1, r1, lsl #20
     a2c:	00040c05 	andeq	r0, r4, r5, lsl #24
     a30:	09004004 	stmdbeq	r0, {r2, lr}
     a34:	000084c8 	andeq	r8, r0, r8, asr #9
     a38:	0000050c 	andeq	r0, r0, ip, lsl #10
     a3c:	000002f3 	strdeq	r0, [r0], -r3
     a40:	0351010a 	cmpeq	r1, #-2147483646	; 0x80000002
     a44:	0a02800a 	beq	a0a74 <multiplylookup+0x972c4>
     a48:	0c055001 	stceq	0, cr5, [r5], {1}
     a4c:	40040008 	andmi	r0, r4, r8
     a50:	84d40900 	ldrbhi	r0, [r4], #2304	; 0x900
     a54:	050c0000 	streq	r0, [ip, #-0]
     a58:	03110000 	tsteq	r1, #0
     a5c:	010a0000 	mrseq	r0, (UNDEF: 10)
     a60:	e00a0351 	and	r0, sl, r1, asr r3
     a64:	50010a01 	andpl	r0, r1, r1, lsl #20
     a68:	000c0c05 	andeq	r0, ip, r5, lsl #24
     a6c:	09004004 	stmdbeq	r0, {r2, lr}
     a70:	000084e0 	andeq	r8, r0, r0, ror #9
     a74:	0000050c 	andeq	r0, r0, ip, lsl #10
     a78:	0000032d 	andeq	r0, r0, sp, lsr #6
     a7c:	0151010a 	cmpeq	r1, sl, lsl #2
     a80:	50010a30 	andpl	r0, r1, r0, lsr sl
     a84:	00100c05 	andseq	r0, r0, r5, lsl #24
     a88:	09004004 	stmdbeq	r0, {r2, lr}
     a8c:	000084ec 	andeq	r8, r0, ip, ror #9
     a90:	0000050c 	andeq	r0, r0, ip, lsl #10
     a94:	00000349 	andeq	r0, r0, r9, asr #6
     a98:	0151010a 	cmpeq	r1, sl, lsl #2
     a9c:	50010a40 	andpl	r0, r1, r0, asr #20
     aa0:	00140c05 	andseq	r0, r4, r5, lsl #24
     aa4:	09004004 	stmdbeq	r0, {r2, lr}
     aa8:	000084f8 	strdeq	r8, [r0], -r8	; <UNPREDICTABLE>
     aac:	0000050c 	andeq	r0, r0, ip, lsl #10
     ab0:	00000365 	andeq	r0, r0, r5, ror #6
     ab4:	0151010a 	cmpeq	r1, sl, lsl #2
     ab8:	50010a30 	andpl	r0, r1, r0, lsr sl
     abc:	00180c05 	andseq	r0, r8, r5, lsl #24
     ac0:	09004004 	stmdbeq	r0, {r2, lr}
     ac4:	00008504 	andeq	r8, r0, r4, lsl #10
     ac8:	0000050c 	andeq	r0, r0, ip, lsl #10
     acc:	00000381 	andeq	r0, r0, r1, lsl #7
     ad0:	0151010a 	cmpeq	r1, sl, lsl #2
     ad4:	50010a30 	andpl	r0, r1, r0, lsr sl
     ad8:	001c0c05 	andseq	r0, ip, r5, lsl #24
     adc:	09004004 	stmdbeq	r0, {r2, lr}
     ae0:	00008510 	andeq	r8, r0, r0, lsl r5
     ae4:	0000050c 	andeq	r0, r0, ip, lsl #10
     ae8:	0000039d 	muleq	r0, sp, r3
     aec:	0151010a 	cmpeq	r1, sl, lsl #2
     af0:	50010a30 	andpl	r0, r1, r0, lsr sl
     af4:	00200c05 	eoreq	r0, r0, r5, lsl #24
     af8:	09004004 	stmdbeq	r0, {r2, lr}
     afc:	0000851c 	andeq	r8, r0, ip, lsl r5
     b00:	0000050c 	andeq	r0, r0, ip, lsl #10
     b04:	000003b9 			; <UNDEFINED> instruction: 0x000003b9
     b08:	0151010a 	cmpeq	r1, sl, lsl #2
     b0c:	50010a30 	andpl	r0, r1, r0, lsr sl
     b10:	00240c05 	eoreq	r0, r4, r5, lsl #24
     b14:	09004004 	stmdbeq	r0, {r2, lr}
     b18:	0000857c 	andeq	r8, r0, ip, ror r5
     b1c:	000004f4 	strdeq	r0, [r0], -r4
     b20:	000003d0 	ldrdeq	r0, [r0], -r0	; <UNPREDICTABLE>
     b24:	0550010a 	ldrbeq	r0, [r0, #-266]	; 0x10a
     b28:	0400200c 	streq	r2, [r0], #-12
     b2c:	98090040 	stmdals	r9, {r6}
     b30:	39000085 	stmdbcc	r0, {r0, r2, r7}
     b34:	00000005 	andeq	r0, r0, r5
     b38:	0a000004 	beq	b50 <_start-0x74b0>
     b3c:	0a035301 	beq	d5748 <multiplylookup+0xcbf98>
     b40:	010a0143 	tsteq	sl, r3, asr #2
     b44:	68080252 	stmdavs	r8, {r1, r4, r6, r9}
     b48:	0251010a 	subseq	r0, r1, #-2147483646	; 0x80000002
     b4c:	010a2308 	tsteq	sl, r8, lsl #6
     b50:	1c0a0350 	stcne	3, cr0, [sl], {80}	; 0x50
     b54:	7d020a02 	vstrvc	s0, [r2, #-8]
     b58:	000a0300 	andeq	r0, sl, r0, lsl #6
     b5c:	a00900f8 	strdge	r0, [r9], -r8
     b60:	61000085 	smlabbvs	r0, r5, r0, r0
     b64:	13000005 	movwne	r0, #5
     b68:	0a000004 	beq	b80 <_start-0x7480>
     b6c:	30015001 	andcc	r5, r1, r1
     b70:	85a80900 	strhi	r0, [r8, #2304]!	; 0x900
     b74:	05750000 	ldrbeq	r0, [r5, #-0]!
     b78:	042a0000 	strteq	r0, [sl], #-0
     b7c:	010a0000 	mrseq	r0, (UNDEF: 10)
     b80:	74030550 	strvc	r0, [r3], #-1360	; 0x550
     b84:	0000008f 	andeq	r0, r0, pc, lsl #1
     b88:	0085b009 	addeq	fp, r5, r9
     b8c:	00059600 	andeq	r9, r5, r0, lsl #12
     b90:	00044100 	andeq	r4, r4, r0, lsl #2
     b94:	50010a00 	andpl	r0, r1, r0, lsl #20
     b98:	881c0c05 	ldmdahi	ip, {r0, r2, sl, fp}
     b9c:	16000003 	strne	r0, [r0], -r3
     ba0:	000085b4 			; <UNDEFINED> instruction: 0x000085b4
     ba4:	000005ae 	andeq	r0, r0, lr, lsr #11
     ba8:	0085e409 	addeq	lr, r5, r9, lsl #8
     bac:	0005c100 	andeq	ip, r5, r0, lsl #2
     bb0:	00048800 	andeq	r8, r4, r0, lsl #16
     bb4:	53010a00 	movwpl	r0, #6656	; 0x1a00
     bb8:	01df0a03 	bicseq	r0, pc, r3, lsl #20
     bbc:	0152010a 	cmpeq	r2, sl, lsl #2
     bc0:	51010a30 	tstpl	r1, r0, lsr sl
     bc4:	010a3001 	tsteq	sl, r1
     bc8:	2c0a0350 	stccs	3, cr0, [sl], {80}	; 0x50
     bcc:	7d020a01 	vstrvc	s0, [r2, #-4]
     bd0:	000a0308 	andeq	r0, sl, r8, lsl #6
     bd4:	7d020af0 	vstrvc	s0, [r2, #-960]	; 0xfffffc40
     bd8:	df0a0304 	svcle	0x000a0304
     bdc:	7d020a01 	vstrvc	s0, [r2, #-4]
     be0:	7f0a0300 	svcvc	0x000a0300
     be4:	e8160002 	ldmda	r6, {r1}
     be8:	ae000085 	cdpge	0, 0, cr0, cr0, cr5, {4}
     bec:	16000005 	strne	r0, [r0], -r5
     bf0:	000085f0 	strdeq	r8, [r0], -r0
     bf4:	000005f3 	strdeq	r0, [r0], -r3
     bf8:	0085f809 	addeq	pc, r5, r9, lsl #16
     bfc:	00057500 	andeq	r7, r5, r0, lsl #10
     c00:	0004b100 	andeq	fp, r4, r0, lsl #2
     c04:	50010a00 	andpl	r0, r1, r0, lsl #20
     c08:	8f800305 	svchi	0x00800305
     c0c:	0b000000 	bleq	c14 <_start-0x73ec>
     c10:	00008600 	andeq	r8, r0, r0, lsl #12
     c14:	00000607 	andeq	r0, r0, r7, lsl #12
     c18:	0350010a 	cmpeq	r0, #-2147483646	; 0x80000002
     c1c:	0013880a 	andseq	r8, r3, sl, lsl #16
     c20:	05041700 	streq	r1, [r4, #-1792]	; 0x700
     c24:	00746e69 	rsbseq	r6, r4, r9, ror #28
     c28:	0004c318 	andeq	ip, r4, r8, lsl r3
     c2c:	0004db00 	andeq	sp, r4, r0, lsl #22
     c30:	04db1900 	ldrbeq	r1, [fp], #2304	; 0x900
     c34:	027f0000 	rsbseq	r0, pc, #0
     c38:	07040500 	streq	r0, [r4, -r0, lsl #10]
     c3c:	00002487 	andeq	r2, r0, r7, lsl #9
     c40:	0024481a 	eoreq	r4, r4, sl, lsl r8
     c44:	ca220100 	bgt	88104c <multiplylookup+0x87789c>
     c48:	01000004 	tsteq	r0, r4
     c4c:	97b00305 	ldrls	r0, [r0, r5, lsl #6]!
     c50:	011b0000 	tsteq	fp, r0
     c54:	00000364 	andeq	r0, r0, r4, ror #6
     c58:	61010402 	tstvs	r1, r2, lsl #8
     c5c:	01000000 	mrseq	r0, (UNDEF: 0)
     c60:	0000050c 	andeq	r0, r0, ip, lsl #10
     c64:	0000611c 	andeq	r6, r0, ip, lsl r1
     c68:	011d0000 	tsteq	sp, r0
     c6c:	00002319 	andeq	r2, r0, r9, lsl r3
     c70:	01010102 	tsteq	r1, r2, lsl #2
     c74:	00000525 	andeq	r0, r0, r5, lsr #10
     c78:	0000611c 	andeq	r6, r0, ip, lsl r1
     c7c:	00611c00 	rsbeq	r1, r1, r0, lsl #24
     c80:	1e000000 	cdpne	0, 0, cr0, cr0, cr0, {0}
     c84:	0002fd01 	andeq	pc, r2, r1, lsl #26
     c88:	01200300 	teqeq	r0, r0, lsl #6
     c8c:	33011e01 	movwcc	r1, #7681	; 0x1e01
     c90:	0300000f 	movweq	r0, #15
     c94:	1d010121 	stfnes	f0, [r1, #-132]	; 0xffffff7c
     c98:	0023de01 	eoreq	sp, r3, r1, lsl #28
     c9c:	01040400 	tsteq	r4, r0, lsl #8
     ca0:	00056101 	andeq	r6, r5, r1, lsl #2
     ca4:	04c31c00 	strbeq	r1, [r3], #3072	; 0xc00
     ca8:	c31c0000 	tstgt	ip, #0
     cac:	1c000004 	stcne	0, cr0, [r0], {4}
     cb0:	000004c3 	andeq	r0, r0, r3, asr #9
     cb4:	0004c31c 	andeq	ip, r4, ip, lsl r3
     cb8:	00611c00 	rsbeq	r1, r1, r0, lsl #24
     cbc:	1d000000 	stcne	0, cr0, [r0, #-0]
     cc0:	00243601 	eoreq	r3, r4, r1, lsl #12
     cc4:	01020400 	tsteq	r2, r0, lsl #8
     cc8:	00057501 	andeq	r7, r5, r1, lsl #10
     ccc:	04c31c00 	strbeq	r1, [r3], #3072	; 0xc00
     cd0:	1d000000 	stcne	0, cr0, [r0, #-0]
     cd4:	00113c01 	andseq	r3, r1, r1, lsl #24
     cd8:	011b0300 	tsteq	fp, r0, lsl #6
     cdc:	00058901 	andeq	r8, r5, r1, lsl #18
     ce0:	05891c00 	streq	r1, [r9, #3072]	; 0xc00
     ce4:	1f000000 	svcne	0x00000000
     ce8:	00058f04 	andeq	r8, r5, r4, lsl #30
     cec:	08010500 	stmdaeq	r1, {r8, sl}
     cf0:	000007cf 	andeq	r0, r0, pc, asr #15
     cf4:	2490011b 	ldrcs	r0, [r0], #283	; 0x11b
     cf8:	03050000 	movweq	r0, #20480	; 0x5000
     cfc:	0004c301 	andeq	ip, r4, r1, lsl #6
     d00:	05ae0100 	streq	r0, [lr, #256]!	; 0x100
     d04:	c31c0000 	tstgt	ip, #0
     d08:	00000004 	andeq	r0, r0, r4
     d0c:	23430120 	movtcs	r0, #12576	; 0x3120
     d10:	02060000 	andeq	r0, r6, #0
     d14:	00000061 	andeq	r0, r0, r1, rrx
     d18:	0005c101 	andeq	ip, r5, r1, lsl #2
     d1c:	1d002100 	stfnes	f2, [r0, #-0]
     d20:	0024b101 	eoreq	fp, r4, r1, lsl #2
     d24:	01080400 	tsteq	r8, r0, lsl #8
     d28:	0005f301 	andeq	pc, r5, r1, lsl #6
     d2c:	04c31c00 	strbeq	r1, [r3], #3072	; 0xc00
     d30:	c31c0000 	tstgt	ip, #0
     d34:	1c000004 	stcne	0, cr0, [r0], {4}
     d38:	000004c3 	andeq	r0, r0, r3, asr #9
     d3c:	0004c31c 	andeq	ip, r4, ip, lsl r3
     d40:	04c31c00 	strbeq	r1, [r3], #3072	; 0xc00
     d44:	c31c0000 	tstgt	ip, #0
     d48:	1c000004 	stcne	0, cr0, [r0], {4}
     d4c:	000004c3 	andeq	r0, r0, r3, asr #9
     d50:	46011d00 	strmi	r1, [r1], -r0, lsl #26
     d54:	03000016 	movweq	r0, #22
     d58:	0701011f 	smladeq	r1, pc, r1, r0	; <UNPREDICTABLE>
     d5c:	1c000006 	stcne	0, cr0, [r0], {6}
     d60:	00000061 	andeq	r0, r0, r1, rrx
     d64:	72012200 	andvc	r2, r1, #0, 4
     d68:	06000023 	streq	r0, [r0], -r3, lsr #32
     d6c:	1c010103 	stfnes	f0, [r1], {3}
     d70:	00000061 	andeq	r0, r0, r1, rrx
     d74:	00560000 	subseq	r0, r6, r0
     d78:	00020000 	andeq	r0, r2, r0
     d7c:	00000369 	andeq	r0, r0, r9, ror #6
     d80:	02860104 	addeq	r0, r6, #4, 2
     d84:	86680000 	strbthi	r0, [r8], -r0
     d88:	87700000 	ldrbhi	r0, [r0, -r0]!
     d8c:	75660000 	strbvc	r0, [r6, #-0]!
     d90:	6974636e 	ldmdbvs	r4!, {r1, r2, r3, r5, r6, r8, r9, sp, lr}^
     d94:	2e736e6f 	cdpcs	14, 7, cr6, cr3, cr15, {3}
     d98:	552f0073 	strpl	r0, [pc, #-115]!	; d2d <_start-0x72d3>
     d9c:	73726573 	cmnvc	r2, #482344960	; 0x1cc00000
     da0:	6f6e6d2f 	svcvs	0x006e6d2f
     da4:	2f6e616c 	svccs	0x006e616c
     da8:	2f746967 	svccs	0x00746967
     dac:	70736172 	rsbsvc	r6, r3, r2, ror r1
     db0:	72726562 	rsbsvc	r6, r2, #411041792	; 0x18800000
     db4:	2f697079 	svccs	0x00697079
     db8:	65646976 	strbvs	r6, [r4, #-2422]!	; 0x976
     dbc:	0031306f 	eorseq	r3, r1, pc, rrx
     dc0:	20554e47 	subscs	r4, r5, r7, asr #28
     dc4:	32205341 	eorcc	r5, r0, #67108865	; 0x4000001
     dc8:	2e33322e 	cdpcs	2, 3, cr3, cr3, cr14, {1}
     dcc:	80010031 	andhi	r0, r1, r1, lsr r0
     dd0:	00000052 	andeq	r0, r0, r2, asr r0
     dd4:	037d0002 	cmneq	sp, #2
     dd8:	01040000 	mrseq	r0, (UNDEF: 4)
     ddc:	0000030b 	andeq	r0, r0, fp, lsl #6
     de0:	00008770 	andeq	r8, r0, r0, ror r7
     de4:	000087b0 			; <UNDEFINED> instruction: 0x000087b0
     de8:	656d6974 	strbvs	r6, [sp, #-2420]!	; 0x974
     dec:	00732e72 	rsbseq	r2, r3, r2, ror lr
     df0:	6573552f 	ldrbvs	r5, [r3, #-1327]!	; 0x52f
     df4:	6d2f7372 	stcvs	3, cr7, [pc, #-456]!	; c34 <_start-0x73cc>
     df8:	616c6f6e 	cmnvs	ip, lr, ror #30
     dfc:	69672f6e 	stmdbvs	r7!, {r1, r2, r3, r5, r6, r8, r9, sl, fp, sp}^
     e00:	61722f74 	cmnvs	r2, r4, ror pc
     e04:	65627073 	strbvs	r7, [r2, #-115]!	; 0x73
     e08:	70797272 	rsbsvc	r7, r9, r2, ror r2
     e0c:	69762f69 	ldmdbvs	r6!, {r0, r3, r5, r6, r8, r9, sl, fp, sp}^
     e10:	306f6564 	rsbcc	r6, pc, r4, ror #10
     e14:	4e470031 	mcrmi	0, 2, r0, cr7, cr1, {1}
     e18:	53412055 	movtpl	r2, #4181	; 0x1055
     e1c:	322e3220 	eorcc	r3, lr, #32, 4
     e20:	00312e33 	eorseq	r2, r1, r3, lsr lr
     e24:	02778001 	rsbseq	r8, r7, #1
     e28:	00020000 	andeq	r0, r2, r0
     e2c:	00000391 	muleq	r0, r1, r3
     e30:	14010104 	strne	r0, [r1], #-260	; 0x104
     e34:	d0010000 	andle	r0, r1, r0
     e38:	23000024 	movwcs	r0, #36	; 0x24
     e3c:	80000000 	andhi	r0, r0, r0
	...
     e48:	51000000 	mrspl	r0, (UNDEF: 0)
     e4c:	20000003 	andcs	r0, r0, r3
     e50:	02000009 	andeq	r0, r0, #9
     e54:	0024be01 	eoreq	fp, r4, r1, lsl #28
     e58:	01040100 	mrseq	r0, (UNDEF: 20)
     e5c:	00000068 	andeq	r0, r0, r8, rrx
     e60:	00006801 	andeq	r6, r0, r1, lsl #16
     e64:	73630300 	cmnvc	r3, #0, 6
     e68:	6f040100 	svcvs	0x00040100
     e6c:	03000000 	movweq	r0, #0
     e70:	01007463 	tsteq	r0, r3, ror #8
     e74:	00006f04 	andeq	r6, r0, r4, lsl #30
     e78:	31630400 	cmncc	r3, r0, lsl #8
     e7c:	81060100 	mrshi	r0, (UNDEF: 22)
     e80:	04000000 	streq	r0, [r0], #-0
     e84:	01003263 	tsteq	r0, r3, ror #4
     e88:	00008106 	andeq	r8, r0, r6, lsl #2
     e8c:	04050000 	streq	r0, [r5], #-0
     e90:	746e6905 	strbtvc	r6, [lr], #-2309	; 0x905
     e94:	75040600 	strvc	r0, [r4, #-1536]	; 0x600
     e98:	07000000 	streq	r0, [r0, -r0]
     e9c:	0000007a 	andeq	r0, r0, sl, ror r0
     ea0:	cf080108 	svcgt	0x00080108
     ea4:	08000007 	stmdaeq	r0, {r0, r1, r2}
     ea8:	06600801 	strbteq	r0, [r0], -r1, lsl #16
     eac:	2d090000 	stccs	0, cr0, [r9, #-0]
     eb0:	b0000000 	andlt	r0, r0, r0
     eb4:	e0000087 	and	r0, r0, r7, lsl #1
     eb8:	02000087 	andeq	r0, r0, #135	; 0x87
     ebc:	c201007d 	andgt	r0, r1, #125	; 0x7d
     ec0:	0a000000 	beq	ec8 <_start-0x7138>
     ec4:	0000003f 	andeq	r0, r0, pc, lsr r0
     ec8:	000003f0 	strdeq	r0, [r0], -r0	; <UNPREDICTABLE>
     ecc:	0000490a 	andeq	r4, r0, sl, lsl #18
     ed0:	00044700 	andeq	r4, r4, r0, lsl #14
     ed4:	00530b00 	subseq	r0, r3, r0, lsl #22
     ed8:	f3030000 	vhadd.u8	d0, d3, d0
     edc:	5d0b5001 	stcpl	0, cr5, [fp, #-4]
     ee0:	03000000 	movweq	r0, #0
     ee4:	005101f3 	ldrsheq	r0, [r1], #-19	; 0xffffffed
     ee8:	24e2010c 	strbtcs	r0, [r2], #268	; 0x10c
     eec:	12010000 	andne	r0, r1, #0
     ef0:	00006801 	andeq	r6, r0, r1, lsl #16
     ef4:	0087e000 	addeq	lr, r7, r0
     ef8:	00893400 	addeq	r3, r9, r0, lsl #8
     efc:	00047300 	andeq	r7, r4, r0, lsl #6
     f00:	02140100 	andseq	r0, r4, #0, 2
     f04:	db0d0000 	blle	340f0c <multiplylookup+0x33775c>
     f08:	01000024 	tsteq	r0, r4, lsr #32
     f0c:	00021412 	andeq	r1, r2, r2, lsl r4
     f10:	0004a000 	andeq	sl, r4, r0
     f14:	00780e00 	rsbseq	r0, r8, r0, lsl #28
     f18:	00681201 	rsbeq	r1, r8, r1, lsl #4
     f1c:	04d40000 	ldrbeq	r0, [r4], #0
     f20:	790e0000 	stmdbvc	lr, {}	; <UNPREDICTABLE>
     f24:	68120100 	ldmdavs	r2, {r8}
     f28:	13000000 	movwne	r0, #0
     f2c:	0f000005 	svceq	0x00000005
     f30:	00646d63 	rsbeq	r6, r4, r3, ror #26
     f34:	021a1301 	andseq	r1, sl, #67108864	; 0x4000000
     f38:	91030000 	mrsls	r0, (UNDEF: 3)
     f3c:	610f7e98 			; <UNDEFINED> instruction: 0x610f7e98
     f40:	01006772 	tsteq	r0, r2, ror r7
     f44:	00021a14 	andeq	r1, r2, r4, lsl sl
     f48:	fc910300 	ldc2	3, cr0, [r1], {0}
     f4c:	0069107e 	rsbeq	r1, r9, lr, ror r0
     f50:	00681501 	rsbeq	r1, r8, r1, lsl #10
     f54:	05520000 	ldrbeq	r0, [r2, #-0]
     f58:	69100000 	ldmdbvs	r0, {}	; <UNPREDICTABLE>
     f5c:	1e010030 	mcrne	0, 0, r0, cr1, cr0, {1}
     f60:	00000068 	andeq	r0, r0, r8, rrx
     f64:	000005c7 	andeq	r0, r0, r7, asr #11
     f68:	00002d11 	andeq	r2, r0, r1, lsl sp
     f6c:	00889c00 	addeq	r9, r8, r0, lsl #24
     f70:	0088b400 	addeq	fp, r8, r0, lsl #8
     f74:	80270100 	eorhi	r0, r7, r0, lsl #2
     f78:	0a000001 	beq	f84 <_start-0x707c>
     f7c:	00000049 	andeq	r0, r0, r9, asr #32
     f80:	000005e5 	andeq	r0, r0, r5, ror #11
     f84:	00003f0a 	andeq	r3, r0, sl, lsl #30
     f88:	0005fd00 	andeq	pc, r5, r0, lsl #26
     f8c:	889c1200 	ldmhi	ip, {r9, ip}
     f90:	88b40000 	ldmhi	r4!, {}	; <UNPREDICTABLE>
     f94:	53130000 	tstpl	r3, #0
     f98:	10000000 	andne	r0, r0, r0
     f9c:	14000006 	strne	r0, [r0], #-6
     fa0:	0000005d 	andeq	r0, r0, sp, asr r0
     fa4:	38150000 	ldmdacc	r5, {}	; <UNPREDICTABLE>
     fa8:	31000088 	smlabbcc	r0, r8, r0, r0
     fac:	94000002 	strls	r0, [r0], #-2
     fb0:	16000001 	strne	r0, [r0], -r1
     fb4:	74025001 	strvc	r5, [r2], #-1
     fb8:	8415007f 	ldrhi	r0, [r5], #-127	; 0x7f
     fbc:	4c000088 	stcmi	0, cr0, [r0], {136}	; 0x88
     fc0:	a8000002 	stmdage	r0, {r1}
     fc4:	16000001 	strne	r0, [r0], -r1
     fc8:	77025001 	strvc	r5, [r2, -r1]
     fcc:	8c150000 	ldchi	0, cr0, [r5], {-0}
     fd0:	4c000088 	stcmi	0, cr0, [r0], {136}	; 0x88
     fd4:	bf000002 	svclt	0x00000002
     fd8:	16000001 	strne	r0, [r0], -r1
     fdc:	03055001 	movweq	r5, #20481	; 0x5001
     fe0:	00008f80 	andeq	r8, r0, r0, lsl #31
     fe4:	88941500 	ldmhi	r4, {r8, sl, ip}
     fe8:	024c0000 	subeq	r0, ip, #0
     fec:	01d30000 	bicseq	r0, r3, r0
     ff0:	01160000 	tsteq	r6, r0
     ff4:	007a0250 	rsbseq	r0, sl, r0, asr r2
     ff8:	88cc1500 	stmiahi	ip, {r8, sl, ip}^
     ffc:	024c0000 	subeq	r0, ip, #0
    1000:	01ea0000 	mvneq	r0, r0
    1004:	01160000 	tsteq	r6, r0
    1008:	8c030550 	cfstr32hi	mvfx0, [r3], {80}	; 0x50
    100c:	0000008f 	andeq	r0, r0, pc, lsl #1
    1010:	0088dc15 	addeq	sp, r8, r5, lsl ip
    1014:	00026000 	andeq	r6, r2, r0
    1018:	00020a00 	andeq	r0, r2, r0, lsl #20
    101c:	52011600 	andpl	r1, r1, #0, 12
    1020:	16007502 	strne	r7, [r0], -r2, lsl #10
    1024:	76025101 	strvc	r5, [r2], -r1, lsl #2
    1028:	50011600 	andpl	r1, r1, r0, lsl #12
    102c:	00007a02 	andeq	r7, r0, r2, lsl #20
    1030:	0088f017 	addeq	pc, r8, r7, lsl r0	; <UNPREDICTABLE>
    1034:	00023100 	andeq	r3, r2, r0, lsl #2
    1038:	04060000 	streq	r0, [r6], #-0
    103c:	0000007a 	andeq	r0, r0, sl, ror r0
    1040:	00007a18 	andeq	r7, r0, r8, lsl sl
    1044:	00022a00 	andeq	r2, r2, r0, lsl #20
    1048:	022a1900 	eoreq	r1, sl, #0, 18
    104c:	00630000 	rsbeq	r0, r3, r0
    1050:	87070408 	strhi	r0, [r7, -r8, lsl #8]
    1054:	1a000024 	bne	10ec <_start-0x6f14>
    1058:	00164601 	andseq	r4, r6, r1, lsl #12
    105c:	011f0200 	tsteq	pc, r0, lsl #4
    1060:	00024501 	andeq	r4, r2, r1, lsl #10
    1064:	02451b00 	subeq	r1, r5, #0, 22
    1068:	08000000 	stmdaeq	r0, {}	; <UNPREDICTABLE>
    106c:	14af0704 	strtne	r0, [pc], #1796	; 1074 <_start-0x6f8c>
    1070:	011a0000 	tsteq	sl, r0
    1074:	0000113c 	andeq	r1, r0, ip, lsr r1
    1078:	01011b02 	tsteq	r1, r2, lsl #22
    107c:	00000260 	andeq	r0, r0, r0, ror #4
    1080:	0002141b 	andeq	r1, r2, fp, lsl r4
    1084:	011c0000 	tsteq	ip, r0
    1088:	000024c5 	andeq	r2, r0, r5, asr #9
    108c:	01010503 	tsteq	r1, r3, lsl #10
    1090:	0002141b 	andeq	r1, r2, fp, lsl r4
    1094:	00681b00 	rsbeq	r1, r8, r0, lsl #22
    1098:	681b0000 	ldmdavs	fp, {}	; <UNPREDICTABLE>
    109c:	00000000 	andeq	r0, r0, r0
    10a0:	000a4500 	andeq	r4, sl, r0, lsl #10
    10a4:	06000200 	streq	r0, [r0], -r0, lsl #4
    10a8:	04000005 	streq	r0, [r0], #-5
    10ac:	00140101 	andseq	r0, r4, r1, lsl #2
    10b0:	24f60100 	ldrbtcs	r0, [r6], #256	; 0x100
    10b4:	00230000 	eoreq	r0, r3, r0
    10b8:	02480000 	subeq	r0, r8, #0
	...
    10c4:	03fb0000 	mvnseq	r0, #0
    10c8:	093e0000 	ldmdbeq	lr!, {}	; <UNPREDICTABLE>
    10cc:	01020000 	mrseq	r0, (UNDEF: 2)
    10d0:	00002522 	andeq	r2, r0, r2, lsr #10
    10d4:	01012101 	tsteq	r1, r1, lsl #2
    10d8:	00000066 	andeq	r0, r0, r6, rrx
    10dc:	01007803 	tsteq	r0, r3, lsl #16
    10e0:	00006621 	andeq	r6, r0, r1, lsr #12
    10e4:	00790300 	rsbseq	r0, r9, r0, lsl #6
    10e8:	00662101 	rsbeq	r2, r6, r1, lsl #2
    10ec:	a1040000 	mrsge	r0, (UNDEF: 4)
    10f0:	01000023 	tsteq	r0, r3, lsr #32
    10f4:	00006621 	andeq	r6, r0, r1, lsr #12
    10f8:	00060500 	andeq	r0, r6, r0, lsl #10
    10fc:	01000025 	tsteq	r0, r5, lsr #32
    1100:	00006623 	andeq	r6, r0, r3, lsr #12
    1104:	07000000 	streq	r0, [r0, -r0]
    1108:	6e690504 	cdpvs	5, 6, cr0, cr9, cr4, {0}
    110c:	01080074 	tsteq	r8, r4, ror r0
    1110:	00736261 	rsbseq	r6, r3, r1, ror #4
    1114:	66010401 	strvs	r0, [r1], -r1, lsl #8
    1118:	01000000 	mrseq	r0, (UNDEF: 0)
    111c:	00000089 	andeq	r0, r0, r9, lsl #1
    1120:	01006103 	tsteq	r0, r3, lsl #2
    1124:	00006604 	andeq	r6, r0, r4, lsl #12
    1128:	6d090000 	stcvs	0, cr0, [r9, #-0]
    112c:	01006e69 	tsteq	r0, r9, ror #28
    1130:	00bf0108 	adcseq	r0, pc, r8, lsl #2
    1134:	bf030000 	svclt	0x00030000
    1138:	03000000 	movweq	r0, #0
    113c:	08010061 	stmdaeq	r1, {r0, r5, r6}
    1140:	000000bf 	strheq	r0, [r0], -pc	; <UNPREDICTABLE>
    1144:	01006203 	tsteq	r0, r3, lsl #4
    1148:	0000bf08 	andeq	fp, r0, r8, lsl #30
    114c:	00630300 	rsbeq	r0, r3, r0, lsl #6
    1150:	00bf0801 	adcseq	r0, pc, r1, lsl #16
    1154:	6d0a0000 	stcvs	0, cr0, [sl, #-0]
    1158:	bf0a0100 	svclt	0x000a0100
    115c:	00000000 	andeq	r0, r0, r0
    1160:	af07040b 	svcge	0x0007040b
    1164:	09000014 	stmdbeq	r0, {r2, r4}
    1168:	0078616d 	rsbseq	r6, r8, sp, ror #2
    116c:	bf010f01 	svclt	0x00010f01
    1170:	03000000 	movweq	r0, #0
    1174:	000000fc 	strdeq	r0, [r0], -ip
    1178:	01006103 	tsteq	r0, r3, lsl #2
    117c:	0000bf0f 	andeq	fp, r0, pc, lsl #30
    1180:	00620300 	rsbeq	r0, r2, r0, lsl #6
    1184:	00bf0f01 	adcseq	r0, pc, r1, lsl #30
    1188:	63030000 	movwvs	r0, #12288	; 0x3000
    118c:	bf0f0100 	svclt	0x000f0100
    1190:	0a000000 	beq	1198 <_start-0x6e68>
    1194:	1101006d 	tstne	r1, sp, rrx
    1198:	000000bf 	strheq	r0, [r0], -pc	; <UNPREDICTABLE>
    119c:	006d0c00 	rsbeq	r0, sp, r0, lsl #24
    11a0:	89340000 	ldmdbhi	r4!, {}	; <UNPREDICTABLE>
    11a4:	89400000 	stmdbhi	r0, {}^	; <UNPREDICTABLE>
    11a8:	7d020000 	stcvc	0, cr0, [r2, #-0]
    11ac:	011b0100 	tsteq	fp, r0, lsl #2
    11b0:	7f0d0000 	svcvc	0x000d0000
    11b4:	30000000 	andcc	r0, r0, r0
    11b8:	00000006 	andeq	r0, r0, r6
    11bc:	2436010e 	ldrtcs	r0, [r6], #-270	; 0x10e
    11c0:	17010000 	strne	r0, [r1, -r0]
    11c4:	00894001 	addeq	r4, r9, r1
    11c8:	00898c00 	addeq	r8, r9, r0, lsl #24
    11cc:	00065100 	andeq	r5, r6, r0, lsl #2
    11d0:	019b0100 	orrseq	r0, fp, r0, lsl #2
    11d4:	a10f0000 	mrsge	r0, CPSR
    11d8:	01000023 	tsteq	r0, r3, lsr #32
    11dc:	00006617 	andeq	r6, r0, r7, lsl r6
    11e0:	00067100 	andeq	r7, r6, r0, lsl #2
    11e4:	00691000 	rsbeq	r1, r9, r0
    11e8:	00661801 	rsbeq	r1, r6, r1, lsl #16
    11ec:	068f0000 	streq	r0, [pc], r0
    11f0:	6a100000 	bvs	4011f8 <multiplylookup+0x3f7a48>
    11f4:	66180100 	ldrvs	r0, [r8], -r0, lsl #2
    11f8:	a3000000 	movwge	r0, #0
    11fc:	11000006 	tstne	r0, r6
    1200:	0000251a 	andeq	r2, r0, sl, lsl r5
    1204:	00661801 	rsbeq	r1, r6, r1, lsl #16
    1208:	06b70000 	ldrteq	r0, [r7], r0
    120c:	50120000 	andspl	r0, r2, r0
    1210:	fd000089 	stc2	0, cr0, [r0, #-548]	; 0xfffffddc
    1214:	84000009 	strhi	r0, [r0], #-9
    1218:	13000001 	movwne	r0, #1
    121c:	0c055001 	stceq	0, cr5, [r5], {1}
    1220:	40040020 	andmi	r0, r4, r0, lsr #32
    1224:	896c1400 	stmdbhi	ip!, {sl, ip}^
    1228:	0a150000 	beq	541230 <multiplylookup+0x537a80>
    122c:	01130000 	tsteq	r3, r0
    1230:	00760251 	rsbseq	r0, r6, r1, asr r2
    1234:	02500113 	subseq	r0, r0, #-1073741820	; 0xc0000004
    1238:	00007e74 	andeq	r7, r0, r4, ror lr
    123c:	00002d15 	andeq	r2, r0, r5, lsl sp
    1240:	00898c00 	addeq	r8, r9, r0, lsl #24
    1244:	0089d400 	addeq	sp, r9, r0, lsl #8
    1248:	00070300 	andeq	r0, r7, r0, lsl #6
    124c:	02360100 	eorseq	r0, r6, #0, 2
    1250:	3b0d0000 	blcc	341258 <multiplylookup+0x337aa8>
    1254:	23000000 	movwcs	r0, #0
    1258:	0d000007 	stceq	0, cr0, [r0, #-28]	; 0xffffffe4
    125c:	00000044 	andeq	r0, r0, r4, asr #32
    1260:	0000074f 	andeq	r0, r0, pc, asr #14
    1264:	00004d0d 	andeq	r4, r0, sp, lsl #26
    1268:	00077b00 	andeq	r7, r7, r0, lsl #22
    126c:	002d1600 	eoreq	r1, sp, r0, lsl #12
    1270:	89a80000 	stmibhi	r8!, {}	; <UNPREDICTABLE>
    1274:	89c80000 	stmibhi	r8, {}^	; <UNPREDICTABLE>
    1278:	21010000 	mrscs	r0, (UNDEF: 1)
    127c:	00004d0d 	andeq	r4, r0, sp, lsl #26
    1280:	00079900 	andeq	r9, r7, r0, lsl #18
    1284:	00440d00 	subeq	r0, r4, r0, lsl #26
    1288:	07c80000 	strbeq	r0, [r8, r0]
    128c:	3b0d0000 	blcc	341294 <multiplylookup+0x337ae4>
    1290:	f4000000 	vst4.8	{d0-d3}, [r0], r0
    1294:	17000007 	strne	r0, [r0, -r7]
    1298:	000089a8 	andeq	r8, r0, r8, lsr #19
    129c:	000089c8 	andeq	r8, r0, r8, asr #19
    12a0:	00005918 	andeq	r5, r0, r8, lsl r9
    12a4:	00082000 	andeq	r2, r8, r0
    12a8:	89b01200 	ldmibhi	r0!, {r9, ip}
    12ac:	09fd0000 	ldmibeq	sp!, {}^	; <UNPREDICTABLE>
    12b0:	021f0000 	andseq	r0, pc, #0
    12b4:	01130000 	tsteq	r3, r0
    12b8:	200c0550 	andcs	r0, ip, r0, asr r5
    12bc:	00400400 	subeq	r0, r0, r0, lsl #8
    12c0:	0089c814 	addeq	ip, r9, r4, lsl r8
    12c4:	000a1500 	andeq	r1, sl, r0, lsl #10
    12c8:	51011300 	mrspl	r1, SP_irq
    12cc:	40007606 	andmi	r7, r0, r6, lsl #12
    12d0:	00254024 	eoreq	r4, r5, r4, lsr #32
    12d4:	0e000000 	cdpeq	0, 0, cr0, cr0, cr0, {0}
    12d8:	0023de01 	eoreq	sp, r3, r1, lsl #28
    12dc:	012a0100 	teqeq	sl, r0, lsl #2
    12e0:	000089d4 	ldrdeq	r8, [r0], -r4
    12e4:	00008b20 	andeq	r8, r0, r0, lsr #22
    12e8:	00000876 	andeq	r0, r0, r6, ror r8
    12ec:	00036701 	andeq	r6, r3, r1, lsl #14
    12f0:	30781900 	rsbscc	r1, r8, r0, lsl #18
    12f4:	662a0100 	strtvs	r0, [sl], -r0, lsl #2
    12f8:	a3000000 	movwge	r0, #0
    12fc:	19000008 	stmdbne	r0, {r3}
    1300:	01003079 	tsteq	r0, r9, ror r0
    1304:	0000662a 	andeq	r6, r0, sl, lsr #12
    1308:	0008c100 	andeq	ip, r8, r0, lsl #2
    130c:	31781900 	cmncc	r8, r0, lsl #18
    1310:	662a0100 	strtvs	r0, [sl], -r0, lsl #2
    1314:	df000000 	svcle	0x00000000
    1318:	19000008 	stmdbne	r0, {r3}
    131c:	01003179 	tsteq	r0, r9, ror r1
    1320:	0000662a 	andeq	r6, r0, sl, lsr #12
    1324:	0008fd00 	andeq	pc, r8, r0, lsl #26
    1328:	23a11a00 			; <UNDEFINED> instruction: 0x23a11a00
    132c:	2a010000 	bcs	41334 <multiplylookup+0x37b84>
    1330:	000000bf 	strheq	r0, [r0], -pc	; <UNPREDICTABLE>
    1334:	0a009102 	beq	25744 <multiplylookup+0x1bf94>
    1338:	01007864 	tsteq	r0, r4, ror #16
    133c:	0000662f 	andeq	r6, r0, pc, lsr #12
    1340:	79640a00 	stmdbvc	r4!, {r9, fp}^
    1344:	662f0100 	strtvs	r0, [pc], -r0, lsl #2
    1348:	10000000 	andne	r0, r0, r0
    134c:	01007873 	tsteq	r0, r3, ror r8
    1350:	0000662f 	andeq	r6, r0, pc, lsr #12
    1354:	00091b00 	andeq	r1, r9, r0, lsl #22
    1358:	79731000 	ldmdbvc	r3!, {ip}^
    135c:	662f0100 	strtvs	r0, [pc], -r0, lsl #2
    1360:	3a000000 	bcc	1368 <_start-0x6c98>
    1364:	10000009 	andne	r0, r0, r9
    1368:	00727265 	rsbseq	r7, r2, r5, ror #4
    136c:	00662f01 	rsbeq	r2, r6, r1, lsl #30
    1370:	09590000 	ldmdbeq	r9, {}^	; <UNPREDICTABLE>
    1374:	65100000 	ldrvs	r0, [r0, #-0]
    1378:	2f010032 	svccs	0x00010032
    137c:	00000066 	andeq	r0, r0, r6, rrx
    1380:	0000098d 	andeq	r0, r0, sp, lsl #19
    1384:	00002d1b 	andeq	r2, r0, fp, lsl sp
    1388:	008a4c00 	addeq	r4, sl, r0, lsl #24
    138c:	00009800 	andeq	r9, r0, r0, lsl #16
    1390:	1c350100 	ldfnes	f0, [r5], #-0
    1394:	0000004d 	andeq	r0, r0, sp, asr #32
    1398:	0000441d 	andeq	r4, r0, sp, lsl r4
    139c:	0d540100 	ldfeqe	f0, [r4, #-0]
    13a0:	0000003b 	andeq	r0, r0, fp, lsr r0
    13a4:	000009ab 	andeq	r0, r0, fp, lsr #19
    13a8:	00002d1b 	andeq	r2, r0, fp, lsl sp
    13ac:	008a4c00 	addeq	r4, sl, r0, lsl #24
    13b0:	0000d000 	andeq	sp, r0, r0
    13b4:	1c2a0100 	stfnes	f0, [sl], #-0
    13b8:	0000004d 	andeq	r0, r0, sp, asr #32
    13bc:	0000440d 	andeq	r4, r0, sp, lsl #8
    13c0:	0009c900 	andeq	ip, r9, r0, lsl #18
    13c4:	003b0d00 	eorseq	r0, fp, r0, lsl #26
    13c8:	09dc0000 	ldmibeq	ip, {}^	; <UNPREDICTABLE>
    13cc:	001e0000 	andseq	r0, lr, r0
    13d0:	18000001 	stmdane	r0, {r0}
    13d4:	00000059 	andeq	r0, r0, r9, asr r0
    13d8:	000009ef 	andeq	r0, r0, pc, ror #19
    13dc:	008a9c12 	addeq	r9, sl, r2, lsl ip
    13e0:	0009fd00 	andeq	pc, r9, r0, lsl #26
    13e4:	00035200 	andeq	r5, r3, r0, lsl #4
    13e8:	50011300 	andpl	r1, r1, r0, lsl #6
    13ec:	00200c05 	eoreq	r0, r0, r5, lsl #24
    13f0:	14004004 	strne	r4, [r0], #-4
    13f4:	00008ab0 			; <UNDEFINED> instruction: 0x00008ab0
    13f8:	00000a15 	andeq	r0, r0, r5, lsl sl
    13fc:	03510113 	cmpeq	r1, #-1073741820	; 0xc0000004
    1400:	00064c91 	muleq	r6, r1, ip
    1404:	00000000 	andeq	r0, r0, r0
    1408:	24ee0102 	strbtcs	r0, [lr], #258	; 0x102
    140c:	44010000 	strmi	r0, [r1], #-0
    1410:	039c0101 	orrseq	r0, ip, #1073741824	; 0x40000000
    1414:	78030000 	stmdavc	r3, {}	; <UNPREDICTABLE>
    1418:	66440100 	strbvs	r0, [r4], -r0, lsl #2
    141c:	03000000 	movweq	r0, #0
    1420:	44010079 	strmi	r0, [r1], #-121	; 0x79
    1424:	00000066 	andeq	r0, r0, r6, rrx
    1428:	0030780a 	eorseq	r7, r0, sl, lsl #16
    142c:	00664501 	rsbeq	r4, r6, r1, lsl #10
    1430:	790a0000 	stmdbvc	sl, {}	; <UNPREDICTABLE>
    1434:	45010030 	strmi	r0, [r1, #-48]	; 0x30
    1438:	00000066 	andeq	r0, r0, r6, rrx
    143c:	36010e00 	strcc	r0, [r1], -r0, lsl #28
    1440:	01000025 	tsteq	r0, r5, lsr #32
    1444:	8b20013d 	blhi	801940 <multiplylookup+0x7f8190>
    1448:	8bd00000 	blhi	ff401450 <multiplylookup+0xff3f7ca0>
    144c:	0a100000 	beq	401454 <multiplylookup+0x3f7ca4>
    1450:	c4010000 	strgt	r0, [r1], #-0
    1454:	19000004 	stmdbne	r0, {r2}
    1458:	3d010063 	stccc	0, cr0, [r1, #-396]	; 0xfffffe74
    145c:	000004c4 	andeq	r0, r0, r4, asr #9
    1460:	00000a3c 	andeq	r0, r0, ip, lsr sl
    1464:	01007819 	tsteq	r0, r9, lsl r8
    1468:	0000663d 	andeq	r6, r0, sp, lsr r6
    146c:	000a7600 	andeq	r7, sl, r0, lsl #12
    1470:	00791900 	rsbseq	r1, r9, r0, lsl #18
    1474:	00663d01 	rsbeq	r3, r6, r1, lsl #26
    1478:	0abd0000 	beq	fef41480 <multiplylookup+0xfef37cd0>
    147c:	301f0000 	andscc	r0, pc, r0
    1480:	ad000001 	stcge	0, cr0, [r0, #-4]
    1484:	0a000004 	beq	149c <_start-0x6b64>
    1488:	01003078 	tsteq	r0, r8, ror r0
    148c:	0000663f 	andeq	r6, r0, pc, lsr r6
    1490:	30790a00 	rsbscc	r0, r9, r0, lsl #20
    1494:	663f0100 	ldrtvs	r0, [pc], -r0, lsl #2
    1498:	1b000000 	blne	14a0 <_start-0x6b60>
    149c:	00000367 	andeq	r0, r0, r7, ror #6
    14a0:	00008b48 	andeq	r8, r0, r8, asr #22
    14a4:	00000148 	andeq	r0, r0, r8, asr #2
    14a8:	7e1c4001 	cdpvc	0, 1, cr4, cr12, cr1, {0}
    14ac:	1c000003 	stcne	0, cr0, [r0], {3}
    14b0:	00000375 	andeq	r0, r0, r5, ror r3
    14b4:	0001601e 	andeq	r6, r1, lr, lsl r0
    14b8:	03871800 	orreq	r1, r7, #0, 16
    14bc:	0af10000 	beq	ffc414c4 <multiplylookup+0xffc37d14>
    14c0:	91180000 	tstls	r8, r0
    14c4:	0f000003 	svceq	0x00000003
    14c8:	1b00000b 	blne	14fc <_start-0x6b04>
    14cc:	0000002d 	andeq	r0, r0, sp, lsr #32
    14d0:	00008b54 	andeq	r8, r0, r4, asr fp
    14d4:	00000178 	andeq	r0, r0, r8, ror r1
    14d8:	4d204801 	stcmi	8, cr4, [r0, #-4]!
    14dc:	00000000 	andeq	r0, r0, r0
    14e0:	0000440d 	andeq	r4, r0, sp, lsl #8
    14e4:	000b4500 	andeq	r4, fp, r0, lsl #10
    14e8:	003b1c00 	eorseq	r1, fp, r0, lsl #24
    14ec:	2d160000 	ldccs	0, cr0, [r6, #-0]
    14f0:	90000000 	andls	r0, r0, r0
    14f4:	a400008b 	strge	r0, [r0], #-139	; 0x8b
    14f8:	0100008b 	smlabbeq	r0, fp, r0, r0
    14fc:	004d0d3d 	subeq	r0, sp, sp, lsr sp
    1500:	0b650000 	bleq	1941508 <multiplylookup+0x1937d58>
    1504:	441c0000 	ldrmi	r0, [ip], #-0
    1508:	1c000000 	stcne	0, cr0, [r0], {-0}
    150c:	0000003b 	andeq	r0, r0, fp, lsr r0
    1510:	008b9017 	addeq	r9, fp, r7, lsl r0
    1514:	008ba400 	addeq	sl, fp, r0, lsl #8
    1518:	00591800 	subseq	r1, r9, r0, lsl #16
    151c:	0b790000 	bleq	1e41524 <multiplylookup+0x1e37d74>
    1520:	98120000 	ldmdals	r2, {}	; <UNPREDICTABLE>
    1524:	fd00008b 	stc2	0, cr0, [r0, #-556]	; 0xfffffdd4
    1528:	98000009 	stmdals	r0, {r0, r3}
    152c:	13000004 	movwne	r0, #4
    1530:	0c055001 	stceq	0, cr5, [r5], {1}
    1534:	40040020 	andmi	r0, r4, r0, lsr #32
    1538:	8ba41400 	blhi	fe906540 <multiplylookup+0xfe8fcd90>
    153c:	0a150000 	beq	541544 <multiplylookup+0x537d94>
    1540:	01130000 	tsteq	r3, r0
    1544:	00300151 	eorseq	r0, r0, r1, asr r1
    1548:	00000000 	andeq	r0, r0, r0
    154c:	3c140000 	ldccc	0, cr0, [r4], {-0}
    1550:	2e00008b 	cdpcs	0, 0, cr0, cr0, cr11, {4}
    1554:	1300000a 	movwne	r0, #10
    1558:	77025201 	strvc	r5, [r2, -r1, lsl #4]
    155c:	51011300 	mrspl	r1, SP_irq
    1560:	00007602 	andeq	r7, r0, r2, lsl #12
    1564:	08010b00 	stmdaeq	r1, {r8, r9, fp}
    1568:	000007cf 	andeq	r0, r0, pc, asr #15
    156c:	00036715 	andeq	r6, r3, r5, lsl r7
    1570:	008bd000 	addeq	sp, fp, r0
    1574:	008c7000 	addeq	r7, ip, r0
    1578:	000b9300 	andeq	r9, fp, r0, lsl #6
    157c:	05860100 	streq	r0, [r6, #256]	; 0x100
    1580:	750d0000 	strvc	r0, [sp, #-0]
    1584:	bf000003 	svclt	0x00000003
    1588:	0d00000b 	stceq	0, cr0, [r0, #-44]	; 0xffffffd4
    158c:	0000037e 	andeq	r0, r0, lr, ror r3
    1590:	00000be2 	andeq	r0, r0, r2, ror #23
    1594:	00038718 	andeq	r8, r3, r8, lsl r7
    1598:	000c0000 	andeq	r0, ip, r0
    159c:	03911800 	orrseq	r1, r1, #0, 16
    15a0:	0c1e0000 	ldceq	0, cr0, [lr], {-0}
    15a4:	2d1b0000 	ldccs	0, cr0, [fp, #-0]
    15a8:	e4000000 	str	r0, [r0], #-0
    15ac:	9800008b 	stmdals	r0, {r0, r1, r3, r7}
    15b0:	01000001 	tsteq	r0, r1
    15b4:	004d2048 	subeq	r2, sp, r8, asr #32
    15b8:	0d000000 	stceq	0, cr0, [r0, #-0]
    15bc:	00000044 	andeq	r0, r0, r4, asr #32
    15c0:	00000c54 	andeq	r0, r0, r4, asr ip
    15c4:	00003b1c 	andeq	r3, r0, ip, lsl fp
    15c8:	002d1600 	eoreq	r1, sp, r0, lsl #12
    15cc:	8c280000 	stchi	0, cr0, [r8], #-0
    15d0:	8c3c0000 	ldchi	0, cr0, [ip], #-0
    15d4:	44010000 	strmi	r0, [r1], #-0
    15d8:	00004d0d 	andeq	r4, r0, sp, lsl #26
    15dc:	000c7400 	andeq	r7, ip, r0, lsl #8
    15e0:	00441c00 	subeq	r1, r4, r0, lsl #24
    15e4:	3b1c0000 	blcc	7015ec <multiplylookup+0x6f7e3c>
    15e8:	17000000 	strne	r0, [r0, -r0]
    15ec:	00008c28 	andeq	r8, r0, r8, lsr #24
    15f0:	00008c3c 	andeq	r8, r0, ip, lsr ip
    15f4:	00005918 	andeq	r5, r0, r8, lsl r9
    15f8:	000c8800 	andeq	r8, ip, r0, lsl #16
    15fc:	8c301200 	lfmhi	f1, 4, [r0], #-0
    1600:	09fd0000 	ldmibeq	sp!, {}^	; <UNPREDICTABLE>
    1604:	05730000 	ldrbeq	r0, [r3, #-0]!
    1608:	01130000 	tsteq	r3, r0
    160c:	200c0550 	andcs	r0, ip, r0, asr r5
    1610:	00400400 	subeq	r0, r0, r0, lsl #8
    1614:	008c3c14 	addeq	r3, ip, r4, lsl ip
    1618:	000a1500 	andeq	r1, sl, r0, lsl #10
    161c:	51011300 	mrspl	r1, SP_irq
    1620:	00003001 	andeq	r3, r0, r1
    1624:	0e000000 	cdpeq	0, 0, cr0, cr0, cr0, {0}
    1628:	0024c501 	eoreq	ip, r4, r1, lsl #10
    162c:	014d0100 	mrseq	r0, (UNDEF: 93)
    1630:	00008c70 	andeq	r8, r0, r0, ror ip
    1634:	00008cc4 	andeq	r8, r0, r4, asr #25
    1638:	00000ca2 	andeq	r0, r0, r2, lsr #25
    163c:	0005ee01 	andeq	lr, r5, r1, lsl #28
    1640:	74731900 	ldrbtvc	r1, [r3], #-2304	; 0x900
    1644:	4d010072 	stcmi	0, cr0, [r1, #-456]	; 0xfffffe38
    1648:	000005ee 	andeq	r0, r0, lr, ror #11
    164c:	00000cc2 	andeq	r0, r0, r2, asr #25
    1650:	01007819 	tsteq	r0, r9, lsl r8
    1654:	0000664d 	andeq	r6, r0, sp, asr #12
    1658:	000cee00 	andeq	lr, ip, r0, lsl #28
    165c:	00791900 	rsbseq	r1, r9, r0, lsl #18
    1660:	00664d01 	rsbeq	r4, r6, r1, lsl #26
    1664:	0d170000 	ldceq	0, cr0, [r7, #-0]
    1668:	78100000 	ldmdavc	r0, {}	; <UNPREDICTABLE>
    166c:	4e010031 	mcrmi	0, 0, r0, cr1, cr1, {1}
    1670:	00000066 	andeq	r0, r0, r6, rrx
    1674:	00000d35 	andeq	r0, r0, r5, lsr sp
    1678:	01006910 	tsteq	r0, r0, lsl r9
    167c:	0000664e 	andeq	r6, r0, lr, asr #12
    1680:	000d5300 	andeq	r5, sp, r0, lsl #6
    1684:	8cac2100 	stfhis	f2, [ip]
    1688:	0a2e0000 	beq	b81690 <multiplylookup+0xb77ee0>
    168c:	22000000 	andcs	r0, r0, #0
    1690:	0004c404 	andeq	ip, r4, r4, lsl #8
    1694:	b1010e00 	tstlt	r1, r0, lsl #28
    1698:	01000024 	tsteq	r0, r4, lsr #32
    169c:	8cc4015e 	stfhie	f0, [r4], {94}	; 0x5e
    16a0:	8f740000 	svchi	0x00740000
    16a4:	0d670000 	stcleq	0, cr0, [r7, #-0]
    16a8:	fd010000 	stc2	0, cr0, [r1, #-0]
    16ac:	19000009 	stmdbne	r0, {r0, r3}
    16b0:	01003178 	tsteq	r0, r8, ror r1
    16b4:	0000665e 	andeq	r6, r0, lr, asr r6
    16b8:	000d9400 	andeq	r9, sp, r0, lsl #8
    16bc:	31791900 	cmncc	r9, r0, lsl #18
    16c0:	665e0100 	ldrbvs	r0, [lr], -r0, lsl #2
    16c4:	17000000 	strne	r0, [r0, -r0]
    16c8:	19000011 	stmdbne	r0, {r0, r4}
    16cc:	01003278 	tsteq	r0, r8, ror r2
    16d0:	0000665e 	andeq	r6, r0, lr, asr r6
    16d4:	00115500 	andseq	r5, r1, r0, lsl #10
    16d8:	32791900 	rsbscc	r1, r9, #0, 18
    16dc:	665e0100 	ldrbvs	r0, [lr], -r0, lsl #2
    16e0:	cb000000 	blgt	16e8 <_start-0x6918>
    16e4:	19000011 	stmdbne	r0, {r0, r4}
    16e8:	01003378 	tsteq	r0, r8, ror r3
    16ec:	0000665e 	andeq	r6, r0, lr, asr r6
    16f0:	00120900 	andseq	r0, r2, r0, lsl #18
    16f4:	33791900 	cmncc	r9, #0, 18
    16f8:	665e0100 	ldrbvs	r0, [lr], -r0, lsl #2
    16fc:	6f000000 	svcvs	0x00000000
    1700:	0f000012 	svceq	0x00000012
    1704:	000023a1 	andeq	r2, r0, r1, lsr #7
    1708:	00665e01 	rsbeq	r5, r6, r1, lsl #28
    170c:	12a00000 	adcne	r0, r0, #0
    1710:	3f110000 	svccc	0x00110000
    1714:	01000025 	tsteq	r0, r5, lsr #32
    1718:	0000666c 	andeq	r6, r0, ip, ror #12
    171c:	0012c600 	andseq	ip, r2, r0, lsl #12
    1720:	25152300 	ldrcs	r2, [r5, #-768]	; 0x300
    1724:	6c010000 	stcvs	0, cr0, [r1], {-0}
    1728:	00000066 	andeq	r0, r0, r6, rrx
    172c:	11409102 	cmpne	r0, r2, lsl #2
    1730:	00002510 	andeq	r2, r0, r0, lsl r5
    1734:	00666c01 	rsbeq	r6, r6, r1, lsl #24
    1738:	131b0000 	tstne	fp, #0
    173c:	31230000 	teqcc	r3, r0
    1740:	01000025 	tsteq	r0, r5, lsr #32
    1744:	0000666c 	andeq	r6, r0, ip, ror #12
    1748:	24580100 	ldrbcs	r0, [r8], #-256	; 0x100
    174c:	00323179 	eorseq	r3, r2, r9, ror r1
    1750:	00667101 	rsbeq	r7, r6, r1, lsl #2
    1754:	5a010000 	bpl	4175c <multiplylookup+0x37fac>
    1758:	33327924 	teqcc	r2, #36, 18	; 0x90000
    175c:	66710100 	ldrbtvs	r0, [r1], -r0, lsl #2
    1760:	01000000 	mrseq	r0, (UNDEF: 0)
    1764:	33792459 	cmncc	r9, #1493172224	; 0x59000000
    1768:	71010031 	tstvc	r1, r1, lsr r0
    176c:	00000066 	andeq	r0, r0, r6, rrx
    1770:	78245b01 	stmdavc	r4!, {r0, r8, r9, fp, ip, lr}
    1774:	01003231 	tsteq	r0, r1, lsr r2
    1778:	00006675 	andeq	r6, r0, r5, ror r6
    177c:	44910200 	ldrmi	r0, [r1], #512	; 0x200
    1780:	33327824 	teqcc	r2, #36, 16	; 0x240000
    1784:	66750100 	ldrbtvs	r0, [r5], -r0, lsl #2
    1788:	02000000 	andeq	r0, r0, #0
    178c:	78244891 	stmdavc	r4!, {r0, r4, r7, fp, lr}
    1790:	01003133 	tsteq	r0, r3, lsr r1
    1794:	00006675 	andeq	r6, r0, r5, ror r6
    1798:	4c910200 	lfmmi	f0, 4, [r1], {0}
    179c:	00316325 	eorseq	r6, r1, r5, lsr #6
    17a0:	00667901 	rsbeq	r7, r6, r1, lsl #18
    17a4:	01ac0000 			; <UNDEFINED> instruction: 0x01ac0000
    17a8:	465001f3 			; <UNDEFINED> instruction: 0x465001f3
    17ac:	0a254624 	beq	953044 <multiplylookup+0x949894>
    17b0:	f31c0280 	vhsub.u16	d0, d28, d0
    17b4:	24465001 	strbcs	r5, [r6], #-1
    17b8:	01f32546 	mvnseq	r2, r6, asr #10
    17bc:	46244650 			; <UNDEFINED> instruction: 0x46244650
    17c0:	02800a25 	addeq	r0, r0, #151552	; 0x25000
    17c4:	0001282a 	andeq	r2, r1, sl, lsr #16
    17c8:	e00a1316 	and	r1, sl, r6, lsl r3
    17cc:	01f31c01 	mvnseq	r1, r1, lsl #24
    17d0:	46244650 			; <UNDEFINED> instruction: 0x46244650
    17d4:	02800a25 	addeq	r0, r0, #151552	; 0x25000
    17d8:	5001f31c 	andpl	pc, r1, ip, lsl r3	; <UNPREDICTABLE>
    17dc:	25462446 	strbcs	r2, [r6, #-1094]	; 0x446
    17e0:	465001f3 			; <UNDEFINED> instruction: 0x465001f3
    17e4:	0a254624 	beq	95307c <multiplylookup+0x9498cc>
    17e8:	282a0280 	stmdacs	sl!, {r7, r9}
    17ec:	13160001 	tstne	r6, #1
    17f0:	475101f3 	smmlsrmi	r1, r3, r1, r0
    17f4:	0a254724 	beq	95348c <multiplylookup+0x949cdc>
    17f8:	282a01e0 	stmdacs	sl!, {r5, r6, r7, r8}
    17fc:	13160001 	tstne	r6, #1
    1800:	1c01e00a 	stcne	0, cr14, [r1], {10}
    1804:	465001f3 			; <UNDEFINED> instruction: 0x465001f3
    1808:	0a254624 	beq	9530a0 <multiplylookup+0x9498f0>
    180c:	f31c0280 	vhsub.u16	d0, d28, d0
    1810:	24465001 	strbcs	r5, [r6], #-1
    1814:	01f32546 	mvnseq	r2, r6, asr #10
    1818:	46244650 			; <UNDEFINED> instruction: 0x46244650
    181c:	02800a25 	addeq	r0, r0, #151552	; 0x25000
    1820:	0001282a 	andeq	r2, r1, sl, lsr #16
    1824:	e00a1316 	and	r1, sl, r6, lsl r3
    1828:	01f31c01 	mvnseq	r1, r1, lsl #24
    182c:	46244650 			; <UNDEFINED> instruction: 0x46244650
    1830:	02800a25 	addeq	r0, r0, #151552	; 0x25000
    1834:	5001f31c 	andpl	pc, r1, ip, lsl r3	; <UNPREDICTABLE>
    1838:	25462446 	strbcs	r2, [r6, #-1094]	; 0x446
    183c:	465001f3 			; <UNDEFINED> instruction: 0x465001f3
    1840:	0a254624 	beq	9530d8 <multiplylookup+0x949928>
    1844:	282a0280 	stmdacs	sl!, {r7, r9}
    1848:	13160001 	tstne	r6, #1
    184c:	475101f3 	smmlsrmi	r1, r3, r1, r0
    1850:	0a254724 	beq	9534e8 <multiplylookup+0x949d38>
    1854:	282a01e0 	stmdacs	sl!, {r5, r6, r7, r8}
    1858:	13160001 	tstne	r6, #1
    185c:	475301f3 	smmlsrmi	r3, r3, r1, r0
    1860:	0a254724 	beq	9534f8 <multiplylookup+0x949d48>
    1864:	282a01e0 	stmdacs	sl!, {r5, r6, r7, r8}
    1868:	13160001 	tstne	r6, #1
    186c:	1c01e00a 	stcne	0, cr14, [r1], {10}
    1870:	465001f3 			; <UNDEFINED> instruction: 0x465001f3
    1874:	0a254624 	beq	95310c <multiplylookup+0x94995c>
    1878:	f31c0280 	vhsub.u16	d0, d28, d0
    187c:	24465001 	strbcs	r5, [r6], #-1
    1880:	01f32546 	mvnseq	r2, r6, asr #10
    1884:	46244650 			; <UNDEFINED> instruction: 0x46244650
    1888:	02800a25 	addeq	r0, r0, #151552	; 0x25000
    188c:	0001282a 	andeq	r2, r1, sl, lsr #16
    1890:	e00a1316 	and	r1, sl, r6, lsl r3
    1894:	01f31c01 	mvnseq	r1, r1, lsl #24
    1898:	46244650 			; <UNDEFINED> instruction: 0x46244650
    189c:	02800a25 	addeq	r0, r0, #151552	; 0x25000
    18a0:	5001f31c 	andpl	pc, r1, ip, lsl r3	; <UNPREDICTABLE>
    18a4:	25462446 	strbcs	r2, [r6, #-1094]	; 0x446
    18a8:	465001f3 			; <UNDEFINED> instruction: 0x465001f3
    18ac:	0a254624 	beq	953144 <multiplylookup+0x949994>
    18b0:	282a0280 	stmdacs	sl!, {r7, r9}
    18b4:	13160001 	tstne	r6, #1
    18b8:	475101f3 	smmlsrmi	r1, r3, r1, r0
    18bc:	0a254724 	beq	953554 <multiplylookup+0x949da4>
    18c0:	282a01e0 	stmdacs	sl!, {r5, r6, r7, r8}
    18c4:	13160001 	tstne	r6, #1
    18c8:	1c01e00a 	stcne	0, cr14, [r1], {10}
    18cc:	465001f3 			; <UNDEFINED> instruction: 0x465001f3
    18d0:	0a254624 	beq	953168 <multiplylookup+0x9499b8>
    18d4:	f31c0280 	vhsub.u16	d0, d28, d0
    18d8:	24465001 	strbcs	r5, [r6], #-1
    18dc:	01f32546 	mvnseq	r2, r6, asr #10
    18e0:	46244650 			; <UNDEFINED> instruction: 0x46244650
    18e4:	02800a25 	addeq	r0, r0, #151552	; 0x25000
    18e8:	0001282a 	andeq	r2, r1, sl, lsr #16
    18ec:	e00a1316 	and	r1, sl, r6, lsl r3
    18f0:	01f31c01 	mvnseq	r1, r1, lsl #24
    18f4:	46244650 			; <UNDEFINED> instruction: 0x46244650
    18f8:	02800a25 	addeq	r0, r0, #151552	; 0x25000
    18fc:	5001f31c 	andpl	pc, r1, ip, lsl r3	; <UNPREDICTABLE>
    1900:	25462446 	strbcs	r2, [r6, #-1094]	; 0x446
    1904:	465001f3 			; <UNDEFINED> instruction: 0x465001f3
    1908:	0a254624 	beq	9531a0 <multiplylookup+0x9499f0>
    190c:	282a0280 	stmdacs	sl!, {r7, r9}
    1910:	13160001 	tstne	r6, #1
    1914:	475101f3 	smmlsrmi	r1, r3, r1, r0
    1918:	0a254724 	beq	9535b0 <multiplylookup+0x949e00>
    191c:	282a01e0 	stmdacs	sl!, {r5, r6, r7, r8}
    1920:	13160001 	tstne	r6, #1
    1924:	475301f3 	smmlsrmi	r3, r3, r1, r0
    1928:	0a254724 	beq	9535c0 <multiplylookup+0x949e10>
    192c:	282a01e0 	stmdacs	sl!, {r5, r6, r7, r8}
    1930:	13160001 	tstne	r6, #1
    1934:	47067c91 			; <UNDEFINED> instruction: 0x47067c91
    1938:	0a254724 	beq	9535d0 <multiplylookup+0x949e20>
    193c:	282a01e0 	stmdacs	sl!, {r5, r6, r7, r8}
    1940:	13160001 	tstne	r6, #1
    1944:	f31e007a 	vqadd.u16	q0, q7, q13
    1948:	24475101 	strbcs	r5, [r7], #-257	; 0x101
    194c:	44912547 	ldrmi	r2, [r1], #1351	; 0x547
    1950:	9f1c1e06 	svcls	0x001c1e06
    1954:	00326324 	eorseq	r6, r2, r4, lsr #6
    1958:	00667901 	rsbeq	r7, r6, r1, lsl #18
    195c:	f3320000 	vhadd.u<illegal width 64>	d0, d2, d0
    1960:	24465201 	strbcs	r5, [r6], #-513	; 0x201
    1964:	800a2546 	andhi	r2, sl, r6, asr #10
    1968:	01f31c02 	mvnseq	r1, r2, lsl #24
    196c:	46244652 			; <UNDEFINED> instruction: 0x46244652
    1970:	5201f325 	andpl	pc, r1, #-1811939328	; 0x94000000
    1974:	25462446 	strbcs	r2, [r6, #-1094]	; 0x446
    1978:	2a02800a 	bcs	a19a8 <multiplylookup+0x981f8>
    197c:	16000128 	strne	r0, [r0], -r8, lsr #2
    1980:	1e007913 	mcrne	9, 0, r7, cr0, cr3, {0}
    1984:	475301f3 	smmlsrmi	r3, r3, r1, r0
    1988:	91254724 	teqls	r5, r4, lsr #14
    198c:	1c1e0648 	ldcne	6, cr0, [lr], {72}	; 0x48
    1990:	3363109f 	cmncc	r3, #159	; 0x9f
    1994:	66790100 	ldrbtvs	r0, [r9], -r0, lsl #2
    1998:	3b000000 	blcc	19a0 <_start-0x6660>
    199c:	10000013 	andne	r0, r0, r3, lsl r0
    19a0:	00317963 	eorseq	r7, r1, r3, ror #18
    19a4:	00667d01 	rsbeq	r7, r6, r1, lsl #26
    19a8:	139b0000 	orrsne	r0, fp, #0
    19ac:	63100000 	tstvs	r0, #0
    19b0:	01003279 	tsteq	r0, r9, ror r2
    19b4:	0000667d 	andeq	r6, r0, sp, ror r6
    19b8:	0013ca00 	andseq	ip, r3, r0, lsl #20
    19bc:	79631000 	stmdbvc	r3!, {ip}^
    19c0:	7d010033 	stcvc	0, cr0, [r1, #-204]	; 0xffffff34
    19c4:	00000066 	andeq	r0, r0, r6, rrx
    19c8:	00001404 	andeq	r1, r0, r4, lsl #8
    19cc:	01006910 	tsteq	r0, r0, lsl r9
    19d0:	00006681 	andeq	r6, r0, r1, lsl #13
    19d4:	00144200 	andseq	r4, r4, r0, lsl #4
    19d8:	006a1000 	rsbeq	r1, sl, r0
    19dc:	00668101 	rsbeq	r8, r6, r1, lsl #2
    19e0:	147a0000 	ldrbtne	r0, [sl], #-0
    19e4:	63100000 	tstvs	r0, #0
    19e8:	01003178 	tsteq	r0, r8, ror r1
    19ec:	00006681 	andeq	r6, r0, r1, lsl #13
    19f0:	00149800 	andseq	r9, r4, r0, lsl #16
    19f4:	78631000 	stmdavc	r3!, {ip}^
    19f8:	81010032 	tsthi	r1, r2, lsr r0
    19fc:	00000066 	andeq	r0, r0, r6, rrx
    1a00:	000014b6 			; <UNDEFINED> instruction: 0x000014b6
    1a04:	33786310 	cmncc	r8, #16, 6	; 0x40000000
    1a08:	66810100 	strvs	r0, [r1], r0, lsl #2
    1a0c:	d4000000 	strle	r0, [r0], #-0
    1a10:	1b000014 	blne	1a68 <_start-0x6598>
    1a14:	0000002d 	andeq	r0, r0, sp, lsr #32
    1a18:	00008e6c 	andeq	r8, r0, ip, ror #28
    1a1c:	000001b8 			; <UNDEFINED> instruction: 0x000001b8
    1a20:	4d0d8801 	stcmi	8, cr8, [sp, #-4]
    1a24:	f4000000 	vst4.8	{d0-d3}, [r0], r0
    1a28:	0d000014 	stceq	0, cr0, [r0, #-80]	; 0xffffffb0
    1a2c:	00000044 	andeq	r0, r0, r4, asr #32
    1a30:	0000150e 	andeq	r1, r0, lr, lsl #10
    1a34:	00003b0d 	andeq	r3, r0, sp, lsl #22
    1a38:	00152100 	andseq	r2, r5, r0, lsl #2
    1a3c:	002d1b00 	eoreq	r1, sp, r0, lsl #22
    1a40:	8e6c0000 	cdphi	0, 6, cr0, cr12, cr0, {0}
    1a44:	01e80000 	mvneq	r0, r0
    1a48:	5e010000 	cdppl	0, 0, cr0, cr1, cr0, {0}
    1a4c:	00004d0d 	andeq	r4, r0, sp, lsl #26
    1a50:	00153400 	andseq	r3, r5, r0, lsl #8
    1a54:	00441c00 	subeq	r1, r4, r0, lsl #24
    1a58:	3b0d0000 	blcc	341a60 <multiplylookup+0x3382b0>
    1a5c:	4e000000 	cdpmi	0, 0, cr0, cr0, cr0, {0}
    1a60:	1e000015 	mcrne	0, 0, r0, cr0, cr5, {0}
    1a64:	00000218 	andeq	r0, r0, r8, lsl r2
    1a68:	00005918 	andeq	r5, r0, r8, lsl r9
    1a6c:	00156100 	andseq	r6, r5, r0, lsl #2
    1a70:	8ee81200 	cdphi	2, 14, cr1, cr8, cr0, {0}
    1a74:	09fd0000 	ldmibeq	sp!, {}^	; <UNPREDICTABLE>
    1a78:	09e70000 	stmibeq	r7!, {}^	; <UNPREDICTABLE>
    1a7c:	01130000 	tsteq	r3, r0
    1a80:	200c0550 	andcs	r0, ip, r0, asr r5
    1a84:	00400400 	subeq	r0, r0, r0, lsl #8
    1a88:	008efc14 	addeq	pc, lr, r4, lsl ip	; <UNPREDICTABLE>
    1a8c:	000a1500 	andeq	r1, sl, r0, lsl #10
    1a90:	51011300 	mrspl	r1, SP_irq
    1a94:	7fbc9104 	svcvc	0x00bc9104
    1a98:	00000006 	andeq	r0, r0, r6
    1a9c:	01260000 	teqeq	r6, r0
    1aa0:	00000364 	andeq	r0, r0, r4, ror #6
    1aa4:	bf010402 	svclt	0x00010402
    1aa8:	01000000 	mrseq	r0, (UNDEF: 0)
    1aac:	00000a15 	andeq	r0, r0, r5, lsl sl
    1ab0:	0000bf27 	andeq	fp, r0, r7, lsr #30
    1ab4:	01280000 	teqeq	r8, r0
    1ab8:	0000252b 	andeq	r2, r0, fp, lsr #10
    1abc:	01010202 	tsteq	r1, r2, lsl #4
    1ac0:	00000a2e 	andeq	r0, r0, lr, lsr #20
    1ac4:	0000bf27 	andeq	fp, r0, r7, lsr #30
    1ac8:	00bf2700 	adcseq	r2, pc, r0, lsl #14
    1acc:	29000000 	stmdbcs	r0, {}	; <UNPREDICTABLE>
    1ad0:	00250701 	eoreq	r0, r5, r1, lsl #14
    1ad4:	01040300 	mrseq	r0, LR_abt
    1ad8:	04c42701 	strbeq	r2, [r4], #1793	; 0x701
    1adc:	66270000 	strtvs	r0, [r7], -r0
    1ae0:	27000000 	strcs	r0, [r0, -r0]
    1ae4:	00000066 	andeq	r0, r0, r6, rrx
	...

Disassembly of section .debug_abbrev:

00000000 <.debug_abbrev>:
   0:	10001101 	andne	r1, r0, r1, lsl #2
   4:	12011106 	andne	r1, r1, #-2147483647	; 0x80000001
   8:	1b080301 	blne	200c14 <multiplylookup+0x1f7464>
   c:	13082508 	movwne	r2, #34056	; 0x8508
  10:	00000005 	andeq	r0, r0, r5
  14:	25011101 	strcs	r1, [r1, #-257]	; 0x101
  18:	030b130e 	movweq	r1, #45838	; 0xb30e
  1c:	550e1b0e 	strpl	r1, [lr, #-2830]	; 0xb0e
  20:	52011106 	andpl	r1, r1, #-2147483647	; 0x80000001
  24:	99061001 	stmdbls	r6, {r0, ip}
  28:	00000642 	andeq	r0, r0, r2, asr #12
  2c:	3f012e02 	svccc	0x00012e02
  30:	3a0e030c 	bcc	380c68 <multiplylookup+0x3774b8>
  34:	270b3b0b 	strcs	r3, [fp, -fp, lsl #22]
  38:	1113490c 	tstne	r3, ip, lsl #18
  3c:	40011201 	andmi	r1, r1, r1, lsl #4
  40:	0c429706 	mcrreq	7, 0, r9, r2, cr6
  44:	00001301 	andeq	r1, r0, r1, lsl #6
  48:	01828903 	orreq	r8, r2, r3, lsl #18
  4c:	31011101 	tstcc	r1, r1, lsl #2
  50:	04000013 	streq	r0, [r0], #-19
  54:	0001828a 	andeq	r8, r1, sl, lsl #5
  58:	42910a02 	addsmi	r0, r1, #8192	; 0x2000
  5c:	0500000a 	streq	r0, [r0, #-10]
  60:	0b0b0024 	bleq	2c00f8 <multiplylookup+0x2b6948>
  64:	0e030b3e 	vmoveq.16	d3[0], r0
  68:	89060000 	stmdbhi	r6, {}	; <UNPREDICTABLE>
  6c:	11010182 	smlabbne	r1, r2, r1, r0
  70:	01133101 	tsteq	r3, r1, lsl #2
  74:	07000013 	smladeq	r0, r3, r0, r0
  78:	0c3f012e 	ldfeqs	f0, [pc], #-184	; ffffffc8 <multiplylookup+0xffff6818>
  7c:	0b3a0e03 	bleq	e83890 <multiplylookup+0xe7a0e0>
  80:	0c270b3b 	stceq	11, cr0, [r7], #-236	; 0xffffff14
  84:	13010b20 	movwne	r0, #6944	; 0x1b20
  88:	05080000 	streq	r0, [r8, #-0]
  8c:	3a080300 	bcc	200c94 <multiplylookup+0x1f74e4>
  90:	490b3b0b 	stmdbmi	fp, {r0, r1, r3, r8, r9, fp, ip, sp}
  94:	09000013 	stmdbeq	r0, {r0, r1, r4}
  98:	0c3f012e 	ldfeqs	f0, [pc], #-184	; ffffffe8 <multiplylookup+0xffff6838>
  9c:	0b3a0e03 	bleq	e838b0 <multiplylookup+0xe7a100>
  a0:	0c270b3b 	stceq	11, cr0, [r7], #-236	; 0xffffff14
  a4:	01120111 	tsteq	r2, r1, lsl r1
  a8:	42970640 	addsmi	r0, r7, #64, 12	; 0x4000000
  ac:	0013010c 	andseq	r0, r3, ip, lsl #2
  b0:	00050a00 	andeq	r0, r5, r0, lsl #20
  b4:	0b3a0803 	bleq	e820c8 <multiplylookup+0xe78918>
  b8:	13490b3b 	movtne	r0, #39739	; 0x9b3b
  bc:	00000602 	andeq	r0, r0, r2, lsl #12
  c0:	0300340b 	movweq	r3, #1035	; 0x40b
  c4:	3b0b3a08 	blcc	2ce8ec <multiplylookup+0x2c513c>
  c8:	0213490b 	andseq	r4, r3, #180224	; 0x2c000
  cc:	0c000006 	stceq	0, cr0, [r0], {6}
  d0:	1331011d 	teqne	r1, #1073741831	; 0x40000007
  d4:	01120111 	tsteq	r2, r1, lsl r1
  d8:	0b590b58 	bleq	1642e40 <multiplylookup+0x1639690>
  dc:	050d0000 	streq	r0, [sp, #-0]
  e0:	00133100 	andseq	r3, r3, r0, lsl #2
  e4:	000f0e00 	andeq	r0, pc, r0, lsl #28
  e8:	13490b0b 	movtne	r0, #39691	; 0x9b0b
  ec:	240f0000 	strcs	r0, [pc], #-0	; f4 <_start-0x7f0c>
  f0:	3e0b0b00 	vmlacc.f64	d0, d11, d0
  f4:	0008030b 	andeq	r0, r8, fp, lsl #6
  f8:	012e1000 	teqeq	lr, r0
  fc:	01111331 	tsteq	r1, r1, lsr r3
 100:	06400112 			; <UNDEFINED> instruction: 0x06400112
 104:	010c4297 			; <UNDEFINED> instruction: 0x010c4297
 108:	11000013 	tstne	r0, r3, lsl r0
 10c:	13310005 	teqne	r1, #5
 110:	00000602 	andeq	r0, r0, r2, lsl #12
 114:	03003412 	movweq	r3, #1042	; 0x412
 118:	3b0b3a08 	blcc	2ce940 <multiplylookup+0x2c5190>
 11c:	0013490b 	andseq	r4, r3, fp, lsl #18
 120:	00341300 	eorseq	r1, r4, r0, lsl #6
 124:	06021331 			; <UNDEFINED> instruction: 0x06021331
 128:	1d140000 	ldcne	0, cr0, [r4, #-0]
 12c:	11133101 	tstne	r3, r1, lsl #2
 130:	58011201 	stmdapl	r1, {r0, r9, ip}
 134:	010b590b 	tsteq	fp, fp, lsl #18
 138:	15000013 	strne	r0, [r0, #-19]
 13c:	13310005 	teqne	r1, #5
 140:	00000a02 	andeq	r0, r0, r2, lsl #20
 144:	11010b16 	tstne	r1, r6, lsl fp
 148:	00011201 	andeq	r1, r1, r1, lsl #4
 14c:	00341700 	eorseq	r1, r4, r0, lsl #14
 150:	0a021331 	beq	84e1c <multiplylookup+0x7b66c>
 154:	05180000 	ldreq	r0, [r8, #-0]
 158:	1c133100 	ldfnes	f3, [r3], {-0}
 15c:	1900000b 	stmdbne	r0, {r0, r1, r3}
 160:	0c3f012e 	ldfeqs	f0, [pc], #-184	; b0 <_start-0x7f50>
 164:	0b3a0e03 	bleq	e83978 <multiplylookup+0xe7a1c8>
 168:	0c270b3b 	stceq	11, cr0, [r7], #-236	; 0xffffff14
 16c:	0c3c1349 	ldceq	3, cr1, [ip], #-292	; 0xfffffedc
 170:	00001301 	andeq	r1, r0, r1, lsl #6
 174:	4900051a 	stmdbmi	r0, {r1, r3, r4, r8, sl}
 178:	1b000013 	blne	1cc <_start-0x7e34>
 17c:	0c3f012e 	ldfeqs	f0, [pc], #-184	; cc <_start-0x7f34>
 180:	0b3a0e03 	bleq	e83994 <multiplylookup+0xe7a1e4>
 184:	0c270b3b 	stceq	11, cr0, [r7], #-236	; 0xffffff14
 188:	13010c3c 	movwne	r0, #7228	; 0x1c3c
 18c:	2e1c0000 	cdpcs	0, 1, cr0, cr12, cr0, {0}
 190:	030c3f01 	movweq	r3, #52993	; 0xcf01
 194:	3b0b3a0e 	blcc	2ce9d4 <multiplylookup+0x2c5224>
 198:	3c0c270b 	stccc	7, cr2, [ip], {11}
 19c:	0000000c 	andeq	r0, r0, ip
 1a0:	25011101 	strcs	r1, [r1, #-257]	; 0x101
 1a4:	030b130e 	movweq	r1, #45838	; 0xb30e
 1a8:	550e1b0e 	strpl	r1, [lr, #-2830]	; 0xb0e
 1ac:	52011106 	andpl	r1, r1, #-2147483647	; 0x80000001
 1b0:	99061001 	stmdbls	r6, {r0, ip}
 1b4:	00000642 	andeq	r0, r0, r2, asr #12
 1b8:	3f012e02 	svccc	0x00012e02
 1bc:	3a0e030c 	bcc	380df4 <multiplylookup+0x377644>
 1c0:	270b3b0b 	strcs	r3, [fp, -fp, lsl #22]
 1c4:	2013490c 	andscs	r4, r3, ip, lsl #18
 1c8:	0013010b 	andseq	r0, r3, fp, lsl #2
 1cc:	00050300 	andeq	r0, r5, r0, lsl #6
 1d0:	0b3a0e03 	bleq	e839e4 <multiplylookup+0xe7a234>
 1d4:	13490b3b 	movtne	r0, #39739	; 0x9b3b
 1d8:	34040000 	strcc	r0, [r4], #-0
 1dc:	3a0e0300 	bcc	380de4 <multiplylookup+0x377634>
 1e0:	490b3b0b 	stmdbmi	fp, {r0, r1, r3, r8, r9, fp, ip, sp}
 1e4:	05000013 	streq	r0, [r0, #-19]
 1e8:	0b0b0024 	bleq	2c0280 <multiplylookup+0x2b6ad0>
 1ec:	0e030b3e 	vmoveq.16	d3[0], r0
 1f0:	2e060000 	cdpcs	0, 0, cr0, cr6, cr0, {0}
 1f4:	11133101 	tstne	r3, r1, lsl #2
 1f8:	40011201 	andmi	r1, r1, r1, lsl #4
 1fc:	0c429706 	mcrreq	7, 0, r9, r2, cr6
 200:	00001301 	andeq	r1, r0, r1, lsl #6
 204:	31000507 	tstcc	r0, r7, lsl #10
 208:	00060213 	andeq	r0, r6, r3, lsl r2
 20c:	00340800 	eorseq	r0, r4, r0, lsl #16
 210:	061c1331 			; <UNDEFINED> instruction: 0x061c1331
 214:	89090000 	stmdbhi	r9, {}	; <UNPREDICTABLE>
 218:	11010182 	smlabbne	r1, r2, r1, r0
 21c:	01133101 	tsteq	r3, r1, lsl #2
 220:	0a000013 	beq	274 <_start-0x7d8c>
 224:	0001828a 	andeq	r8, r1, sl, lsl #5
 228:	42910a02 	addsmi	r0, r1, #8192	; 0x2000
 22c:	0b00000a 	bleq	25c <_start-0x7da4>
 230:	01018289 	smlabbeq	r1, r9, r2, r8
 234:	13310111 	teqne	r1, #1073741828	; 0x40000004
 238:	340c0000 	strcc	r0, [ip], #-0
 23c:	3a080300 	bcc	200e44 <multiplylookup+0x1f7694>
 240:	490b3b0b 	stmdbmi	fp, {r0, r1, r3, r8, r9, fp, ip, sp}
 244:	0d000013 	stceq	0, cr0, [r0, #-76]	; 0xffffffb4
 248:	13310034 	teqne	r1, #52	; 0x34
 24c:	00000602 	andeq	r0, r0, r2, lsl #12
 250:	3f012e0e 	svccc	0x00012e0e
 254:	3a0e030c 	bcc	380e8c <multiplylookup+0x3776dc>
 258:	270b3b0b 	strcs	r3, [fp, -fp, lsl #22]
 25c:	1113490c 	tstne	r3, ip, lsl #18
 260:	40011201 	andmi	r1, r1, r1, lsl #4
 264:	0c429706 	mcrreq	7, 0, r9, r2, cr6
 268:	00001301 	andeq	r1, r0, r1, lsl #6
 26c:	0300340f 	movweq	r3, #1039	; 0x40f
 270:	3b0b3a08 	blcc	2cea98 <multiplylookup+0x2c52e8>
 274:	1c13490b 	ldcne	9, cr4, [r3], {11}
 278:	1000000b 	andne	r0, r0, fp
 27c:	0e030034 	mcreq	0, 0, r0, cr3, cr4, {1}
 280:	0b3b0b3a 	bleq	ec2f70 <multiplylookup+0xeb97c0>
 284:	06021349 	streq	r1, [r2], -r9, asr #6
 288:	1d110000 	ldcne	0, cr0, [r1, #-0]
 28c:	11133101 	tstne	r3, r1, lsl #2
 290:	58011201 	stmdapl	r1, {r0, r9, ip}
 294:	010b590b 	tsteq	fp, fp, lsl #18
 298:	12000013 	andne	r0, r0, #19
 29c:	13310005 	teqne	r1, #5
 2a0:	00000b1c 	andeq	r0, r0, ip, lsl fp
 2a4:	31000513 	tstcc	r0, r3, lsl r5
 2a8:	00061c13 	andeq	r1, r6, r3, lsl ip
 2ac:	010b1400 	tsteq	fp, r0, lsl #8
 2b0:	01120111 	tsteq	r2, r1, lsl r1
 2b4:	34150000 	ldrcc	r0, [r5], #-0
 2b8:	00133100 	andseq	r3, r3, r0, lsl #2
 2bc:	82891600 	addhi	r1, r9, #0, 12
 2c0:	01110001 	tsteq	r1, r1
 2c4:	00001331 	andeq	r1, r0, r1, lsr r3
 2c8:	0b002417 	bleq	932c <font+0x37c>
 2cc:	030b3e0b 	movweq	r3, #48651	; 0xbe0b
 2d0:	18000008 	stmdane	r0, {r3}
 2d4:	13490101 	movtne	r0, #37121	; 0x9101
 2d8:	00001301 	andeq	r1, r0, r1, lsl #6
 2dc:	49002119 	stmdbmi	r0, {r0, r3, r4, r8, sp}
 2e0:	00052f13 	andeq	r2, r5, r3, lsl pc
 2e4:	00341a00 	eorseq	r1, r4, r0, lsl #20
 2e8:	0b3a0e03 	bleq	e83afc <multiplylookup+0xe7a34c>
 2ec:	13490b3b 	movtne	r0, #39739	; 0x9b3b
 2f0:	0a020c3f 	beq	833f4 <multiplylookup+0x79c44>
 2f4:	2e1b0000 	cdpcs	0, 1, cr0, cr11, cr0, {0}
 2f8:	030c3f01 	movweq	r3, #52993	; 0xcf01
 2fc:	3b0b3a0e 	blcc	2ceb3c <multiplylookup+0x2c538c>
 300:	490c270b 	stmdbmi	ip, {r0, r1, r3, r8, r9, sl, sp}
 304:	010c3c13 	tsteq	ip, r3, lsl ip
 308:	1c000013 	stcne	0, cr0, [r0], {19}
 30c:	13490005 	movtne	r0, #36869	; 0x9005
 310:	2e1d0000 	cdpcs	0, 1, cr0, cr13, cr0, {0}
 314:	030c3f01 	movweq	r3, #52993	; 0xcf01
 318:	3b0b3a0e 	blcc	2ceb58 <multiplylookup+0x2c53a8>
 31c:	3c0c270b 	stccc	7, cr2, [ip], {11}
 320:	0013010c 	andseq	r0, r3, ip, lsl #2
 324:	002e1e00 	eoreq	r1, lr, r0, lsl #28
 328:	0e030c3f 	mcreq	12, 0, r0, cr3, cr15, {1}
 32c:	0b3b0b3a 	bleq	ec301c <multiplylookup+0xeb986c>
 330:	0c3c0c27 	ldceq	12, cr0, [ip], #-156	; 0xffffff64
 334:	0f1f0000 	svceq	0x001f0000
 338:	490b0b00 	stmdbmi	fp, {r8, r9, fp}
 33c:	20000013 	andcs	r0, r0, r3, lsl r0
 340:	0c3f012e 	ldfeqs	f0, [pc], #-184	; 290 <_start-0x7d70>
 344:	0b3a0e03 	bleq	e83b58 <multiplylookup+0xe7a3a8>
 348:	13490b3b 	movtne	r0, #39739	; 0x9b3b
 34c:	13010c3c 	movwne	r0, #7228	; 0x1c3c
 350:	18210000 	stmdane	r1!, {}	; <UNPREDICTABLE>
 354:	22000000 	andcs	r0, r0, #0
 358:	0c3f012e 	ldfeqs	f0, [pc], #-184	; 2a8 <_start-0x7d58>
 35c:	0b3a0e03 	bleq	e83b70 <multiplylookup+0xe7a3c0>
 360:	0c270b3b 	stceq	11, cr0, [r7], #-236	; 0xffffff14
 364:	00000c3c 	andeq	r0, r0, ip, lsr ip
 368:	00110100 	andseq	r0, r1, r0, lsl #2
 36c:	01110610 	tsteq	r1, r0, lsl r6
 370:	08030112 	stmdaeq	r3, {r1, r4, r8}
 374:	0825081b 	stmdaeq	r5!, {r0, r1, r3, r4, fp}
 378:	00000513 	andeq	r0, r0, r3, lsl r5
 37c:	00110100 	andseq	r0, r1, r0, lsl #2
 380:	01110610 	tsteq	r1, r0, lsl r6
 384:	08030112 	stmdaeq	r3, {r1, r4, r8}
 388:	0825081b 	stmdaeq	r5!, {r0, r1, r3, r4, fp}
 38c:	00000513 	andeq	r0, r0, r3, lsl r5
 390:	01110100 	tsteq	r1, r0, lsl #2
 394:	0b130e25 	bleq	4c3c30 <multiplylookup+0x4ba480>
 398:	0e1b0e03 	cdpeq	14, 1, cr0, cr11, cr3, {0}
 39c:	01110655 	tsteq	r1, r5, asr r6
 3a0:	06100152 			; <UNDEFINED> instruction: 0x06100152
 3a4:	00064299 	muleq	r6, r9, r2
 3a8:	012e0200 	teqeq	lr, r0, lsl #4
 3ac:	0e030c3f 	mcreq	12, 0, r0, cr3, cr15, {1}
 3b0:	0b3b0b3a 	bleq	ec30a0 <multiplylookup+0xeb98f0>
 3b4:	13490c27 	movtne	r0, #39975	; 0x9c27
 3b8:	13010b20 	movwne	r0, #6944	; 0x1b20
 3bc:	05030000 	streq	r0, [r3, #-0]
 3c0:	3a080300 	bcc	200fc8 <multiplylookup+0x1f7818>
 3c4:	490b3b0b 	stmdbmi	fp, {r0, r1, r3, r8, r9, fp, ip, sp}
 3c8:	04000013 	streq	r0, [r0], #-19
 3cc:	08030034 	stmdaeq	r3, {r2, r4, r5}
 3d0:	0b3b0b3a 	bleq	ec30c0 <multiplylookup+0xeb9910>
 3d4:	00001349 	andeq	r1, r0, r9, asr #6
 3d8:	0b002405 	bleq	93f4 <font+0x444>
 3dc:	030b3e0b 	movweq	r3, #48651	; 0xbe0b
 3e0:	06000008 	streq	r0, [r0], -r8
 3e4:	0b0b000f 	bleq	2c0428 <multiplylookup+0x2b6c78>
 3e8:	00001349 	andeq	r1, r0, r9, asr #6
 3ec:	49002607 	stmdbmi	r0, {r0, r1, r2, r9, sl, sp}
 3f0:	08000013 	stmdaeq	r0, {r0, r1, r4}
 3f4:	0b0b0024 	bleq	2c048c <multiplylookup+0x2b6cdc>
 3f8:	0e030b3e 	vmoveq.16	d3[0], r0
 3fc:	2e090000 	cdpcs	0, 0, cr0, cr9, cr0, {0}
 400:	11133101 	tstne	r3, r1, lsl #2
 404:	40011201 	andmi	r1, r1, r1, lsl #4
 408:	0c42970a 	mcrreq	7, 0, r9, r2, cr10
 40c:	00001301 	andeq	r1, r0, r1, lsl #6
 410:	3100050a 	tstcc	r0, sl, lsl #10
 414:	00060213 	andeq	r0, r6, r3, lsl r2
 418:	00340b00 	eorseq	r0, r4, r0, lsl #22
 41c:	0a021331 	beq	850e8 <multiplylookup+0x7b938>
 420:	2e0c0000 	cdpcs	0, 0, cr0, cr12, cr0, {0}
 424:	030c3f01 	movweq	r3, #52993	; 0xcf01
 428:	3b0b3a0e 	blcc	2cec68 <multiplylookup+0x2c54b8>
 42c:	490c270b 	stmdbmi	ip, {r0, r1, r3, r8, r9, sl, sp}
 430:	12011113 	andne	r1, r1, #-1073741820	; 0xc0000004
 434:	97064001 	strls	r4, [r6, -r1]
 438:	13010c42 	movwne	r0, #7234	; 0x1c42
 43c:	050d0000 	streq	r0, [sp, #-0]
 440:	3a0e0300 	bcc	381048 <multiplylookup+0x377898>
 444:	490b3b0b 	stmdbmi	fp, {r0, r1, r3, r8, r9, fp, ip, sp}
 448:	00060213 	andeq	r0, r6, r3, lsl r2
 44c:	00050e00 	andeq	r0, r5, r0, lsl #28
 450:	0b3a0803 	bleq	e82464 <multiplylookup+0xe78cb4>
 454:	13490b3b 	movtne	r0, #39739	; 0x9b3b
 458:	00000602 	andeq	r0, r0, r2, lsl #12
 45c:	0300340f 	movweq	r3, #1039	; 0x40f
 460:	3b0b3a08 	blcc	2cec88 <multiplylookup+0x2c54d8>
 464:	0213490b 	andseq	r4, r3, #180224	; 0x2c000
 468:	1000000a 	andne	r0, r0, sl
 46c:	08030034 	stmdaeq	r3, {r2, r4, r5}
 470:	0b3b0b3a 	bleq	ec3160 <multiplylookup+0xeb99b0>
 474:	06021349 	streq	r1, [r2], -r9, asr #6
 478:	1d110000 	ldcne	0, cr0, [r1, #-0]
 47c:	11133101 	tstne	r3, r1, lsl #2
 480:	58011201 	stmdapl	r1, {r0, r9, ip}
 484:	010b590b 	tsteq	fp, fp, lsl #18
 488:	12000013 	andne	r0, r0, #19
 48c:	0111010b 	tsteq	r1, fp, lsl #2
 490:	00000112 	andeq	r0, r0, r2, lsl r1
 494:	31003413 	tstcc	r0, r3, lsl r4
 498:	00060213 	andeq	r0, r6, r3, lsl r2
 49c:	00341400 	eorseq	r1, r4, r0, lsl #8
 4a0:	00001331 	andeq	r1, r0, r1, lsr r3
 4a4:	01828915 	orreq	r8, r2, r5, lsl r9
 4a8:	31011101 	tstcc	r1, r1, lsl #2
 4ac:	00130113 	andseq	r0, r3, r3, lsl r1
 4b0:	828a1600 	addhi	r1, sl, #0, 12
 4b4:	0a020001 	beq	804c0 <multiplylookup+0x76d10>
 4b8:	000a4291 	muleq	sl, r1, r2
 4bc:	82891700 	addhi	r1, r9, #0, 14
 4c0:	01110001 	tsteq	r1, r1
 4c4:	00001331 	andeq	r1, r0, r1, lsr r3
 4c8:	49010118 	stmdbmi	r1, {r3, r4, r8}
 4cc:	00130113 	andseq	r0, r3, r3, lsl r1
 4d0:	00211900 	eoreq	r1, r1, r0, lsl #18
 4d4:	0b2f1349 	bleq	bc5200 <multiplylookup+0xbbba50>
 4d8:	2e1a0000 	cdpcs	0, 1, cr0, cr10, cr0, {0}
 4dc:	030c3f01 	movweq	r3, #52993	; 0xcf01
 4e0:	3b0b3a0e 	blcc	2ced20 <multiplylookup+0x2c5570>
 4e4:	3c0c270b 	stccc	7, cr2, [ip], {11}
 4e8:	0013010c 	andseq	r0, r3, ip, lsl #2
 4ec:	00051b00 	andeq	r1, r5, r0, lsl #22
 4f0:	00001349 	andeq	r1, r0, r9, asr #6
 4f4:	3f012e1c 	svccc	0x00012e1c
 4f8:	3a0e030c 	bcc	381130 <multiplylookup+0x377980>
 4fc:	270b3b0b 	strcs	r3, [fp, -fp, lsl #22]
 500:	000c3c0c 	andeq	r3, ip, ip, lsl #24
 504:	11010000 	mrsne	r0, (UNDEF: 1)
 508:	130e2501 	movwne	r2, #58625	; 0xe501
 50c:	1b0e030b 	blne	381140 <multiplylookup+0x377990>
 510:	1106550e 	tstne	r6, lr, lsl #10
 514:	10015201 	andne	r5, r1, r1, lsl #4
 518:	06429906 	strbeq	r9, [r2], -r6, lsl #18
 51c:	2e020000 	cdpcs	0, 0, cr0, cr2, cr0, {0}
 520:	030c3f01 	movweq	r3, #52993	; 0xcf01
 524:	3b0b3a0e 	blcc	2ced64 <multiplylookup+0x2c55b4>
 528:	200c270b 	andcs	r2, ip, fp, lsl #14
 52c:	0013010b 	andseq	r0, r3, fp, lsl #2
 530:	00050300 	andeq	r0, r5, r0, lsl #6
 534:	0b3a0803 	bleq	e82548 <multiplylookup+0xe78d98>
 538:	13490b3b 	movtne	r0, #39739	; 0x9b3b
 53c:	05040000 	streq	r0, [r4, #-0]
 540:	3a0e0300 	bcc	381148 <multiplylookup+0x377998>
 544:	490b3b0b 	stmdbmi	fp, {r0, r1, r3, r8, r9, fp, ip, sp}
 548:	05000013 	streq	r0, [r0, #-19]
 54c:	0000010b 	andeq	r0, r0, fp, lsl #2
 550:	03003406 	movweq	r3, #1030	; 0x406
 554:	3b0b3a0e 	blcc	2ced94 <multiplylookup+0x2c55e4>
 558:	0013490b 	andseq	r4, r3, fp, lsl #18
 55c:	00240700 	eoreq	r0, r4, r0, lsl #14
 560:	0b3e0b0b 	bleq	f83194 <multiplylookup+0xf799e4>
 564:	00000803 	andeq	r0, r0, r3, lsl #16
 568:	3f012e08 	svccc	0x00012e08
 56c:	3a08030c 	bcc	2011a4 <multiplylookup+0x1f79f4>
 570:	270b3b0b 	strcs	r3, [fp, -fp, lsl #22]
 574:	2013490c 	andscs	r4, r3, ip, lsl #18
 578:	0013010b 	andseq	r0, r3, fp, lsl #2
 57c:	012e0900 	teqeq	lr, r0, lsl #18
 580:	0b3a0803 	bleq	e82594 <multiplylookup+0xe78de4>
 584:	0c270b3b 	stceq	11, cr0, [r7], #-236	; 0xffffff14
 588:	0b201349 	bleq	8052b4 <multiplylookup+0x7fbb04>
 58c:	00001301 	andeq	r1, r0, r1, lsl #6
 590:	0300340a 	movweq	r3, #1034	; 0x40a
 594:	3b0b3a08 	blcc	2cedbc <multiplylookup+0x2c560c>
 598:	0013490b 	andseq	r4, r3, fp, lsl #18
 59c:	00240b00 	eoreq	r0, r4, r0, lsl #22
 5a0:	0b3e0b0b 	bleq	f831d4 <multiplylookup+0xf79a24>
 5a4:	00000e03 	andeq	r0, r0, r3, lsl #28
 5a8:	31012e0c 	tstcc	r1, ip, lsl #28
 5ac:	12011113 	andne	r1, r1, #-1073741820	; 0xc0000004
 5b0:	970a4001 	strls	r4, [sl, -r1]
 5b4:	13010c42 	movwne	r0, #7234	; 0x1c42
 5b8:	050d0000 	streq	r0, [sp, #-0]
 5bc:	02133100 	andseq	r3, r3, #0, 2
 5c0:	0e000006 	cdpeq	0, 0, cr0, cr0, cr6, {0}
 5c4:	0c3f012e 	ldfeqs	f0, [pc], #-184	; 514 <_start-0x7aec>
 5c8:	0b3a0e03 	bleq	e83ddc <multiplylookup+0xe7a62c>
 5cc:	0c270b3b 	stceq	11, cr0, [r7], #-236	; 0xffffff14
 5d0:	01120111 	tsteq	r2, r1, lsl r1
 5d4:	42970640 	addsmi	r0, r7, #64, 12	; 0x4000000
 5d8:	0013010c 	andseq	r0, r3, ip, lsl #2
 5dc:	00050f00 	andeq	r0, r5, r0, lsl #30
 5e0:	0b3a0e03 	bleq	e83df4 <multiplylookup+0xe7a644>
 5e4:	13490b3b 	movtne	r0, #39739	; 0x9b3b
 5e8:	00000602 	andeq	r0, r0, r2, lsl #12
 5ec:	03003410 	movweq	r3, #1040	; 0x410
 5f0:	3b0b3a08 	blcc	2cee18 <multiplylookup+0x2c5668>
 5f4:	0213490b 	andseq	r4, r3, #180224	; 0x2c000
 5f8:	11000006 	tstne	r0, r6
 5fc:	0e030034 	mcreq	0, 0, r0, cr3, cr4, {1}
 600:	0b3b0b3a 	bleq	ec32f0 <multiplylookup+0xeb9b40>
 604:	06021349 	streq	r1, [r2], -r9, asr #6
 608:	89120000 	ldmdbhi	r2, {}	; <UNPREDICTABLE>
 60c:	11010182 	smlabbne	r1, r2, r1, r0
 610:	01133101 	tsteq	r3, r1, lsl #2
 614:	13000013 	movwne	r0, #19
 618:	0001828a 	andeq	r8, r1, sl, lsl #5
 61c:	42910a02 	addsmi	r0, r1, #8192	; 0x2000
 620:	1400000a 	strne	r0, [r0], #-10
 624:	01018289 	smlabbeq	r1, r9, r2, r8
 628:	13310111 	teqne	r1, #1073741828	; 0x40000004
 62c:	2e150000 	cdpcs	0, 1, cr0, cr5, cr0, {0}
 630:	11133101 	tstne	r3, r1, lsl #2
 634:	40011201 	andmi	r1, r1, r1, lsl #4
 638:	0c429706 	mcrreq	7, 0, r9, r2, cr6
 63c:	00001301 	andeq	r1, r0, r1, lsl #6
 640:	31011d16 	tstcc	r1, r6, lsl sp
 644:	12011113 	andne	r1, r1, #-1073741820	; 0xc0000004
 648:	590b5801 	stmdbpl	fp, {r0, fp, ip, lr}
 64c:	1700000b 	strne	r0, [r0, -fp]
 650:	0111010b 	tsteq	r1, fp, lsl #2
 654:	00000112 	andeq	r0, r0, r2, lsl r1
 658:	31003418 	tstcc	r0, r8, lsl r4
 65c:	00060213 	andeq	r0, r6, r3, lsl r2
 660:	00051900 	andeq	r1, r5, r0, lsl #18
 664:	0b3a0803 	bleq	e82678 <multiplylookup+0xe78ec8>
 668:	13490b3b 	movtne	r0, #39739	; 0x9b3b
 66c:	00000602 	andeq	r0, r0, r2, lsl #12
 670:	0300051a 	movweq	r0, #1306	; 0x51a
 674:	3b0b3a0e 	blcc	2ceeb4 <multiplylookup+0x2c5704>
 678:	0213490b 	andseq	r4, r3, #180224	; 0x2c000
 67c:	1b00000a 	blne	6ac <_start-0x7954>
 680:	1331011d 	teqne	r1, #1073741831	; 0x40000007
 684:	06550152 			; <UNDEFINED> instruction: 0x06550152
 688:	0b590b58 	bleq	16433f0 <multiplylookup+0x1639c40>
 68c:	051c0000 	ldreq	r0, [ip, #-0]
 690:	00133100 	andseq	r3, r3, r0, lsl #2
 694:	00051d00 	andeq	r1, r5, r0, lsl #26
 698:	0a021331 	beq	85364 <multiplylookup+0x7bbb4>
 69c:	0b1e0000 	bleq	7806a4 <multiplylookup+0x776ef4>
 6a0:	00065501 	andeq	r5, r6, r1, lsl #10
 6a4:	010b1f00 	tsteq	fp, r0, lsl #30
 6a8:	13010655 	movwne	r0, #5717	; 0x1655
 6ac:	05200000 	streq	r0, [r0, #-0]!
 6b0:	1c133100 	ldfnes	f3, [r3], {-0}
 6b4:	2100000b 	tstcs	r0, fp
 6b8:	00018289 	andeq	r8, r1, r9, lsl #5
 6bc:	13310111 	teqne	r1, #1073741828	; 0x40000004
 6c0:	0f220000 	svceq	0x00220000
 6c4:	490b0b00 	stmdbmi	fp, {r8, r9, fp}
 6c8:	23000013 	movwcs	r0, #19
 6cc:	0e030034 	mcreq	0, 0, r0, cr3, cr4, {1}
 6d0:	0b3b0b3a 	bleq	ec33c0 <multiplylookup+0xeb9c10>
 6d4:	0a021349 	beq	85400 <multiplylookup+0x7bc50>
 6d8:	34240000 	strtcc	r0, [r4], #-0
 6dc:	3a080300 	bcc	2012e4 <multiplylookup+0x1f7b34>
 6e0:	490b3b0b 	stmdbmi	fp, {r0, r1, r3, r8, r9, fp, ip, sp}
 6e4:	000a0213 	andeq	r0, sl, r3, lsl r2
 6e8:	00342500 	eorseq	r2, r4, r0, lsl #10
 6ec:	0b3a0803 	bleq	e82700 <multiplylookup+0xe78f50>
 6f0:	13490b3b 	movtne	r0, #39739	; 0x9b3b
 6f4:	00000302 	andeq	r0, r0, r2, lsl #6
 6f8:	3f012e26 	svccc	0x00012e26
 6fc:	3a0e030c 	bcc	381334 <multiplylookup+0x377b84>
 700:	270b3b0b 	strcs	r3, [fp, -fp, lsl #22]
 704:	3c13490c 	ldccc	9, cr4, [r3], {12}
 708:	0013010c 	andseq	r0, r3, ip, lsl #2
 70c:	00052700 	andeq	r2, r5, r0, lsl #14
 710:	00001349 	andeq	r1, r0, r9, asr #6
 714:	3f012e28 	svccc	0x00012e28
 718:	3a0e030c 	bcc	381350 <multiplylookup+0x377ba0>
 71c:	270b3b0b 	strcs	r3, [fp, -fp, lsl #22]
 720:	010c3c0c 	tsteq	ip, ip, lsl #24
 724:	29000013 	stmdbcs	r0, {r0, r1, r4}
 728:	0c3f012e 	ldfeqs	f0, [pc], #-184	; 678 <_start-0x7988>
 72c:	0b3a0e03 	bleq	e83f40 <multiplylookup+0xe7a790>
 730:	0c270b3b 	stceq	11, cr0, [r7], #-236	; 0xffffff14
 734:	00000c3c 	andeq	r0, r0, ip, lsr ip
	...

Disassembly of section .debug_aranges:

00000000 <.debug_aranges>:
   0:	0000001c 	andeq	r0, r0, ip, lsl r0
   4:	00000002 	andeq	r0, r0, r2
   8:	00040000 	andeq	r0, r4, r0
   c:	00000000 	andeq	r0, r0, r0
  10:	00008000 	andeq	r8, r0, r0
  14:	000000a0 	andeq	r0, r0, r0, lsr #1
	...
  20:	0000006c 	andeq	r0, r0, ip, rrx
  24:	00580002 	subseq	r0, r8, r2
  28:	00040000 	andeq	r0, r4, r0
  2c:	00000000 	andeq	r0, r0, r0
  30:	000080a0 	andeq	r8, r0, r0, lsr #1
  34:	00000018 	andeq	r0, r0, r8, lsl r0
  38:	000080b8 	strheq	r8, [r0], -r8	; <UNPREDICTABLE>
  3c:	00000030 	andeq	r0, r0, r0, lsr r0
  40:	000080e8 	andeq	r8, r0, r8, ror #1
  44:	0000001c 	andeq	r0, r0, ip, lsl r0
  48:	00008104 	andeq	r8, r0, r4, lsl #2
  4c:	0000004c 	andeq	r0, r0, ip, asr #32
  50:	00008150 	andeq	r8, r0, r0, asr r1
  54:	00000034 	andeq	r0, r0, r4, lsr r0
  58:	00008184 	andeq	r8, r0, r4, lsl #3
  5c:	00000020 	andeq	r0, r0, r0, lsr #32
  60:	000081a4 	andeq	r8, r0, r4, lsr #3
  64:	00000074 	andeq	r0, r0, r4, ror r0
  68:	00008218 	andeq	r8, r0, r8, lsl r2
  6c:	000000ac 	andeq	r0, r0, ip, lsr #1
  70:	000082c4 	andeq	r8, r0, r4, asr #5
  74:	00000110 	andeq	r0, r0, r0, lsl r1
  78:	000083d4 	ldrdeq	r8, [r0], -r4
  7c:	00000030 	andeq	r0, r0, r0, lsr r0
  80:	00008404 	andeq	r8, r0, r4, lsl #8
  84:	00000018 	andeq	r0, r0, r8, lsl r0
	...
  90:	0000002c 	andeq	r0, r0, ip, lsr #32
  94:	075e0002 	ldrbeq	r0, [lr, -r2]
  98:	00040000 	andeq	r0, r4, r0
  9c:	00000000 	andeq	r0, r0, r0
  a0:	0000841c 	andeq	r8, r0, ip, lsl r4
  a4:	0000003c 	andeq	r0, r0, ip, lsr r0
  a8:	00008458 	andeq	r8, r0, r8, asr r4
  ac:	0000003c 	andeq	r0, r0, ip, lsr r0
  b0:	00008494 	muleq	r0, r4, r4
  b4:	000001d4 	ldrdeq	r0, [r0], -r4
	...
  c0:	0000001c 	andeq	r0, r0, ip, lsl r0
  c4:	0d760002 	ldcleq	0, cr0, [r6, #-8]!
  c8:	00040000 	andeq	r0, r4, r0
  cc:	00000000 	andeq	r0, r0, r0
  d0:	00008668 	andeq	r8, r0, r8, ror #12
  d4:	00000108 	andeq	r0, r0, r8, lsl #2
	...
  e0:	0000001c 	andeq	r0, r0, ip, lsl r0
  e4:	0dd00002 	ldcleq	0, cr0, [r0, #8]
  e8:	00040000 	andeq	r0, r4, r0
  ec:	00000000 	andeq	r0, r0, r0
  f0:	00008770 	andeq	r8, r0, r0, ror r7
  f4:	00000040 	andeq	r0, r0, r0, asr #32
	...
 100:	00000024 	andeq	r0, r0, r4, lsr #32
 104:	0e260002 	cdpeq	0, 2, cr0, cr6, cr2, {0}
 108:	00040000 	andeq	r0, r4, r0
 10c:	00000000 	andeq	r0, r0, r0
 110:	000087b0 			; <UNDEFINED> instruction: 0x000087b0
 114:	00000030 	andeq	r0, r0, r0, lsr r0
 118:	000087e0 	andeq	r8, r0, r0, ror #15
 11c:	00000154 	andeq	r0, r0, r4, asr r1
	...
 128:	00000054 	andeq	r0, r0, r4, asr r0
 12c:	10a10002 	adcne	r0, r1, r2
 130:	00040000 	andeq	r0, r4, r0
 134:	00000000 	andeq	r0, r0, r0
 138:	00008934 	andeq	r8, r0, r4, lsr r9
 13c:	0000000c 	andeq	r0, r0, ip
 140:	00008940 	andeq	r8, r0, r0, asr #18
 144:	0000004c 	andeq	r0, r0, ip, asr #32
 148:	0000898c 	andeq	r8, r0, ip, lsl #19
 14c:	00000048 	andeq	r0, r0, r8, asr #32
 150:	000089d4 	ldrdeq	r8, [r0], -r4
 154:	0000014c 	andeq	r0, r0, ip, asr #2
 158:	00008b20 	andeq	r8, r0, r0, lsr #22
 15c:	000000b0 	strheq	r0, [r0], -r0	; <UNPREDICTABLE>
 160:	00008bd0 	ldrdeq	r8, [r0], -r0
 164:	000000a0 	andeq	r0, r0, r0, lsr #1
 168:	00008c70 	andeq	r8, r0, r0, ror ip
 16c:	00000054 	andeq	r0, r0, r4, asr r0
 170:	00008cc4 	andeq	r8, r0, r4, asr #25
 174:	000002b0 			; <UNDEFINED> instruction: 0x000002b0
	...

Disassembly of section .debug_loc:

00000000 <.debug_loc>:
       0:	000080a0 	andeq	r8, r0, r0, lsr #1
       4:	000080a4 	andeq	r8, r0, r4, lsr #1
       8:	007d0002 	rsbseq	r0, sp, r2
       c:	000080a4 	andeq	r8, r0, r4, lsr #1
      10:	000080b8 	strheq	r8, [r0], -r8	; <UNPREDICTABLE>
      14:	087d0002 	ldmdaeq	sp!, {r1}^
	...
      20:	000080b8 	strheq	r8, [r0], -r8	; <UNPREDICTABLE>
      24:	000080bc 	strheq	r8, [r0], -ip
      28:	007d0002 	rsbseq	r0, sp, r2
      2c:	000080bc 	strheq	r8, [r0], -ip
      30:	000080e8 	andeq	r8, r0, r8, ror #1
      34:	087d0002 	ldmdaeq	sp!, {r1}^
	...
      40:	000080e8 	andeq	r8, r0, r8, ror #1
      44:	000080ec 	andeq	r8, r0, ip, ror #1
      48:	007d0002 	rsbseq	r0, sp, r2
      4c:	000080ec 	andeq	r8, r0, ip, ror #1
      50:	00008104 	andeq	r8, r0, r4, lsl #2
      54:	087d0002 	ldmdaeq	sp!, {r1}^
	...
      60:	00008104 	andeq	r8, r0, r4, lsl #2
      64:	00008108 	andeq	r8, r0, r8, lsl #2
      68:	007d0002 	rsbseq	r0, sp, r2
      6c:	00008108 	andeq	r8, r0, r8, lsl #2
      70:	00008150 	andeq	r8, r0, r0, asr r1
      74:	107d0002 	rsbsne	r0, sp, r2
	...
      80:	00008104 	andeq	r8, r0, r4, lsl #2
      84:	00008118 	andeq	r8, r0, r8, lsl r1
      88:	18500001 	ldmdane	r0, {r0}^
      8c:	50000081 	andpl	r0, r0, r1, lsl #1
      90:	04000081 	streq	r0, [r0], #-129	; 0x81
      94:	5001f300 	andpl	pc, r1, r0, lsl #6
      98:	0000009f 	muleq	r0, pc, r0	; <UNPREDICTABLE>
      9c:	00000000 	andeq	r0, r0, r0
      a0:	00810400 	addeq	r0, r1, r0, lsl #8
      a4:	00811800 	addeq	r1, r1, r0, lsl #16
      a8:	30000200 	andcc	r0, r0, r0, lsl #4
      ac:	0000009f 	muleq	r0, pc, r0	; <UNPREDICTABLE>
      b0:	00000000 	andeq	r0, r0, r0
      b4:	00815000 	addeq	r5, r1, r0
      b8:	00815400 	addeq	r5, r1, r0, lsl #8
      bc:	7d000200 	sfmvc	f0, 4, [r0, #-0]
      c0:	00815400 	addeq	r5, r1, r0, lsl #8
      c4:	00818400 	addeq	r8, r1, r0, lsl #8
      c8:	7d000200 	sfmvc	f0, 4, [r0, #-0]
      cc:	00000008 	andeq	r0, r0, r8
      d0:	00000000 	andeq	r0, r0, r0
      d4:	00815000 	addeq	r5, r1, r0
      d8:	00815800 	addeq	r5, r1, r0, lsl #16
      dc:	50000100 	andpl	r0, r0, r0, lsl #2
      e0:	00008158 	andeq	r8, r0, r8, asr r1
      e4:	00008184 	andeq	r8, r0, r4, lsl #3
      e8:	00540001 	subseq	r0, r4, r1
      ec:	00000000 	andeq	r0, r0, r0
      f0:	84000000 	strhi	r0, [r0], #-0
      f4:	88000081 	stmdahi	r0, {r0, r7}
      f8:	02000081 	andeq	r0, r0, #129	; 0x81
      fc:	88007d00 	stmdahi	r0, {r8, sl, fp, ip, sp, lr}
     100:	a4000081 	strge	r0, [r0], #-129	; 0x81
     104:	02000081 	andeq	r0, r0, #129	; 0x81
     108:	00087d00 	andeq	r7, r8, r0, lsl #26
     10c:	00000000 	andeq	r0, r0, r0
     110:	a4000000 	strge	r0, [r0], #-0
     114:	a8000081 	stmdage	r0, {r0, r7}
     118:	02000081 	andeq	r0, r0, #129	; 0x81
     11c:	a8007d00 	stmdage	r0, {r8, sl, fp, ip, sp, lr}
     120:	18000081 	stmdane	r0, {r0, r7}
     124:	02000082 	andeq	r0, r0, #130	; 0x82
     128:	00107d00 	andseq	r7, r0, r0, lsl #26
     12c:	00000000 	andeq	r0, r0, r0
     130:	a4000000 	strge	r0, [r0], #-0
     134:	b0000081 	andlt	r0, r0, r1, lsl #1
     138:	01000081 	smlabbeq	r0, r1, r0, r0
     13c:	81b05000 	movshi	r5, r0
     140:	82180000 	andshi	r0, r8, #0
     144:	00010000 	andeq	r0, r1, r0
     148:	00000056 	andeq	r0, r0, r6, asr r0
     14c:	00000000 	andeq	r0, r0, r0
     150:	0081a400 	addeq	sl, r1, r0, lsl #8
     154:	0081b000 	addeq	fp, r1, r0
     158:	08000300 	stmdaeq	r0, {r8, r9}
     15c:	81b09f20 	lsrshi	r9, r0, #30
     160:	82180000 	andshi	r0, r8, #0
     164:	00010000 	andeq	r0, r1, r0
     168:	00000054 	andeq	r0, r0, r4, asr r0
     16c:	00000000 	andeq	r0, r0, r0
     170:	0081bc00 	addeq	fp, r1, r0, lsl #24
     174:	0081c400 	addeq	ip, r1, r0, lsl #8
     178:	51000100 	mrspl	r0, (UNDEF: 16)
     17c:	000081c4 	andeq	r8, r0, r4, asr #3
     180:	00008218 	andeq	r8, r0, r8, lsl r2
     184:	00550001 	subseq	r0, r5, r1
     188:	00000000 	andeq	r0, r0, r0
     18c:	18000000 	stmdane	r0, {}	; <UNPREDICTABLE>
     190:	1c000082 	stcne	0, cr0, [r0], {130}	; 0x82
     194:	02000082 	andeq	r0, r0, #130	; 0x82
     198:	1c007d00 	stcne	13, cr7, [r0], {-0}
     19c:	c4000082 	strgt	r0, [r0], #-130	; 0x82
     1a0:	02000082 	andeq	r0, r0, #130	; 0x82
     1a4:	00107d00 	andseq	r7, r0, r0, lsl #26
     1a8:	00000000 	andeq	r0, r0, r0
     1ac:	18000000 	stmdane	r0, {}	; <UNPREDICTABLE>
     1b0:	24000082 	strcs	r0, [r0], #-130	; 0x82
     1b4:	01000082 	smlabbeq	r0, r2, r0, r0
     1b8:	82245000 	eorhi	r5, r4, #0
     1bc:	82c40000 	sbchi	r0, r4, #0
     1c0:	00010000 	andeq	r0, r1, r0
     1c4:	00000056 	andeq	r0, r0, r6, asr r0
     1c8:	00000000 	andeq	r0, r0, r0
     1cc:	00822000 	addeq	r2, r2, r0
     1d0:	00822400 	addeq	r2, r2, r0, lsl #8
     1d4:	50000100 	andpl	r0, r0, r0, lsl #2
     1d8:	00008224 	andeq	r8, r0, r4, lsr #4
     1dc:	000082c4 	andeq	r8, r0, r4, asr #5
     1e0:	00560001 	subseq	r0, r6, r1
     1e4:	00000000 	andeq	r0, r0, r0
     1e8:	30000000 	andcc	r0, r0, r0
     1ec:	38000082 	stmdacc	r0, {r1, r7}
     1f0:	01000082 	smlabbeq	r0, r2, r0, r0
     1f4:	82385100 	eorshi	r5, r8, #0, 2
     1f8:	82c40000 	sbchi	r0, r4, #0
     1fc:	00010000 	andeq	r0, r1, r0
     200:	00000055 	andeq	r0, r0, r5, asr r0
     204:	00000000 	andeq	r0, r0, r0
     208:	0082c400 	addeq	ip, r2, r0, lsl #8
     20c:	0082c800 	addeq	ip, r2, r0, lsl #16
     210:	7d000200 	sfmvc	f0, 4, [r0, #-0]
     214:	0082c800 	addeq	ip, r2, r0, lsl #16
     218:	0083d400 	addeq	sp, r3, r0, lsl #8
     21c:	7d000200 	sfmvc	f0, 4, [r0, #-0]
     220:	00000008 	andeq	r0, r0, r8
     224:	00000000 	andeq	r0, r0, r0
     228:	00833000 	addeq	r3, r3, r0
     22c:	00833400 	addeq	r3, r3, r0, lsl #8
     230:	70000b00 	andvc	r0, r0, r0, lsl #22
     234:	8fff0b00 	svchi	0x00ff0b00
     238:	20000a1a 	andcs	r0, r0, sl, lsl sl
     23c:	83349f21 	teqhi	r4, #33, 30	; 0x84
     240:	83380000 	teqhi	r8, #0
     244:	00070000 	andeq	r0, r7, r0
     248:	3c420071 	mcrrcc	0, 7, r0, r2, cr1
     24c:	389f2124 	ldmcc	pc, {r2, r5, r8, sp}	; <UNPREDICTABLE>
     250:	3f000083 	svccc	0x00000083
     254:	01000083 	smlabbeq	r0, r3, r0, r0
     258:	834c5100 	movthi	r5, #49408	; 0xc100
     25c:	83500000 	cmphi	r0, #0
     260:	00020000 	andeq	r0, r2, r0
     264:	835c9f30 	cmphi	ip, #48, 30	; 0xc0
     268:	83700000 	cmnhi	r0, #0
     26c:	00010000 	andeq	r0, r1, r0
     270:	00837054 	addeq	r7, r3, r4, asr r0
     274:	00837400 	addeq	r7, r3, r0, lsl #8
     278:	30000200 	andcc	r0, r0, r0, lsl #4
     27c:	0083809f 	umulleq	r8, r3, pc, r0	; <UNPREDICTABLE>
     280:	0083d400 	addeq	sp, r3, r0, lsl #8
     284:	54000100 	strpl	r0, [r0], #-256	; 0x100
	...
     290:	000083d4 	ldrdeq	r8, [r0], -r4
     294:	000083d8 	ldrdeq	r8, [r0], -r8	; <UNPREDICTABLE>
     298:	007d0002 	rsbseq	r0, sp, r2
     29c:	000083d8 	ldrdeq	r8, [r0], -r8	; <UNPREDICTABLE>
     2a0:	00008404 	andeq	r8, r0, r4, lsl #8
     2a4:	087d0002 	ldmdaeq	sp!, {r1}^
	...
     2b0:	00008404 	andeq	r8, r0, r4, lsl #8
     2b4:	00008408 	andeq	r8, r0, r8, lsl #8
     2b8:	007d0002 	rsbseq	r0, sp, r2
     2bc:	00008408 	andeq	r8, r0, r8, lsl #8
     2c0:	0000841c 	andeq	r8, r0, ip, lsl r4
     2c4:	087d0002 	ldmdaeq	sp!, {r1}^
	...
     2d0:	0000841c 	andeq	r8, r0, ip, lsl r4
     2d4:	00008420 	andeq	r8, r0, r0, lsr #8
     2d8:	007d0002 	rsbseq	r0, sp, r2
     2dc:	00008420 	andeq	r8, r0, r0, lsr #8
     2e0:	00008458 	andeq	r8, r0, r8, asr r4
     2e4:	107d0002 	rsbsne	r0, sp, r2
	...
     2f0:	0000841c 	andeq	r8, r0, ip, lsl r4
     2f4:	00008428 	andeq	r8, r0, r8, lsr #8
     2f8:	28500001 	ldmdacs	r0, {r0}^
     2fc:	58000084 	stmdapl	r0, {r2, r7}
     300:	01000084 	smlabbeq	r0, r4, r0, r0
     304:	00005400 	andeq	r5, r0, r0, lsl #8
     308:	00000000 	andeq	r0, r0, r0
     30c:	841c0000 	ldrhi	r0, [ip], #-0
     310:	84280000 	strthi	r0, [r8], #-0
     314:	00010000 	andeq	r0, r1, r0
     318:	00842851 	addeq	r2, r4, r1, asr r8
     31c:	00845800 	addeq	r5, r4, r0, lsl #16
     320:	55000100 	strpl	r0, [r0, #-256]	; 0x100
	...
     32c:	00008458 	andeq	r8, r0, r8, asr r4
     330:	0000845c 	andeq	r8, r0, ip, asr r4
     334:	007d0002 	rsbseq	r0, sp, r2
     338:	0000845c 	andeq	r8, r0, ip, asr r4
     33c:	00008494 	muleq	r0, r4, r4
     340:	087d0002 	ldmdaeq	sp!, {r1}^
	...
     34c:	00008458 	andeq	r8, r0, r8, asr r4
     350:	00008460 	andeq	r8, r0, r0, ror #8
     354:	60500001 	subsvs	r0, r0, r1
     358:	94000084 	strls	r0, [r0], #-132	; 0x84
     35c:	01000084 	smlabbeq	r0, r4, r0, r0
     360:	00005400 	andeq	r5, r0, r0, lsl #8
     364:	00000000 	andeq	r0, r0, r0
     368:	84680000 	strbthi	r0, [r8], #-0
     36c:	84740000 	ldrbthi	r0, [r4], #-0
     370:	00010000 	andeq	r0, r1, r0
     374:	00847850 	addeq	r7, r4, r0, asr r8
     378:	00849400 	addeq	r9, r4, r0, lsl #8
     37c:	50000100 	andpl	r0, r0, r0, lsl #2
	...
     388:	00008494 	muleq	r0, r4, r4
     38c:	00008498 	muleq	r0, r8, r4
     390:	007d0002 	rsbseq	r0, sp, r2
     394:	00008498 	muleq	r0, r8, r4
     398:	0000849c 	muleq	r0, ip, r4
     39c:	087d0002 	ldmdaeq	sp!, {r1}^
     3a0:	0000849c 	muleq	r0, ip, r4
     3a4:	00008668 	andeq	r8, r0, r8, ror #12
     3a8:	187d0002 	ldmdane	sp!, {r1}^
	...
     3b4:	000085dc 	ldrdeq	r8, [r0], -ip
     3b8:	000085e0 	andeq	r8, r0, r0, ror #11
     3bc:	e0500001 	subs	r0, r0, r1
     3c0:	68000085 	stmdavs	r0, {r0, r2, r7}
     3c4:	01000086 	smlabbeq	r0, r6, r0, r0
     3c8:	00005400 	andeq	r5, r0, r0, lsl #8
     3cc:	00000000 	andeq	r0, r0, r0
     3d0:	85400000 	strbhi	r0, [r0, #-0]
     3d4:	854c0000 	strbhi	r0, [ip, #-0]
     3d8:	00010000 	andeq	r0, r1, r0
     3dc:	00855050 	addeq	r5, r5, r0, asr r0
     3e0:	00855400 	addeq	r5, r5, r0, lsl #8
     3e4:	50000100 	andpl	r0, r0, r0, lsl #2
	...
     3f0:	000087b0 			; <UNDEFINED> instruction: 0x000087b0
     3f4:	000087b0 			; <UNDEFINED> instruction: 0x000087b0
     3f8:	b0500001 	subslt	r0, r0, r1
     3fc:	b4000087 	strlt	r0, [r0], #-135	; 0x87
     400:	04000087 	streq	r0, [r0], #-135	; 0x87
     404:	5001f300 	andpl	pc, r1, r0, lsl #6
     408:	0087b49f 	umulleq	fp, r7, pc, r4	; <UNPREDICTABLE>
     40c:	0087cc00 	addeq	ip, r7, r0, lsl #24
     410:	50000100 	andpl	r0, r0, r0, lsl #2
     414:	000087cc 	andeq	r8, r0, ip, asr #15
     418:	000087d0 	ldrdeq	r8, [r0], -r0
     41c:	01f30006 	mvnseq	r0, r6
     420:	9f012350 	svcls	0x00012350
     424:	000087d0 	ldrdeq	r8, [r0], -r0
     428:	000087dc 	ldrdeq	r8, [r0], -ip
     42c:	dc500001 	mrrcle	0, 0, r0, r0, cr1	; <UNPREDICTABLE>
     430:	e0000087 	and	r0, r0, r7, lsl #1
     434:	06000087 	streq	r0, [r0], -r7, lsl #1
     438:	5001f300 	andpl	pc, r1, r0, lsl #6
     43c:	009f0123 	addseq	r0, pc, r3, lsr #2
     440:	00000000 	andeq	r0, r0, r0
     444:	b0000000 	andlt	r0, r0, r0
     448:	b0000087 	andlt	r0, r0, r7, lsl #1
     44c:	01000087 	smlabbeq	r0, r7, r0, r0
     450:	87b05100 	ldrhi	r5, [r0, r0, lsl #2]!
     454:	87b80000 	ldrhi	r0, [r8, r0]!
     458:	00040000 	andeq	r0, r4, r0
     45c:	9f5101f3 	svcls	0x005101f3
     460:	000087b8 			; <UNDEFINED> instruction: 0x000087b8
     464:	000087e0 	andeq	r8, r0, r0, ror #15
     468:	00510001 	subseq	r0, r1, r1
     46c:	00000000 	andeq	r0, r0, r0
     470:	e0000000 	and	r0, r0, r0
     474:	e4000087 	str	r0, [r0], #-135	; 0x87
     478:	02000087 	andeq	r0, r0, #135	; 0x87
     47c:	e4007d00 	str	r7, [r0], #-3328	; 0xd00
     480:	f0000087 			; <UNDEFINED> instruction: 0xf0000087
     484:	02000087 	andeq	r0, r0, #135	; 0x87
     488:	f01c7d00 			; <UNDEFINED> instruction: 0xf01c7d00
     48c:	34000087 	strcc	r0, [r0], #-135	; 0x87
     490:	03000089 	movweq	r0, #137	; 0x89
     494:	01e87d00 	mvneq	r7, r0, lsl #26
	...
     4a0:	000087e0 	andeq	r8, r0, r0, ror #15
     4a4:	00008810 	andeq	r8, r0, r0, lsl r8
     4a8:	10500001 	subsne	r0, r0, r1
     4ac:	14000088 	strne	r0, [r0], #-136	; 0x88
     4b0:	01000089 	smlabbeq	r0, r9, r0, r0
     4b4:	89145800 	ldmdbhi	r4, {fp, ip, lr}
     4b8:	89200000 	stmdbhi	r0!, {}	; <UNPREDICTABLE>
     4bc:	00010000 	andeq	r0, r1, r0
     4c0:	00892050 	addeq	r2, r9, r0, asr r0
     4c4:	00893400 	addeq	r3, r9, r0, lsl #8
     4c8:	58000100 	stmdapl	r0, {r8}
	...
     4d4:	000087e0 	andeq	r8, r0, r0, ror #15
     4d8:	00008837 	andeq	r8, r0, r7, lsr r8
     4dc:	37510001 	ldrbcc	r0, [r1, -r1]
     4e0:	e4000088 	str	r0, [r0], #-136	; 0x88
     4e4:	01000088 	smlabbeq	r0, r8, r0, r0
     4e8:	88e45600 	stmiahi	r4!, {r9, sl, ip, lr}^
     4ec:	88ef0000 	stmiahi	pc!, {}^	; <UNPREDICTABLE>
     4f0:	00010000 	andeq	r0, r1, r0
     4f4:	0088ef51 	addeq	lr, r8, r1, asr pc
     4f8:	00891400 	addeq	r1, r9, r0, lsl #8
     4fc:	56000100 	strpl	r0, [r0], -r0, lsl #2
     500:	00008914 	andeq	r8, r0, r4, lsl r9
     504:	00008934 	andeq	r8, r0, r4, lsr r9
     508:	00510001 	subseq	r0, r1, r1
     50c:	00000000 	andeq	r0, r0, r0
     510:	e0000000 	and	r0, r0, r0
     514:	37000087 	strcc	r0, [r0, -r7, lsl #1]
     518:	01000088 	smlabbeq	r0, r8, r0, r0
     51c:	88375200 	ldmdahi	r7!, {r9, ip, lr}
     520:	88e40000 	stmiahi	r4!, {}^	; <UNPREDICTABLE>
     524:	00010000 	andeq	r0, r1, r0
     528:	0088e455 	addeq	lr, r8, r5, asr r4
     52c:	0088ef00 	addeq	lr, r8, r0, lsl #30
     530:	52000100 	andpl	r0, r0, #0, 2
     534:	000088ef 	andeq	r8, r0, pc, ror #17
     538:	00008914 	andeq	r8, r0, r4, lsl r9
     53c:	14550001 	ldrbne	r0, [r5], #-1
     540:	34000089 	strcc	r0, [r0], #-137	; 0x89
     544:	01000089 	smlabbeq	r0, r9, r0, r0
     548:	00005200 	andeq	r5, r0, r0, lsl #4
     54c:	00000000 	andeq	r0, r0, r0
     550:	87e00000 	strbhi	r0, [r0, r0]!
     554:	88100000 	ldmdahi	r0, {}	; <UNPREDICTABLE>
     558:	00020000 	andeq	r0, r2, r0
     55c:	88109f30 	ldmdahi	r0, {r4, r5, r8, r9, sl, fp, ip, pc}
     560:	88180000 	ldmdahi	r8, {}	; <UNPREDICTABLE>
     564:	00030000 	andeq	r0, r3, r0
     568:	249f7f70 	ldrcs	r7, [pc], #3952	; 570 <_start-0x7a90>
     56c:	2c000088 	stccs	0, cr0, [r0], {136}	; 0x88
     570:	01000088 	smlabbeq	r0, r8, r0, r0
     574:	882c5c00 	stmdahi	ip!, {sl, fp, ip, lr}
     578:	88370000 	ldmdahi	r7!, {}	; <UNPREDICTABLE>
     57c:	00030000 	andeq	r0, r3, r0
     580:	379f7f70 			; <UNDEFINED> instruction: 0x379f7f70
     584:	4c000088 	stcmi	0, cr0, [r0], {136}	; 0x88
     588:	03000088 	movweq	r0, #136	; 0x88
     58c:	9f7e7400 	svcls	0x007e7400
     590:	0000884c 	andeq	r8, r0, ip, asr #16
     594:	000088e4 	andeq	r8, r0, r4, ror #17
     598:	e4540001 	ldrb	r0, [r4], #-1
     59c:	ec000088 	stc	0, cr0, [r0], {136}	; 0x88
     5a0:	03000088 	movweq	r0, #136	; 0x88
     5a4:	9f7f7000 	svcls	0x007f7000
     5a8:	00008908 	andeq	r8, r0, r8, lsl #18
     5ac:	00008914 	andeq	r8, r0, r4, lsl r9
     5b0:	14540001 	ldrbne	r0, [r4], #-1
     5b4:	34000089 	strcc	r0, [r0], #-137	; 0x89
     5b8:	02000089 	andeq	r0, r0, #137	; 0x89
     5bc:	009f3000 	addseq	r3, pc, r0
     5c0:	00000000 	andeq	r0, r0, r0
     5c4:	4c000000 	stcmi	0, cr0, [r0], {-0}
     5c8:	60000088 	andvs	r0, r0, r8, lsl #1
     5cc:	01000088 	smlabbeq	r0, r8, r0, r0
     5d0:	89085400 	stmdbhi	r8, {sl, ip, lr}
     5d4:	89140000 	ldmdbhi	r4, {}	; <UNPREDICTABLE>
     5d8:	00010000 	andeq	r0, r1, r0
     5dc:	00000054 	andeq	r0, r0, r4, asr r0
     5e0:	00000000 	andeq	r0, r0, r0
     5e4:	00889400 	addeq	r9, r8, r0, lsl #8
     5e8:	00889c00 	addeq	r9, r8, r0, lsl #24
     5ec:	03000600 	movweq	r0, #1536	; 0x600
     5f0:	00008f84 	andeq	r8, r0, r4, lsl #31
     5f4:	0000009f 	muleq	r0, pc, r0	; <UNPREDICTABLE>
     5f8:	00000000 	andeq	r0, r0, r0
     5fc:	00889400 	addeq	r9, r8, r0, lsl #8
     600:	00889c00 	addeq	r9, r8, r0, lsl #24
     604:	57000100 	strpl	r0, [r0, -r0, lsl #2]
	...
     610:	000088a4 	andeq	r8, r0, r4, lsr #17
     614:	000088b4 			; <UNDEFINED> instruction: 0x000088b4
     618:	00720002 	rsbseq	r0, r2, r2
     61c:	000088c4 	andeq	r8, r0, r4, asr #17
     620:	000088cb 	andeq	r8, r0, fp, asr #17
     624:	00720002 	rsbseq	r0, r2, r2
	...
     630:	00008934 	andeq	r8, r0, r4, lsr r9
     634:	0000893c 	andeq	r8, r0, ip, lsr r9
     638:	3c500001 	mrrccc	0, 0, r0, r0, cr1	; <UNPREDICTABLE>
     63c:	40000089 	andmi	r0, r0, r9, lsl #1
     640:	04000089 	streq	r0, [r0], #-137	; 0x89
     644:	5001f300 	andpl	pc, r1, r0, lsl #6
     648:	0000009f 	muleq	r0, pc, r0	; <UNPREDICTABLE>
     64c:	00000000 	andeq	r0, r0, r0
     650:	00894000 	addeq	r4, r9, r0
     654:	00894400 	addeq	r4, r9, r0, lsl #8
     658:	7d000200 	sfmvc	f0, 4, [r0, #-0]
     65c:	00894400 	addeq	r4, r9, r0, lsl #8
     660:	00898c00 	addeq	r8, r9, r0, lsl #24
     664:	7d000200 	sfmvc	f0, 4, [r0, #-0]
     668:	00000018 	andeq	r0, r0, r8, lsl r0
     66c:	00000000 	andeq	r0, r0, r0
     670:	00894000 	addeq	r4, r9, r0
     674:	00894c00 	addeq	r4, r9, r0, lsl #24
     678:	50000100 	andpl	r0, r0, r0, lsl #2
     67c:	0000894c 	andeq	r8, r0, ip, asr #18
     680:	0000898c 	andeq	r8, r0, ip, lsl #19
     684:	00560001 	subseq	r0, r6, r1
     688:	00000000 	andeq	r0, r0, r0
     68c:	50000000 	andpl	r0, r0, r0
     690:	54000089 	strpl	r0, [r0], #-137	; 0x89
     694:	02000089 	andeq	r0, r0, #137	; 0x89
     698:	009f3000 	addseq	r3, pc, r0
     69c:	00000000 	andeq	r0, r0, r0
     6a0:	54000000 	strpl	r0, [r0], #-0
     6a4:	5c000089 	stcpl	0, cr0, [r0], {137}	; 0x89
     6a8:	02000089 	andeq	r0, r0, #137	; 0x89
     6ac:	009f3000 	addseq	r3, pc, r0
     6b0:	00000000 	andeq	r0, r0, r0
     6b4:	50000000 	andpl	r0, r0, r0
     6b8:	5c000089 	stcpl	0, cr0, [r0], {137}	; 0x89
     6bc:	01000089 	smlabbeq	r0, r9, r0, r0
     6c0:	895c5000 	ldmdbhi	ip, {ip, lr}^
     6c4:	89680000 	stmdbhi	r8!, {}^	; <UNPREDICTABLE>
     6c8:	00010000 	andeq	r0, r1, r0
     6cc:	00896854 	addeq	r6, r9, r4, asr r8
     6d0:	00896b00 	addeq	r6, r9, r0, lsl #22
     6d4:	50000100 	andpl	r0, r0, r0, lsl #2
     6d8:	0000896b 	andeq	r8, r0, fp, ror #18
     6dc:	0000896c 	andeq	r8, r0, ip, ror #18
     6e0:	7e740003 	cdpvc	0, 7, cr0, cr4, cr3, {0}
     6e4:	00896c9f 	umulleq	r6, r9, pc, ip	; <UNPREDICTABLE>
     6e8:	00897c00 	addeq	r7, r9, r0, lsl #24
     6ec:	54000100 	strpl	r0, [r0], #-256	; 0x100
     6f0:	0000897c 	andeq	r8, r0, ip, ror r9
     6f4:	0000898c 	andeq	r8, r0, ip, lsl #19
     6f8:	00500001 	subseq	r0, r0, r1
     6fc:	00000000 	andeq	r0, r0, r0
     700:	8c000000 	stchi	0, cr0, [r0], {-0}
     704:	98000089 	stmdals	r0, {r0, r3, r7}
     708:	02000089 	andeq	r0, r0, #137	; 0x89
     70c:	98007d00 	stmdals	r0, {r8, sl, fp, ip, sp, lr}
     710:	d4000089 	strle	r0, [r0], #-137	; 0x89
     714:	02000089 	andeq	r0, r0, #137	; 0x89
     718:	00107d00 	andseq	r7, r0, r0, lsl #26
     71c:	00000000 	andeq	r0, r0, r0
     720:	8c000000 	stchi	0, cr0, [r0], {-0}
     724:	ac000089 	stcge	0, cr0, [r0], {137}	; 0x89
     728:	01000089 	smlabbeq	r0, r9, r0, r0
     72c:	89ac5000 	stmibhi	ip!, {ip, lr}
     730:	89b80000 	ldmibhi	r8!, {}	; <UNPREDICTABLE>
     734:	00010000 	andeq	r0, r1, r0
     738:	0089b855 	addeq	fp, r9, r5, asr r8
     73c:	0089d400 	addeq	sp, r9, r0, lsl #8
     740:	f3000400 	vshl.u8	d0, d0, d0
     744:	009f5001 	addseq	r5, pc, r1
     748:	00000000 	andeq	r0, r0, r0
     74c:	8c000000 	stchi	0, cr0, [r0], {-0}
     750:	af000089 	svcge	0x00000089
     754:	01000089 	smlabbeq	r0, r9, r0, r0
     758:	89af5100 	stmibhi	pc!, {r8, ip, lr}	; <UNPREDICTABLE>
     75c:	89b40000 	ldmibhi	r4!, {}	; <UNPREDICTABLE>
     760:	00010000 	andeq	r0, r1, r0
     764:	0089b454 	addeq	fp, r9, r4, asr r4
     768:	0089d400 	addeq	sp, r9, r0, lsl #8
     76c:	f3000400 	vshl.u8	d0, d0, d0
     770:	009f5101 	addseq	r5, pc, r1, lsl #2
     774:	00000000 	andeq	r0, r0, r0
     778:	8c000000 	stchi	0, cr0, [r0], {-0}
     77c:	af000089 	svcge	0x00000089
     780:	01000089 	smlabbeq	r0, r9, r0, r0
     784:	89af5200 	stmibhi	pc!, {r9, ip, lr}	; <UNPREDICTABLE>
     788:	89d40000 	ldmibhi	r4, {}^	; <UNPREDICTABLE>
     78c:	00010000 	andeq	r0, r1, r0
     790:	00000056 	andeq	r0, r0, r6, asr r0
     794:	00000000 	andeq	r0, r0, r0
     798:	0089a800 	addeq	sl, r9, r0, lsl #16
     79c:	0089af00 	addeq	sl, r9, r0, lsl #30
     7a0:	52000100 	andpl	r0, r0, #0, 2
     7a4:	000089af 	andeq	r8, r0, pc, lsr #19
     7a8:	000089b0 			; <UNDEFINED> instruction: 0x000089b0
     7ac:	b0560001 	subslt	r0, r6, r1
     7b0:	c8000089 	stmdagt	r0, {r0, r3, r7}
     7b4:	07000089 	streq	r0, [r0, -r9, lsl #1]
     7b8:	0a007600 	beq	1dfc0 <multiplylookup+0x14810>
     7bc:	9f1affff 	svcls	0x001affff
	...
     7c8:	000089a8 	andeq	r8, r0, r8, lsr #19
     7cc:	000089af 	andeq	r8, r0, pc, lsr #19
     7d0:	af510001 	svcge	0x00510001
     7d4:	b4000089 	strlt	r0, [r0], #-137	; 0x89
     7d8:	01000089 	smlabbeq	r0, r9, r0, r0
     7dc:	89b45400 	ldmibhi	r4!, {sl, ip, lr}
     7e0:	89c80000 	stmibhi	r8, {}^	; <UNPREDICTABLE>
     7e4:	00040000 	andeq	r0, r4, r0
     7e8:	9f5101f3 	svcls	0x005101f3
	...
     7f4:	000089a8 	andeq	r8, r0, r8, lsr #19
     7f8:	000089ac 	andeq	r8, r0, ip, lsr #19
     7fc:	ac500001 	mrrcge	0, 0, r0, r0, cr1	; <UNPREDICTABLE>
     800:	b8000089 	stmdalt	r0, {r0, r3, r7}
     804:	01000089 	smlabbeq	r0, r9, r0, r0
     808:	89b85500 	ldmibhi	r8!, {r8, sl, ip, lr}
     80c:	89c80000 	stmibhi	r8, {}^	; <UNPREDICTABLE>
     810:	00040000 	andeq	r0, r4, r0
     814:	9f5001f3 	svcls	0x005001f3
	...
     820:	000089b0 			; <UNDEFINED> instruction: 0x000089b0
     824:	000089b4 			; <UNDEFINED> instruction: 0x000089b4
     828:	0074000f 	rsbseq	r0, r4, pc
     82c:	1e02800a 	cdpne	0, 0, cr8, cr2, cr10, {0}
     830:	31220075 	teqcc	r2, r5, ror r0
     834:	22007024 	andcs	r7, r0, #36	; 0x24
     838:	0089b49f 	umulleq	fp, r9, pc, r4	; <UNPREDICTABLE>
     83c:	0089b800 	addeq	fp, r9, r0, lsl #16
     840:	f3001000 	vhadd.u8	d1, d0, d0
     844:	800a5101 	andhi	r5, sl, r1, lsl #2
     848:	00751e02 	rsbseq	r1, r5, r2, lsl #28
     84c:	70243122 	eorvc	r3, r4, r2, lsr #2
     850:	b89f2200 	ldmlt	pc, {r9, sp}	; <UNPREDICTABLE>
     854:	c0000089 	andgt	r0, r0, r9, lsl #1
     858:	11000089 	smlabbne	r0, r9, r0, r0
     85c:	5101f300 	mrspl	pc, SP_irq	; <UNPREDICTABLE>
     860:	1e02800a 	cdpne	0, 0, cr8, cr2, cr10, {0}
     864:	225001f3 	subscs	r0, r0, #-1073741764	; 0xc000003c
     868:	00702431 	rsbseq	r2, r0, r1, lsr r4
     86c:	00009f22 	andeq	r9, r0, r2, lsr #30
     870:	00000000 	andeq	r0, r0, r0
     874:	89d40000 	ldmibhi	r4, {}^	; <UNPREDICTABLE>
     878:	89d80000 	ldmibhi	r8, {}^	; <UNPREDICTABLE>
     87c:	00020000 	andeq	r0, r2, r0
     880:	89d8007d 	ldmibhi	r8, {r0, r2, r3, r4, r5, r6}^
     884:	8a100000 	bhi	40088c <multiplylookup+0x3f70dc>
     888:	00020000 	andeq	r0, r2, r0
     88c:	8a10247d 	bhi	409a88 <multiplylookup+0x4002d8>
     890:	8b200000 	blhi	800898 <multiplylookup+0x7f70e8>
     894:	00030000 	andeq	r0, r3, r0
     898:	0000c07d 	andeq	ip, r0, sp, ror r0
     89c:	00000000 	andeq	r0, r0, r0
     8a0:	d4000000 	strle	r0, [r0], #-0
     8a4:	e4000089 	str	r0, [r0], #-137	; 0x89
     8a8:	01000089 	smlabbeq	r0, r9, r0, r0
     8ac:	89e45000 	stmibhi	r4!, {ip, lr}^
     8b0:	8b200000 	blhi	8008b8 <multiplylookup+0x7f7108>
     8b4:	00010000 	andeq	r0, r1, r0
     8b8:	00000055 	andeq	r0, r0, r5, asr r0
     8bc:	00000000 	andeq	r0, r0, r0
     8c0:	0089d400 	addeq	sp, r9, r0, lsl #8
     8c4:	0089fc00 	addeq	pc, r9, r0, lsl #24
     8c8:	51000100 	mrspl	r0, (UNDEF: 16)
     8cc:	000089fc 	strdeq	r8, [r0], -ip
     8d0:	00008b20 	andeq	r8, r0, r0, lsr #22
     8d4:	00540001 	subseq	r0, r4, r1
     8d8:	00000000 	andeq	r0, r0, r0
     8dc:	d4000000 	strle	r0, [r0], #-0
     8e0:	f0000089 			; <UNDEFINED> instruction: 0xf0000089
     8e4:	01000089 	smlabbeq	r0, r9, r0, r0
     8e8:	89f05200 	ldmibhi	r0!, {r9, ip, lr}^
     8ec:	8b200000 	blhi	8008f4 <multiplylookup+0x7f7144>
     8f0:	00010000 	andeq	r0, r1, r0
     8f4:	00000058 	andeq	r0, r0, r8, asr r0
     8f8:	00000000 	andeq	r0, r0, r0
     8fc:	0089d400 	addeq	sp, r9, r0, lsl #8
     900:	008a0c00 	addeq	r0, sl, r0, lsl #24
     904:	53000100 	movwpl	r0, #256	; 0x100
     908:	00008a0c 	andeq	r8, r0, ip, lsl #20
     90c:	00008b20 	andeq	r8, r0, r0, lsr #22
     910:	005a0001 	subseq	r0, sl, r1
     914:	00000000 	andeq	r0, r0, r0
     918:	3c000000 	stccc	0, cr0, [r0], {-0}
     91c:	4400008a 	strmi	r0, [r0], #-138	; 0x8a
     920:	0100008a 	smlabbeq	r0, sl, r0, r0
     924:	8a445300 	bhi	111552c <multiplylookup+0x110bd7c>
     928:	8b200000 	blhi	800930 <multiplylookup+0x7f7180>
     92c:	00020000 	andeq	r0, r2, r0
     930:	00004491 	muleq	r0, r1, r4
     934:	00000000 	andeq	r0, r0, r0
     938:	8a480000 	bhi	1200940 <multiplylookup+0x11f7190>
     93c:	8a4c0000 	bhi	1300944 <multiplylookup+0x12f7194>
     940:	00010000 	andeq	r0, r1, r0
     944:	008a4c53 	addeq	r4, sl, r3, asr ip
     948:	008b2000 	addeq	r2, fp, r0
     94c:	91000200 	mrsls	r0, R8_usr
     950:	00000048 	andeq	r0, r0, r8, asr #32
     954:	00000000 	andeq	r0, r0, r0
     958:	008a8400 	addeq	r8, sl, r0, lsl #8
     95c:	008acc00 	addeq	ip, sl, r0, lsl #24
     960:	56000100 	strpl	r0, [r0], -r0, lsl #2
     964:	00008acc 	andeq	r8, r0, ip, asr #21
     968:	00008ad0 	ldrdeq	r8, [r0], -r0
     96c:	d4530001 	ldrble	r0, [r3], #-1
     970:	e800008a 	stmda	r0, {r1, r3, r7}
     974:	0100008a 	smlabbeq	r0, sl, r0, r0
     978:	8ae85300 	bhi	ffa15580 <multiplylookup+0xffa0bdd0>
     97c:	8b200000 	blhi	800984 <multiplylookup+0x7f71d4>
     980:	00010000 	andeq	r0, r1, r0
     984:	00000056 	andeq	r0, r0, r6, asr r0
     988:	00000000 	andeq	r0, r0, r0
     98c:	008ab400 	addeq	fp, sl, r0, lsl #8
     990:	008adc00 	addeq	sp, sl, r0, lsl #24
     994:	56000100 	strpl	r0, [r0], -r0, lsl #2
     998:	00008afc 	strdeq	r8, [r0], -ip
     99c:	00008b20 	andeq	r8, r0, r0, lsr #22
     9a0:	00560001 	subseq	r0, r6, r1
     9a4:	00000000 	andeq	r0, r0, r0
     9a8:	84000000 	strhi	r0, [r0], #-0
     9ac:	d400008a 	strle	r0, [r0], #-138	; 0x8a
     9b0:	0100008a 	smlabbeq	r0, sl, r0, r0
     9b4:	8af05500 	bhi	ffc15dbc <multiplylookup+0xffc0c60c>
     9b8:	8b200000 	blhi	8009c0 <multiplylookup+0x7f7210>
     9bc:	00010000 	andeq	r0, r1, r0
     9c0:	00000055 	andeq	r0, r0, r5, asr r0
     9c4:	00000000 	andeq	r0, r0, r0
     9c8:	008a9000 	addeq	r9, sl, r0
     9cc:	008ab400 	addeq	fp, sl, r0, lsl #8
     9d0:	54000100 	strpl	r0, [r0], #-256	; 0x100
	...
     9dc:	00008a90 	muleq	r0, r0, sl
     9e0:	00008ab4 			; <UNDEFINED> instruction: 0x00008ab4
     9e4:	00550001 	subseq	r0, r5, r1
     9e8:	00000000 	andeq	r0, r0, r0
     9ec:	9c000000 	stcls	0, cr0, [r0], {-0}
     9f0:	a800008a 	stmdage	r0, {r1, r3, r7}
     9f4:	0f00008a 	svceq	0x0000008a
     9f8:	0a007400 	beq	1da00 <multiplylookup+0x14250>
     9fc:	751e0280 	ldrvc	r0, [lr, #-640]	; 0x280
     a00:	24312200 	ldrtcs	r2, [r1], #-512	; 0x200
     a04:	9f220070 	svcls	0x00220070
	...
     a10:	00008b20 	andeq	r8, r0, r0, lsr #22
     a14:	00008b24 	andeq	r8, r0, r4, lsr #22
     a18:	007d0002 	rsbseq	r0, sp, r2
     a1c:	00008b24 	andeq	r8, r0, r4, lsr #22
     a20:	00008b2c 	andeq	r8, r0, ip, lsr #22
     a24:	247d0002 	ldrbtcs	r0, [sp], #-2
     a28:	00008b2c 	andeq	r8, r0, ip, lsr #22
     a2c:	00008bd0 	ldrdeq	r8, [r0], -r0
     a30:	307d0002 	rsbscc	r0, sp, r2
	...
     a3c:	00008b20 	andeq	r8, r0, r0, lsr #22
     a40:	00008b3b 	andeq	r8, r0, fp, lsr fp
     a44:	3b500001 	blcc	1400a50 <multiplylookup+0x13f72a0>
     a48:	4800008b 	stmdami	r0, {r0, r1, r3, r7}
     a4c:	0400008b 	streq	r0, [r0], #-139	; 0x8b
     a50:	5001f300 	andpl	pc, r1, r0, lsl #6
     a54:	008b489f 	umulleq	r4, fp, pc, r8	; <UNPREDICTABLE>
     a58:	008b6000 	addeq	r6, fp, r0
     a5c:	50000100 	andpl	r0, r0, r0, lsl #2
     a60:	00008b60 	andeq	r8, r0, r0, ror #22
     a64:	00008bd0 	ldrdeq	r8, [r0], -r0
     a68:	01f30004 	mvnseq	r0, r4
     a6c:	00009f50 	andeq	r9, r0, r0, asr pc
     a70:	00000000 	andeq	r0, r0, r0
     a74:	8b200000 	blhi	800a7c <multiplylookup+0x7f72cc>
     a78:	8b3b0000 	blhi	ec0a80 <multiplylookup+0xeb72d0>
     a7c:	00010000 	andeq	r0, r1, r0
     a80:	008b3b51 	addeq	r3, fp, r1, asr fp
     a84:	008b3c00 	addeq	r3, fp, r0, lsl #24
     a88:	56000100 	strpl	r0, [r0], -r0, lsl #2
     a8c:	00008b3c 	andeq	r8, r0, ip, lsr fp
     a90:	00008b48 	andeq	r8, r0, r8, asr #22
     a94:	01f30004 	mvnseq	r0, r4
     a98:	8b489f51 	blhi	12287e4 <multiplylookup+0x121f034>
     a9c:	8b600000 	blhi	1800aa4 <multiplylookup+0x17f72f4>
     aa0:	00010000 	andeq	r0, r1, r0
     aa4:	008b6051 	addeq	r6, fp, r1, asr r0
     aa8:	008bd000 	addeq	sp, fp, r0
     aac:	91000600 	tstls	r0, r0, lsl #12
     ab0:	1c37064c 	ldcne	6, cr0, [r7], #-304	; 0xfffffed0
     ab4:	0000009f 	muleq	r0, pc, r0	; <UNPREDICTABLE>
     ab8:	00000000 	andeq	r0, r0, r0
     abc:	008b2000 	addeq	r2, fp, r0
     ac0:	008b3b00 	addeq	r3, fp, r0, lsl #22
     ac4:	52000100 	andpl	r0, r0, #0, 2
     ac8:	00008b3b 	andeq	r8, r0, fp, lsr fp
     acc:	00008b48 	andeq	r8, r0, r8, asr #22
     ad0:	48570001 	ldmdami	r7, {r0}^
     ad4:	6000008b 	andvs	r0, r0, fp, lsl #1
     ad8:	0100008b 	smlabbeq	r0, fp, r0, r0
     adc:	8b605200 	blhi	18152e4 <multiplylookup+0x180bb34>
     ae0:	8bd00000 	blhi	ff400ae8 <multiplylookup+0xff3f7338>
     ae4:	00010000 	andeq	r0, r1, r0
     ae8:	00000057 	andeq	r0, r0, r7, asr r0
     aec:	00000000 	andeq	r0, r0, r0
     af0:	008b4800 	addeq	r4, fp, r0, lsl #16
     af4:	008b6000 	addeq	r6, fp, r0
     af8:	51000100 	mrspl	r0, (UNDEF: 16)
     afc:	00008b60 	andeq	r8, r0, r0, ror #22
     b00:	00008bd0 	ldrdeq	r8, [r0], -r0
     b04:	00560001 	subseq	r0, r6, r1
     b08:	00000000 	andeq	r0, r0, r0
     b0c:	60000000 	andvs	r0, r0, r0
     b10:	7800008b 	stmdavc	r0, {r0, r1, r3, r7}
     b14:	0100008b 	smlabbeq	r0, fp, r0, r0
     b18:	8b785700 	blhi	1e16720 <multiplylookup+0x1e0cf70>
     b1c:	8b8c0000 	blhi	fe300b24 <multiplylookup+0xfe2f7374>
     b20:	00010000 	andeq	r0, r1, r0
     b24:	008b8c54 	addeq	r8, fp, r4, asr ip
     b28:	008ba400 	addeq	sl, fp, r0, lsl #8
     b2c:	74000300 	strvc	r0, [r0], #-768	; 0x300
     b30:	8ba49f7f 	blhi	fe928934 <multiplylookup+0xfe91f184>
     b34:	8bd00000 	blhi	ff400b3c <multiplylookup+0xff3f738c>
     b38:	00010000 	andeq	r0, r1, r0
     b3c:	00000054 	andeq	r0, r0, r4, asr r0
     b40:	00000000 	andeq	r0, r0, r0
     b44:	008b7800 	addeq	r7, fp, r0, lsl #16
     b48:	008b8c00 	addeq	r8, fp, r0, lsl #24
     b4c:	54000100 	strpl	r0, [r0], #-256	; 0x100
     b50:	00008b8c 	andeq	r8, r0, ip, lsl #23
     b54:	00008bd0 	ldrdeq	r8, [r0], -r0
     b58:	7f740003 	svcvc	0x00740003
     b5c:	0000009f 	muleq	r0, pc, r0	; <UNPREDICTABLE>
     b60:	00000000 	andeq	r0, r0, r0
     b64:	008b9000 	addeq	r9, fp, r0
     b68:	008ba400 	addeq	sl, fp, r0, lsl #8
     b6c:	30000200 	andcc	r0, r0, r0, lsl #4
     b70:	0000009f 	muleq	r0, pc, r0	; <UNPREDICTABLE>
     b74:	00000000 	andeq	r0, r0, r0
     b78:	008b9800 	addeq	r9, fp, r0, lsl #16
     b7c:	008ba000 	addeq	sl, fp, r0
     b80:	75000800 	strvc	r0, [r0, #-2048]	; 0x800
     b84:	70243100 	eorvc	r3, r4, r0, lsl #2
     b88:	009f2200 	addseq	r2, pc, r0, lsl #4
     b8c:	00000000 	andeq	r0, r0, r0
     b90:	d0000000 	andle	r0, r0, r0
     b94:	d400008b 	strle	r0, [r0], #-139	; 0x8b
     b98:	0200008b 	andeq	r0, r0, #139	; 0x8b
     b9c:	d4007d00 	strle	r7, [r0], #-3328	; 0xd00
     ba0:	dc00008b 	stcle	0, cr0, [r0], {139}	; 0x8b
     ba4:	0200008b 	andeq	r0, r0, #139	; 0x8b
     ba8:	dc247d00 	stcle	13, cr7, [r4], #-0
     bac:	7000008b 	andvc	r0, r0, fp, lsl #1
     bb0:	0200008c 	andeq	r0, r0, #140	; 0x8c
     bb4:	00307d00 	eorseq	r7, r0, r0, lsl #26
     bb8:	00000000 	andeq	r0, r0, r0
     bbc:	d0000000 	andle	r0, r0, r0
     bc0:	f800008b 			; <UNDEFINED> instruction: 0xf800008b
     bc4:	0100008b 	smlabbeq	r0, fp, r0, r0
     bc8:	8bf85000 	blhi	ffe14bd0 <multiplylookup+0xffe0b420>
     bcc:	8c700000 	ldclhi	0, cr0, [r0], #-0
     bd0:	00060000 	andeq	r0, r6, r0
     bd4:	37064c91 			; <UNDEFINED> instruction: 0x37064c91
     bd8:	00009f1c 	andeq	r9, r0, ip, lsl pc
     bdc:	00000000 	andeq	r0, r0, r0
     be0:	8bd00000 	blhi	ff400be8 <multiplylookup+0xff3f7438>
     be4:	8bf80000 	blhi	ffe00bec <multiplylookup+0xffdf743c>
     be8:	00010000 	andeq	r0, r1, r0
     bec:	008bf851 	addeq	pc, fp, r1, asr r8	; <UNPREDICTABLE>
     bf0:	008c7000 	addeq	r7, ip, r0
     bf4:	57000100 	strpl	r0, [r0, -r0, lsl #2]
	...
     c00:	00008bec 	andeq	r8, r0, ip, ror #23
     c04:	00008bf8 	strdeq	r8, [r0], -r8	; <UNPREDICTABLE>
     c08:	f8500001 			; <UNDEFINED> instruction: 0xf8500001
     c0c:	7000008b 	andvc	r0, r0, fp, lsl #1
     c10:	0100008c 	smlabbeq	r0, ip, r0, r0
     c14:	00005600 	andeq	r5, r0, r0, lsl #12
     c18:	00000000 	andeq	r0, r0, r0
     c1c:	8bf80000 	blhi	ffe00c24 <multiplylookup+0xffdf7474>
     c20:	8c100000 	ldchi	0, cr0, [r0], {-0}
     c24:	00010000 	andeq	r0, r1, r0
     c28:	008c1057 	addeq	r1, ip, r7, asr r0
     c2c:	008c2400 	addeq	r2, ip, r0, lsl #8
     c30:	54000100 	strpl	r0, [r0], #-256	; 0x100
     c34:	00008c24 	andeq	r8, r0, r4, lsr #24
     c38:	00008c3c 	andeq	r8, r0, ip, lsr ip
     c3c:	7f740003 	svcvc	0x00740003
     c40:	008c3c9f 	umulleq	r3, ip, pc, ip	; <UNPREDICTABLE>
     c44:	008c7000 	addeq	r7, ip, r0
     c48:	54000100 	strpl	r0, [r0], #-256	; 0x100
	...
     c54:	00008c10 	andeq	r8, r0, r0, lsl ip
     c58:	00008c24 	andeq	r8, r0, r4, lsr #24
     c5c:	24540001 	ldrbcs	r0, [r4], #-1
     c60:	7000008c 	andvc	r0, r0, ip, lsl #1
     c64:	0300008c 	movweq	r0, #140	; 0x8c
     c68:	9f7f7400 	svcls	0x007f7400
	...
     c74:	00008c28 	andeq	r8, r0, r8, lsr #24
     c78:	00008c3c 	andeq	r8, r0, ip, lsr ip
     c7c:	9f300002 	svcls	0x00300002
	...
     c88:	00008c30 	andeq	r8, r0, r0, lsr ip
     c8c:	00008c38 	andeq	r8, r0, r8, lsr ip
     c90:	00750008 	rsbseq	r0, r5, r8
     c94:	00702431 	rsbseq	r2, r0, r1, lsr r4
     c98:	00009f22 	andeq	r9, r0, r2, lsr #30
     c9c:	00000000 	andeq	r0, r0, r0
     ca0:	8c700000 	ldclhi	0, cr0, [r0], #-0
     ca4:	8c740000 	ldclhi	0, cr0, [r4], #-0
     ca8:	00020000 	andeq	r0, r2, r0
     cac:	8c74007d 	ldclhi	0, cr0, [r4], #-500	; 0xfffffe0c
     cb0:	8cc40000 	stclhi	0, cr0, [r4], {0}
     cb4:	00020000 	andeq	r0, r2, r0
     cb8:	0000187d 	andeq	r1, r0, sp, ror r8
     cbc:	00000000 	andeq	r0, r0, r0
     cc0:	8c700000 	ldclhi	0, cr0, [r0], #-0
     cc4:	8c7c0000 	ldclhi	0, cr0, [ip], #-0
     cc8:	00010000 	andeq	r0, r1, r0
     ccc:	008c7c50 	addeq	r7, ip, r0, asr ip
     cd0:	008c9000 	addeq	r9, ip, r0
     cd4:	55000100 	strpl	r0, [r0, #-256]	; 0x100
     cd8:	00008c90 	muleq	r0, r0, ip
     cdc:	00008cc4 	andeq	r8, r0, r4, asr #25
     ce0:	01f30004 	mvnseq	r0, r4
     ce4:	00009f50 	andeq	r9, r0, r0, asr pc
     ce8:	00000000 	andeq	r0, r0, r0
     cec:	8c700000 	ldclhi	0, cr0, [r0], #-0
     cf0:	8c900000 	ldchi	0, cr0, [r0], {0}
     cf4:	00010000 	andeq	r0, r1, r0
     cf8:	008c9051 	addeq	r9, ip, r1, asr r0
     cfc:	008cb000 	addeq	fp, ip, r0
     d00:	57000100 	strpl	r0, [r0, -r0, lsl #2]
     d04:	00008cb0 			; <UNDEFINED> instruction: 0x00008cb0
     d08:	00008cbc 			; <UNDEFINED> instruction: 0x00008cbc
     d0c:	00540001 	subseq	r0, r4, r1
     d10:	00000000 	andeq	r0, r0, r0
     d14:	70000000 	andvc	r0, r0, r0
     d18:	9000008c 	andls	r0, r0, ip, lsl #1
     d1c:	0100008c 	smlabbeq	r0, ip, r0, r0
     d20:	8c905200 	lfmhi	f5, 4, [r0], {0}
     d24:	8cc40000 	stclhi	0, cr0, [r4], {0}
     d28:	00010000 	andeq	r0, r1, r0
     d2c:	00000056 	andeq	r0, r0, r6, asr r0
     d30:	00000000 	andeq	r0, r0, r0
     d34:	008c8400 	addeq	r8, ip, r0, lsl #8
     d38:	008c9000 	addeq	r9, ip, r0
     d3c:	51000100 	mrspl	r0, (UNDEF: 16)
     d40:	00008c90 	muleq	r0, r0, ip
     d44:	00008cc4 	andeq	r8, r0, r4, asr #25
     d48:	00570001 	subseq	r0, r7, r1
     d4c:	00000000 	andeq	r0, r0, r0
     d50:	84000000 	strhi	r0, [r0], #-0
     d54:	9000008c 	andls	r0, r0, ip, lsl #1
     d58:	0200008c 	andeq	r0, r0, #140	; 0x8c
     d5c:	009f3000 	addseq	r3, pc, r0
     d60:	00000000 	andeq	r0, r0, r0
     d64:	c4000000 	strgt	r0, [r0], #-0
     d68:	c800008c 	stmdagt	r0, {r2, r3, r7}
     d6c:	0200008c 	andeq	r0, r0, #140	; 0x8c
     d70:	c8007d00 	stmdagt	r0, {r8, sl, fp, ip, sp, lr}
     d74:	cc00008c 	stcgt	0, cr0, [r0], {140}	; 0x8c
     d78:	0200008c 	andeq	r0, r0, #140	; 0x8c
     d7c:	cc247d00 	stcgt	13, cr7, [r4], #-0
     d80:	7400008c 	strvc	r0, [r0], #-140	; 0x8c
     d84:	0300008f 	movweq	r0, #143	; 0x8f
     d88:	00e07d00 	rsceq	r7, r0, r0, lsl #26
	...
     d94:	00008cc4 	andeq	r8, r0, r4, asr #25
     d98:	00008cd0 	ldrdeq	r8, [r0], -r0
     d9c:	d0500001 	subsle	r0, r0, r1
     da0:	d800008c 	stmdale	r0, {r2, r3, r7}
     da4:	0400008c 	streq	r0, [r0], #-140	; 0x8c
     da8:	5001f300 	andpl	pc, r1, r0, lsl #6
     dac:	008cd89f 	umulleq	sp, ip, pc, r8	; <UNPREDICTABLE>
     db0:	008cec00 	addeq	lr, ip, r0, lsl #24
     db4:	50000100 	andpl	r0, r0, r0, lsl #2
     db8:	00008cec 	andeq	r8, r0, ip, ror #25
     dbc:	00008d24 	andeq	r8, r0, r4, lsr #26
     dc0:	01f30008 	mvnseq	r0, r8
     dc4:	46244650 			; <UNDEFINED> instruction: 0x46244650
     dc8:	8d249f25 	stchi	15, cr9, [r4, #-148]!	; 0xffffff6c
     dcc:	8e4c0000 	cdphi	0, 4, cr0, cr12, cr0, {0}
     dd0:	00010000 	andeq	r0, r1, r0
     dd4:	008e4c50 	addeq	r4, lr, r0, asr ip
     dd8:	008e5400 	addeq	r5, lr, r0, lsl #8
     ddc:	f3018900 	vmls.i8	d8, d1, d0
     de0:	24465001 	strbcs	r5, [r6], #-1
     de4:	800a2546 	andhi	r2, sl, r6, asr #10
     de8:	01f31c02 	mvnseq	r1, r2, lsl #24
     dec:	46244650 			; <UNDEFINED> instruction: 0x46244650
     df0:	5001f325 	andpl	pc, r1, r5, lsr #6
     df4:	25462446 	strbcs	r2, [r6, #-1094]	; 0x446
     df8:	2a02800a 	bcs	a0e28 <multiplylookup+0x97678>
     dfc:	16000128 	strne	r0, [r0], -r8, lsr #2
     e00:	01e00a13 	mvneq	r0, r3, lsl sl
     e04:	5001f31c 	andpl	pc, r1, ip, lsl r3	; <UNPREDICTABLE>
     e08:	25462446 	strbcs	r2, [r6, #-1094]	; 0x446
     e0c:	1c02800a 	stcne	0, cr8, [r2], {10}
     e10:	465001f3 			; <UNDEFINED> instruction: 0x465001f3
     e14:	f3254624 	vmax.u32	d4, d5, d20
     e18:	24465001 	strbcs	r5, [r6], #-1
     e1c:	800a2546 	andhi	r2, sl, r6, asr #10
     e20:	01282a02 	teqeq	r8, r2, lsl #20
     e24:	71131600 	tstvc	r3, r0, lsl #12
     e28:	01e00a00 	mvneq	r0, r0, lsl #20
     e2c:	0001282a 	andeq	r2, r1, sl, lsr #16
     e30:	e00a1316 	and	r1, sl, r6, lsl r3
     e34:	01f31c01 	mvnseq	r1, r1, lsl #24
     e38:	46244650 			; <UNDEFINED> instruction: 0x46244650
     e3c:	02800a25 	addeq	r0, r0, #151552	; 0x25000
     e40:	5001f31c 	andpl	pc, r1, ip, lsl r3	; <UNPREDICTABLE>
     e44:	25462446 	strbcs	r2, [r6, #-1094]	; 0x446
     e48:	465001f3 			; <UNDEFINED> instruction: 0x465001f3
     e4c:	0a254624 	beq	9526e4 <multiplylookup+0x948f34>
     e50:	282a0280 	stmdacs	sl!, {r7, r9}
     e54:	13160001 	tstne	r6, #1
     e58:	1c01e00a 	stcne	0, cr14, [r1], {10}
     e5c:	465001f3 			; <UNDEFINED> instruction: 0x465001f3
     e60:	0a254624 	beq	9526f8 <multiplylookup+0x948f48>
     e64:	f31c0280 	vhsub.u16	d0, d28, d0
     e68:	24465001 	strbcs	r5, [r6], #-1
     e6c:	01f32546 	mvnseq	r2, r6, asr #10
     e70:	46244650 			; <UNDEFINED> instruction: 0x46244650
     e74:	02800a25 	addeq	r0, r0, #151552	; 0x25000
     e78:	0001282a 	andeq	r2, r1, sl, lsr #16
     e7c:	00711316 	rsbseq	r1, r1, r6, lsl r3
     e80:	2a01e00a 	bcs	78eb0 <multiplylookup+0x6f700>
     e84:	16000128 	strne	r0, [r0], -r8, lsr #2
     e88:	5301f313 	movwpl	pc, #4883	; 0x1313	; <UNPREDICTABLE>
     e8c:	25472447 	strbcs	r2, [r7, #-1095]	; 0x447
     e90:	2a01e00a 	bcs	78ec0 <multiplylookup+0x6f710>
     e94:	16000128 	strne	r0, [r0], -r8, lsr #2
     e98:	01e00a13 	mvneq	r0, r3, lsl sl
     e9c:	5001f31c 	andpl	pc, r1, ip, lsl r3	; <UNPREDICTABLE>
     ea0:	25462446 	strbcs	r2, [r6, #-1094]	; 0x446
     ea4:	1c02800a 	stcne	0, cr8, [r2], {10}
     ea8:	465001f3 			; <UNDEFINED> instruction: 0x465001f3
     eac:	f3254624 	vmax.u32	d4, d5, d20
     eb0:	24465001 	strbcs	r5, [r6], #-1
     eb4:	800a2546 	andhi	r2, sl, r6, asr #10
     eb8:	01282a02 	teqeq	r8, r2, lsl #20
     ebc:	0a131600 	beq	4c66c4 <multiplylookup+0x4bcf14>
     ec0:	f31c01e0 	vrhadd.u16	q0, q14, q8
     ec4:	24465001 	strbcs	r5, [r6], #-1
     ec8:	800a2546 	andhi	r2, sl, r6, asr #10
     ecc:	01f31c02 	mvnseq	r1, r2, lsl #24
     ed0:	46244650 			; <UNDEFINED> instruction: 0x46244650
     ed4:	5001f325 	andpl	pc, r1, r5, lsr #6
     ed8:	25462446 	strbcs	r2, [r6, #-1094]	; 0x446
     edc:	2a02800a 	bcs	a0f0c <multiplylookup+0x9775c>
     ee0:	16000128 	strne	r0, [r0], -r8, lsr #2
     ee4:	0a007113 	beq	1d338 <multiplylookup+0x13b88>
     ee8:	282a01e0 	stmdacs	sl!, {r5, r6, r7, r8}
     eec:	13160001 	tstne	r6, #1
     ef0:	1c01e00a 	stcne	0, cr14, [r1], {10}
     ef4:	465001f3 			; <UNDEFINED> instruction: 0x465001f3
     ef8:	0a254624 	beq	952790 <multiplylookup+0x948fe0>
     efc:	f31c0280 	vhsub.u16	d0, d28, d0
     f00:	24465001 	strbcs	r5, [r6], #-1
     f04:	01f32546 	mvnseq	r2, r6, asr #10
     f08:	46244650 			; <UNDEFINED> instruction: 0x46244650
     f0c:	02800a25 	addeq	r0, r0, #151552	; 0x25000
     f10:	0001282a 	andeq	r2, r1, sl, lsr #16
     f14:	e00a1316 	and	r1, sl, r6, lsl r3
     f18:	01f31c01 	mvnseq	r1, r1, lsl #24
     f1c:	46244650 			; <UNDEFINED> instruction: 0x46244650
     f20:	02800a25 	addeq	r0, r0, #151552	; 0x25000
     f24:	5001f31c 	andpl	pc, r1, ip, lsl r3	; <UNPREDICTABLE>
     f28:	25462446 	strbcs	r2, [r6, #-1094]	; 0x446
     f2c:	465001f3 			; <UNDEFINED> instruction: 0x465001f3
     f30:	0a254624 	beq	9527c8 <multiplylookup+0x949018>
     f34:	282a0280 	stmdacs	sl!, {r7, r9}
     f38:	13160001 	tstne	r6, #1
     f3c:	e00a0071 	and	r0, sl, r1, ror r0
     f40:	01282a01 	teqeq	r8, r1, lsl #20
     f44:	f3131600 	vmax.u16	d1, d3, d0
     f48:	24475301 	strbcs	r5, [r7], #-769	; 0x301
     f4c:	e00a2547 	and	r2, sl, r7, asr #10
     f50:	01282a01 	teqeq	r8, r1, lsl #20
     f54:	91131600 	tstls	r3, r0, lsl #12
     f58:	2447067c 	strbcs	r0, [r7], #-1660	; 0x67c
     f5c:	e00a2547 	and	r2, sl, r7, asr #10
     f60:	01282a01 	teqeq	r8, r1, lsl #20
     f64:	9f131600 	svcls	0x00131600
     f68:	00008e54 	andeq	r8, r0, r4, asr lr
     f6c:	00008f74 	andeq	r8, r0, r4, ror pc
     f70:	01f3019d 			; <UNDEFINED> instruction: 0x01f3019d
     f74:	46244650 			; <UNDEFINED> instruction: 0x46244650
     f78:	02800a25 	addeq	r0, r0, #151552	; 0x25000
     f7c:	5001f31c 	andpl	pc, r1, ip, lsl r3	; <UNPREDICTABLE>
     f80:	25462446 	strbcs	r2, [r6, #-1094]	; 0x446
     f84:	465001f3 			; <UNDEFINED> instruction: 0x465001f3
     f88:	0a254624 	beq	952820 <multiplylookup+0x949070>
     f8c:	282a0280 	stmdacs	sl!, {r7, r9}
     f90:	13160001 	tstne	r6, #1
     f94:	1c01e00a 	stcne	0, cr14, [r1], {10}
     f98:	465001f3 			; <UNDEFINED> instruction: 0x465001f3
     f9c:	0a254624 	beq	952834 <multiplylookup+0x949084>
     fa0:	f31c0280 	vhsub.u16	d0, d28, d0
     fa4:	24465001 	strbcs	r5, [r6], #-1
     fa8:	01f32546 	mvnseq	r2, r6, asr #10
     fac:	46244650 			; <UNDEFINED> instruction: 0x46244650
     fb0:	02800a25 	addeq	r0, r0, #151552	; 0x25000
     fb4:	0001282a 	andeq	r2, r1, sl, lsr #16
     fb8:	01f31316 	mvnseq	r1, r6, lsl r3
     fbc:	47244751 			; <UNDEFINED> instruction: 0x47244751
     fc0:	01e00a25 	mvneq	r0, r5, lsr #20
     fc4:	0001282a 	andeq	r2, r1, sl, lsr #16
     fc8:	e00a1316 	and	r1, sl, r6, lsl r3
     fcc:	01f31c01 	mvnseq	r1, r1, lsl #24
     fd0:	46244650 			; <UNDEFINED> instruction: 0x46244650
     fd4:	02800a25 	addeq	r0, r0, #151552	; 0x25000
     fd8:	5001f31c 	andpl	pc, r1, ip, lsl r3	; <UNPREDICTABLE>
     fdc:	25462446 	strbcs	r2, [r6, #-1094]	; 0x446
     fe0:	465001f3 			; <UNDEFINED> instruction: 0x465001f3
     fe4:	0a254624 	beq	95287c <multiplylookup+0x9490cc>
     fe8:	282a0280 	stmdacs	sl!, {r7, r9}
     fec:	13160001 	tstne	r6, #1
     ff0:	1c01e00a 	stcne	0, cr14, [r1], {10}
     ff4:	465001f3 			; <UNDEFINED> instruction: 0x465001f3
     ff8:	0a254624 	beq	952890 <multiplylookup+0x9490e0>
     ffc:	f31c0280 	vhsub.u16	d0, d28, d0
    1000:	24465001 	strbcs	r5, [r6], #-1
    1004:	01f32546 	mvnseq	r2, r6, asr #10
    1008:	46244650 			; <UNDEFINED> instruction: 0x46244650
    100c:	02800a25 	addeq	r0, r0, #151552	; 0x25000
    1010:	0001282a 	andeq	r2, r1, sl, lsr #16
    1014:	01f31316 	mvnseq	r1, r6, lsl r3
    1018:	47244751 			; <UNDEFINED> instruction: 0x47244751
    101c:	01e00a25 	mvneq	r0, r5, lsr #20
    1020:	0001282a 	andeq	r2, r1, sl, lsr #16
    1024:	01f31316 	mvnseq	r1, r6, lsl r3
    1028:	47244753 			; <UNDEFINED> instruction: 0x47244753
    102c:	01e00a25 	mvneq	r0, r5, lsr #20
    1030:	0001282a 	andeq	r2, r1, sl, lsr #16
    1034:	e00a1316 	and	r1, sl, r6, lsl r3
    1038:	01f31c01 	mvnseq	r1, r1, lsl #24
    103c:	46244650 			; <UNDEFINED> instruction: 0x46244650
    1040:	02800a25 	addeq	r0, r0, #151552	; 0x25000
    1044:	5001f31c 	andpl	pc, r1, ip, lsl r3	; <UNPREDICTABLE>
    1048:	25462446 	strbcs	r2, [r6, #-1094]	; 0x446
    104c:	465001f3 			; <UNDEFINED> instruction: 0x465001f3
    1050:	0a254624 	beq	9528e8 <multiplylookup+0x949138>
    1054:	282a0280 	stmdacs	sl!, {r7, r9}
    1058:	13160001 	tstne	r6, #1
    105c:	1c01e00a 	stcne	0, cr14, [r1], {10}
    1060:	465001f3 			; <UNDEFINED> instruction: 0x465001f3
    1064:	0a254624 	beq	9528fc <multiplylookup+0x94914c>
    1068:	f31c0280 	vhsub.u16	d0, d28, d0
    106c:	24465001 	strbcs	r5, [r6], #-1
    1070:	01f32546 	mvnseq	r2, r6, asr #10
    1074:	46244650 			; <UNDEFINED> instruction: 0x46244650
    1078:	02800a25 	addeq	r0, r0, #151552	; 0x25000
    107c:	0001282a 	andeq	r2, r1, sl, lsr #16
    1080:	01f31316 	mvnseq	r1, r6, lsl r3
    1084:	47244751 			; <UNDEFINED> instruction: 0x47244751
    1088:	01e00a25 	mvneq	r0, r5, lsr #20
    108c:	0001282a 	andeq	r2, r1, sl, lsr #16
    1090:	e00a1316 	and	r1, sl, r6, lsl r3
    1094:	01f31c01 	mvnseq	r1, r1, lsl #24
    1098:	46244650 			; <UNDEFINED> instruction: 0x46244650
    109c:	02800a25 	addeq	r0, r0, #151552	; 0x25000
    10a0:	5001f31c 	andpl	pc, r1, ip, lsl r3	; <UNPREDICTABLE>
    10a4:	25462446 	strbcs	r2, [r6, #-1094]	; 0x446
    10a8:	465001f3 			; <UNDEFINED> instruction: 0x465001f3
    10ac:	0a254624 	beq	952944 <multiplylookup+0x949194>
    10b0:	282a0280 	stmdacs	sl!, {r7, r9}
    10b4:	13160001 	tstne	r6, #1
    10b8:	1c01e00a 	stcne	0, cr14, [r1], {10}
    10bc:	465001f3 			; <UNDEFINED> instruction: 0x465001f3
    10c0:	0a254624 	beq	952958 <multiplylookup+0x9491a8>
    10c4:	f31c0280 	vhsub.u16	d0, d28, d0
    10c8:	24465001 	strbcs	r5, [r6], #-1
    10cc:	01f32546 	mvnseq	r2, r6, asr #10
    10d0:	46244650 			; <UNDEFINED> instruction: 0x46244650
    10d4:	02800a25 	addeq	r0, r0, #151552	; 0x25000
    10d8:	0001282a 	andeq	r2, r1, sl, lsr #16
    10dc:	01f31316 	mvnseq	r1, r6, lsl r3
    10e0:	47244751 			; <UNDEFINED> instruction: 0x47244751
    10e4:	01e00a25 	mvneq	r0, r5, lsr #20
    10e8:	0001282a 	andeq	r2, r1, sl, lsr #16
    10ec:	01f31316 	mvnseq	r1, r6, lsl r3
    10f0:	47244753 			; <UNDEFINED> instruction: 0x47244753
    10f4:	01e00a25 	mvneq	r0, r5, lsr #20
    10f8:	0001282a 	andeq	r2, r1, sl, lsr #16
    10fc:	7c911316 	ldcvc	3, cr1, [r1], {22}
    1100:	47244706 	strmi	r4, [r4, -r6, lsl #14]!
    1104:	01e00a25 	mvneq	r0, r5, lsr #20
    1108:	0001282a 	andeq	r2, r1, sl, lsr #16
    110c:	009f1316 	addseq	r1, pc, r6, lsl r3	; <UNPREDICTABLE>
    1110:	00000000 	andeq	r0, r0, r0
    1114:	c4000000 	strgt	r0, [r0], #-0
    1118:	f800008c 			; <UNDEFINED> instruction: 0xf800008c
    111c:	0100008c 	smlabbeq	r0, ip, r0, r0
    1120:	8cf85100 	ldfhie	f5, [r8]
    1124:	8d000000 	stchi	0, cr0, [r0, #-0]
    1128:	00040000 	andeq	r0, r4, r0
    112c:	9f5101f3 	svcls	0x005101f3
    1130:	00008d00 	andeq	r8, r0, r0, lsl #26
    1134:	00008e54 	andeq	r8, r0, r4, asr lr
    1138:	54510001 	ldrbpl	r0, [r1], #-1
    113c:	7400008e 	strvc	r0, [r0], #-142	; 0x8e
    1140:	0800008f 	stmdaeq	r0, {r0, r1, r2, r3, r7}
    1144:	5101f300 	mrspl	pc, SP_irq	; <UNPREDICTABLE>
    1148:	25472447 	strbcs	r2, [r7, #-1095]	; 0x447
    114c:	0000009f 	muleq	r0, pc, r0	; <UNPREDICTABLE>
    1150:	00000000 	andeq	r0, r0, r0
    1154:	008cc400 	addeq	ip, ip, r0, lsl #8
    1158:	008cdc00 	addeq	sp, ip, r0, lsl #24
    115c:	52000100 	andpl	r0, r0, #0, 2
    1160:	00008cdc 	ldrdeq	r8, [r0], -ip
    1164:	00008ce0 	andeq	r8, r0, r0, ror #25
    1168:	01f30004 	mvnseq	r0, r4
    116c:	8ce09f52 	stclhi	15, cr9, [r0], #328	; 0x148
    1170:	8d040000 	stchi	0, cr0, [r4, #-0]
    1174:	00010000 	andeq	r0, r1, r0
    1178:	008d0452 	addeq	r0, sp, r2, asr r4
    117c:	008d2400 	addeq	r2, sp, r0, lsl #8
    1180:	f3000800 	vsub.i8	d0, d0, d0
    1184:	24465201 	strbcs	r5, [r6], #-513	; 0x201
    1188:	249f2546 	ldrcs	r2, [pc], #1350	; 1190 <_start-0x6e70>
    118c:	3400008d 	strcc	r0, [r0], #-141	; 0x8d
    1190:	0100008e 	smlabbeq	r0, lr, r0, r0
    1194:	8e345200 	cdphi	2, 3, cr5, cr4, cr0, {0}
    1198:	8f740000 	svchi	0x00740000
    119c:	00230000 	eoreq	r0, r3, r0
    11a0:	465201f3 			; <UNDEFINED> instruction: 0x465201f3
    11a4:	0a254624 	beq	952a3c <multiplylookup+0x94928c>
    11a8:	f31c0280 	vhsub.u16	d0, d28, d0
    11ac:	24465201 	strbcs	r5, [r6], #-513	; 0x201
    11b0:	01f32546 	mvnseq	r2, r6, asr #10
    11b4:	46244652 			; <UNDEFINED> instruction: 0x46244652
    11b8:	02800a25 	addeq	r0, r0, #151552	; 0x25000
    11bc:	0001282a 	andeq	r2, r1, sl, lsr #16
    11c0:	009f1316 	addseq	r1, pc, r6, lsl r3	; <UNPREDICTABLE>
    11c4:	00000000 	andeq	r0, r0, r0
    11c8:	c4000000 	strgt	r0, [r0], #-0
    11cc:	0800008c 	stmdaeq	r0, {r2, r3, r7}
    11d0:	0100008d 	smlabbeq	r0, sp, r0, r0
    11d4:	8d085300 	stchi	3, cr5, [r8, #-0]
    11d8:	8d100000 	ldchi	0, cr0, [r0, #-0]
    11dc:	00040000 	andeq	r0, r4, r0
    11e0:	9f5301f3 	svcls	0x005301f3
    11e4:	00008d10 	andeq	r8, r0, r0, lsl sp
    11e8:	00008e2c 	andeq	r8, r0, ip, lsr #28
    11ec:	2c530001 	mrrccs	0, 0, r0, r3, cr1
    11f0:	7400008e 	strvc	r0, [r0], #-142	; 0x8e
    11f4:	0800008f 	stmdaeq	r0, {r0, r1, r2, r3, r7}
    11f8:	5301f300 	movwpl	pc, #4864	; 0x1300	; <UNPREDICTABLE>
    11fc:	25472447 	strbcs	r2, [r7, #-1095]	; 0x447
    1200:	0000009f 	muleq	r0, pc, r0	; <UNPREDICTABLE>
    1204:	00000000 	andeq	r0, r0, r0
    1208:	008cc400 	addeq	ip, ip, r0, lsl #8
    120c:	008cf000 	addeq	pc, ip, r0
    1210:	91000200 	mrsls	r0, R8_usr
    1214:	008cf000 	addeq	pc, ip, r0
    1218:	008d1400 	addeq	r1, sp, r0, lsl #8
    121c:	57000100 	strpl	r0, [r0, -r0, lsl #2]
    1220:	00008d14 	andeq	r8, r0, r4, lsl sp
    1224:	00008d24 	andeq	r8, r0, r4, lsr #26
    1228:	007c0005 	rsbseq	r0, ip, r5
    122c:	249f2546 	ldrcs	r2, [pc], #1350	; 1234 <_start-0x6dcc>
    1230:	9000008d 	andls	r0, r0, sp, lsl #1
    1234:	0100008e 	smlabbeq	r0, lr, r0, r0
    1238:	8e905700 	cdphi	7, 9, cr5, cr0, cr0, {0}
    123c:	8f740000 	svchi	0x00740000
    1240:	00230000 	eoreq	r0, r3, r0
    1244:	46067891 			; <UNDEFINED> instruction: 0x46067891
    1248:	0a254624 	beq	952ae0 <multiplylookup+0x949330>
    124c:	911c0280 	tstls	ip, r0, lsl #5
    1250:	24460678 	strbcs	r0, [r6], #-1656	; 0x678
    1254:	78912546 	ldmvc	r1, {r1, r2, r6, r8, sl, sp}
    1258:	46244606 	strtmi	r4, [r4], -r6, lsl #12
    125c:	02800a25 	addeq	r0, r0, #151552	; 0x25000
    1260:	0001282a 	andeq	r2, r1, sl, lsr #16
    1264:	009f1316 	addseq	r1, pc, r6, lsl r3	; <UNPREDICTABLE>
    1268:	00000000 	andeq	r0, r0, r0
    126c:	c4000000 	strgt	r0, [r0], #-0
    1270:	2400008c 	strcs	r0, [r0], #-140	; 0x8c
    1274:	0200008d 	andeq	r0, r0, #141	; 0x8d
    1278:	24049100 	strcs	r9, [r4], #-256	; 0x100
    127c:	4800008d 	stmdami	r0, {r0, r2, r3, r7}
    1280:	0100008e 	smlabbeq	r0, lr, r0, r0
    1284:	8e485c00 	cdphi	12, 4, cr5, cr8, cr0, {0}
    1288:	8f740000 	svchi	0x00740000
    128c:	00080000 	andeq	r0, r8, r0
    1290:	47067c91 			; <UNDEFINED> instruction: 0x47067c91
    1294:	9f254724 	svcls	0x00254724
	...
    12a0:	00008cc4 	andeq	r8, r0, r4, asr #25
    12a4:	00008d34 	andeq	r8, r0, r4, lsr sp
    12a8:	08910002 	ldmeq	r1, {r1}
    12ac:	00008d34 	andeq	r8, r0, r4, lsr sp
    12b0:	00008f74 	andeq	r8, r0, r4, ror pc
    12b4:	78910008 	ldmvc	r1, {r3}
    12b8:	ffff0a06 			; <UNDEFINED> instruction: 0xffff0a06
    12bc:	00009f1a 	andeq	r9, r0, sl, lsl pc
    12c0:	00000000 	andeq	r0, r0, r0
    12c4:	8e5c0000 	cdphi	0, 5, cr0, cr12, cr0, {0}
    12c8:	8e900000 	cdphi	0, 9, cr0, cr0, cr0, {0}
    12cc:	00010000 	andeq	r0, r1, r0
    12d0:	008e9053 	addeq	r9, lr, r3, asr r0
    12d4:	008f7400 	addeq	r7, pc, r0, lsl #8
    12d8:	f3003800 	vsub.i8	d3, d0, d0
    12dc:	24475301 	strbcs	r5, [r7], #-769	; 0x301
    12e0:	40122547 	andsmi	r2, r2, r7, asr #10
    12e4:	f322244b 	vshl.u32	q1, <illegal reg q5.5>, q1
    12e8:	24475101 	strbcs	r5, [r7], #-257	; 0x101
    12ec:	14162547 	ldrne	r2, [r6], #-1351	; 0x547
    12f0:	22244b40 	eorcs	r4, r4, #64, 22	; 0x10000
    12f4:	0001282b 	andeq	r2, r1, fp, lsr #16
    12f8:	40121316 	andsmi	r1, r2, r6, lsl r3
    12fc:	9122244b 	teqls	r2, fp, asr #8
    1300:	2447067c 	strbcs	r0, [r7], #-1660	; 0x67c
    1304:	14162547 	ldrne	r2, [r6], #-1351	; 0x547
    1308:	22244b40 	eorcs	r4, r4, #64, 22	; 0x10000
    130c:	0001282b 	andeq	r2, r1, fp, lsr #16
    1310:	009f1316 	addseq	r1, pc, r6, lsl r3	; <UNPREDICTABLE>
    1314:	00000000 	andeq	r0, r0, r0
    1318:	5c000000 	stcpl	0, cr0, [r0], {-0}
    131c:	6000008e 	andvs	r0, r0, lr, lsl #1
    1320:	0100008e 	smlabbeq	r0, lr, r0, r0
    1324:	8e605200 	cdphi	2, 6, cr5, cr0, cr0, {0}
    1328:	8f740000 	svchi	0x00740000
    132c:	00030000 	andeq	r0, r3, r0
    1330:	007fb891 			; <UNDEFINED> instruction: 0x007fb891
    1334:	00000000 	andeq	r0, r0, r0
    1338:	5c000000 	stcpl	0, cr0, [r0], {-0}
    133c:	9000008e 	andls	r0, r0, lr, lsl #1
    1340:	1200008e 	andne	r0, r0, #142	; 0x8e
    1344:	77007b00 	strvc	r7, [r0, -r0, lsl #22]
    1348:	7c911e00 	ldcvc	14, cr1, [r1], {0}
    134c:	47244706 	strmi	r4, [r4, -r6, lsl #14]!
    1350:	064c9125 	strbeq	r9, [ip], -r5, lsr #2
    1354:	909f1c1e 	addsls	r1, pc, lr, lsl ip	; <UNPREDICTABLE>
    1358:	7400008e 	strvc	r0, [r0], #-142	; 0x8e
    135c:	3200008f 	andcc	r0, r0, #143	; 0x8f
    1360:	06789100 	ldrbteq	r9, [r8], -r0, lsl #2
    1364:	25462446 	strbcs	r2, [r6, #-1094]	; 0x446
    1368:	1c02800a 	stcne	0, cr8, [r2], {10}
    136c:	46067891 			; <UNDEFINED> instruction: 0x46067891
    1370:	91254624 	teqls	r5, r4, lsr #12
    1374:	24460678 	strbcs	r0, [r6], #-1656	; 0x678
    1378:	800a2546 	andhi	r2, sl, r6, asr #10
    137c:	01282a02 	teqeq	r8, r2, lsl #20
    1380:	7b131600 	blvc	4c6b88 <multiplylookup+0x4bd3d8>
    1384:	7c911e00 	ldcvc	14, cr1, [r1], {0}
    1388:	47244706 	strmi	r4, [r4, -r6, lsl #14]!
    138c:	064c9125 	strbeq	r9, [ip], -r5, lsr #2
    1390:	009f1c1e 	addseq	r1, pc, lr, lsl ip	; <UNPREDICTABLE>
    1394:	00000000 	andeq	r0, r0, r0
    1398:	60000000 	andvs	r0, r0, r0
    139c:	ac00008e 	stcge	0, cr0, [r0], {142}	; 0x8e
    13a0:	0100008e 	smlabbeq	r0, lr, r0, r0
    13a4:	8f205200 	svchi	0x00205200
    13a8:	8f3c0000 	svchi	0x003c0000
    13ac:	00070000 	andeq	r0, r7, r0
    13b0:	44910072 	ldrmi	r0, [r1], #114	; 0x72
    13b4:	3c9f1c06 	ldccc	12, cr1, [pc], {6}
    13b8:	7400008f 	strvc	r0, [r0], #-143	; 0x8f
    13bc:	0100008f 	smlabbeq	r0, pc, r0, r0	; <UNPREDICTABLE>
    13c0:	00005200 	andeq	r5, r0, r0, lsl #4
    13c4:	00000000 	andeq	r0, r0, r0
    13c8:	8e640000 	cdphi	0, 6, cr0, cr4, cr0, {0}
    13cc:	8e900000 	cdphi	0, 9, cr0, cr0, cr0, {0}
    13d0:	00010000 	andeq	r0, r1, r0
    13d4:	008e9050 	addeq	r9, lr, r0, asr r0
    13d8:	008eac00 	addeq	sl, lr, r0, lsl #24
    13dc:	5c000100 	stfpls	f0, [r0], {-0}
    13e0:	00008f20 	andeq	r8, r0, r0, lsr #30
    13e4:	00008f54 	andeq	r8, r0, r4, asr pc
    13e8:	007c0007 	rsbseq	r0, ip, r7
    13ec:	1c064891 	stcne	8, cr4, [r6], {145}	; 0x91
    13f0:	008f549f 	umulleq	r5, pc, pc, r4	; <UNPREDICTABLE>
    13f4:	008f5c00 	addeq	r5, pc, r0, lsl #24
    13f8:	5c000100 	stfpls	f0, [r0], {-0}
	...
    1404:	00008e68 	andeq	r8, r0, r8, ror #28
    1408:	00008e90 	muleq	r0, r0, lr
    140c:	905c0001 	subsls	r0, ip, r1
    1410:	2000008e 	andcs	r0, r0, lr, lsl #1
    1414:	0300008f 	movweq	r0, #143	; 0x8f
    1418:	7fb49100 	svcvc	0x00b49100
    141c:	00008f20 	andeq	r8, r0, r0, lsr #30
    1420:	00008f50 	andeq	r8, r0, r0, asr pc
    1424:	b4910009 	ldrlt	r0, [r1], #9
    1428:	4c91067f 	ldcmi	6, cr0, [r1], {127}	; 0x7f
    142c:	509f1c06 	addspl	r1, pc, r6, lsl #24
    1430:	5c00008f 	stcpl	0, cr0, [r0], {143}	; 0x8f
    1434:	0100008f 	smlabbeq	r0, pc, r0, r0	; <UNPREDICTABLE>
    1438:	00005500 	andeq	r5, r0, r0, lsl #10
    143c:	00000000 	andeq	r0, r0, r0
    1440:	8e900000 	cdphi	0, 9, cr0, cr0, cr0, {0}
    1444:	8eac0000 	cdphi	0, 10, cr0, cr12, cr0, {0}
    1448:	00030000 	andeq	r0, r3, r0
    144c:	ac7fb891 	ldclge	8, cr11, [pc], #-580	; 1210 <_start-0x6df0>
    1450:	0c00008e 	stceq	0, cr0, [r0], {142}	; 0x8e
    1454:	0100008f 	smlabbeq	r0, pc, r0, r0	; <UNPREDICTABLE>
    1458:	8f0c5400 	svchi	0x000c5400
    145c:	8f1c0000 	svchi	0x001c0000
    1460:	00030000 	andeq	r0, r3, r0
    1464:	1c9f0174 	ldfnes	f0, [pc], {116}	; 0x74
    1468:	2c00008f 	stccs	0, cr0, [r0], {143}	; 0x8f
    146c:	0100008f 	smlabbeq	r0, pc, r0, r0	; <UNPREDICTABLE>
    1470:	00005400 	andeq	r5, r0, r0, lsl #8
    1474:	00000000 	andeq	r0, r0, r0
    1478:	8e680000 	cdphi	0, 6, cr0, cr8, cr0, {0}
    147c:	8eac0000 	cdphi	0, 10, cr0, cr12, cr0, {0}
    1480:	00010000 	andeq	r0, r1, r0
    1484:	008f3453 	addeq	r3, pc, r3, asr r4	; <UNPREDICTABLE>
    1488:	008f7400 	addeq	r7, pc, r0, lsl #8
    148c:	53000100 	movwpl	r0, #256	; 0x100
	...
    1498:	00008e90 	muleq	r0, r0, lr
    149c:	00008eac 	andeq	r8, r0, ip, lsr #29
    14a0:	ac520001 	mrrcge	0, 0, r0, r2, cr1
    14a4:	2000008e 	andcs	r0, r0, lr, lsl #1
    14a8:	0100008f 	smlabbeq	r0, pc, r0, r0	; <UNPREDICTABLE>
    14ac:	00005500 	andeq	r5, r0, r0, lsl #10
    14b0:	00000000 	andeq	r0, r0, r0
    14b4:	8e900000 	cdphi	0, 9, cr0, cr0, cr0, {0}
    14b8:	8eac0000 	cdphi	0, 10, cr0, cr12, cr0, {0}
    14bc:	00010000 	andeq	r0, r1, r0
    14c0:	008eac5c 	addeq	sl, lr, ip, asr ip
    14c4:	008f2000 	addeq	r2, pc, r0
    14c8:	56000100 	strpl	r0, [r0], -r0, lsl #2
	...
    14d4:	00008e90 	muleq	r0, r0, lr
    14d8:	00008eac 	andeq	r8, r0, ip, lsr #29
    14dc:	b4910003 	ldrlt	r0, [r1], #3
    14e0:	008eac7f 	addeq	sl, lr, pc, ror ip
    14e4:	008f2000 	addeq	r2, pc, r0
    14e8:	57000100 	strpl	r0, [r0, -r0, lsl #2]
	...
    14f4:	00008eb8 			; <UNDEFINED> instruction: 0x00008eb8
    14f8:	00008f08 	andeq	r8, r0, r8, lsl #30
    14fc:	78910008 	ldmvc	r1, {r3}
    1500:	ffff0a06 			; <UNDEFINED> instruction: 0xffff0a06
    1504:	00009f1a 	andeq	r9, r0, sl, lsl pc
    1508:	00000000 	andeq	r0, r0, r0
    150c:	8eb80000 	cdphi	0, 11, cr0, cr8, cr0, {0}
    1510:	8ee70000 	cdphi	0, 14, cr0, cr7, cr0, {0}
    1514:	00010000 	andeq	r0, r1, r0
    1518:	00000053 	andeq	r0, r0, r3, asr r0
    151c:	00000000 	andeq	r0, r0, r0
    1520:	008eb800 	addeq	fp, lr, r0, lsl #16
    1524:	008f0800 	addeq	r0, pc, r0, lsl #16
    1528:	54000100 	strpl	r0, [r0], #-256	; 0x100
	...
    1534:	00008ed4 	ldrdeq	r8, [r0], -r4
    1538:	00008ee8 	andeq	r8, r0, r8, ror #29
    153c:	78910008 	ldmvc	r1, {r3}
    1540:	ffff0a06 			; <UNDEFINED> instruction: 0xffff0a06
    1544:	00009f1a 	andeq	r9, r0, sl, lsl pc
    1548:	00000000 	andeq	r0, r0, r0
    154c:	8ed40000 	cdphi	0, 13, cr0, cr4, cr0, {0}
    1550:	8f080000 	svchi	0x00080000
    1554:	00010000 	andeq	r0, r1, r0
    1558:	00000054 	andeq	r0, r0, r4, asr r0
    155c:	00000000 	andeq	r0, r0, r0
    1560:	008ee800 	addeq	lr, lr, r0, lsl #16
    1564:	008ef400 	addeq	pc, lr, r0, lsl #8
    1568:	74000d00 	strvc	r0, [r0], #-3328	; 0xd00
    156c:	7fb09100 	svcvc	0x00b09100
    1570:	24312206 	ldrtcs	r2, [r1], #-518	; 0x206
    1574:	9f220070 	svcls	0x00220070
	...

Disassembly of section .debug_ranges:

00000000 <.debug_ranges>:
   0:	000080a0 	andeq	r8, r0, r0, lsr #1
   4:	000080b8 	strheq	r8, [r0], -r8	; <UNPREDICTABLE>
   8:	000080b8 	strheq	r8, [r0], -r8	; <UNPREDICTABLE>
   c:	000080e8 	andeq	r8, r0, r8, ror #1
  10:	000080e8 	andeq	r8, r0, r8, ror #1
  14:	00008104 	andeq	r8, r0, r4, lsl #2
  18:	00008104 	andeq	r8, r0, r4, lsl #2
  1c:	00008150 	andeq	r8, r0, r0, asr r1
  20:	00008150 	andeq	r8, r0, r0, asr r1
  24:	00008184 	andeq	r8, r0, r4, lsl #3
  28:	00008184 	andeq	r8, r0, r4, lsl #3
  2c:	000081a4 	andeq	r8, r0, r4, lsr #3
  30:	000081a4 	andeq	r8, r0, r4, lsr #3
  34:	00008218 	andeq	r8, r0, r8, lsl r2
  38:	00008218 	andeq	r8, r0, r8, lsl r2
  3c:	000082c4 	andeq	r8, r0, r4, asr #5
  40:	000082c4 	andeq	r8, r0, r4, asr #5
  44:	000083d4 	ldrdeq	r8, [r0], -r4
  48:	000083d4 	ldrdeq	r8, [r0], -r4
  4c:	00008404 	andeq	r8, r0, r4, lsl #8
  50:	00008404 	andeq	r8, r0, r4, lsl #8
  54:	0000841c 	andeq	r8, r0, ip, lsl r4
	...
  60:	0000841c 	andeq	r8, r0, ip, lsl r4
  64:	00008458 	andeq	r8, r0, r8, asr r4
  68:	00008458 	andeq	r8, r0, r8, asr r4
  6c:	00008494 	muleq	r0, r4, r4
  70:	00008494 	muleq	r0, r4, r4
  74:	00008668 	andeq	r8, r0, r8, ror #12
	...
  80:	000087b0 			; <UNDEFINED> instruction: 0x000087b0
  84:	000087e0 	andeq	r8, r0, r0, ror #15
  88:	000087e0 	andeq	r8, r0, r0, ror #15
  8c:	00008934 	andeq	r8, r0, r4, lsr r9
	...
  98:	00008a4c 	andeq	r8, r0, ip, asr #20
  9c:	00008a50 	andeq	r8, r0, r0, asr sl
  a0:	00008a58 	andeq	r8, r0, r8, asr sl
  a4:	00008a5c 	andeq	r8, r0, ip, asr sl
  a8:	00008a64 	andeq	r8, r0, r4, ror #20
  ac:	00008a68 	andeq	r8, r0, r8, ror #20
  b0:	00008a70 	andeq	r8, r0, r0, ror sl
  b4:	00008a7c 	andeq	r8, r0, ip, ror sl
  b8:	00008a84 	andeq	r8, r0, r4, lsl #21
  bc:	00008ab4 			; <UNDEFINED> instruction: 0x00008ab4
  c0:	00008af0 	strdeq	r8, [r0], -r0
  c4:	00008afc 	strdeq	r8, [r0], -ip
	...
  d0:	00008a4c 	andeq	r8, r0, ip, asr #20
  d4:	00008a50 	andeq	r8, r0, r0, asr sl
  d8:	00008a58 	andeq	r8, r0, r8, asr sl
  dc:	00008a5c 	andeq	r8, r0, ip, asr sl
  e0:	00008a64 	andeq	r8, r0, r4, ror #20
  e4:	00008a68 	andeq	r8, r0, r8, ror #20
  e8:	00008a78 	andeq	r8, r0, r8, ror sl
  ec:	00008a7c 	andeq	r8, r0, ip, ror sl
  f0:	00008a90 	muleq	r0, r0, sl
  f4:	00008ab4 			; <UNDEFINED> instruction: 0x00008ab4
	...
 100:	00008a4c 	andeq	r8, r0, ip, asr #20
 104:	00008a50 	andeq	r8, r0, r0, asr sl
 108:	00008a58 	andeq	r8, r0, r8, asr sl
 10c:	00008a5c 	andeq	r8, r0, ip, asr sl
 110:	00008a64 	andeq	r8, r0, r4, ror #20
 114:	00008a68 	andeq	r8, r0, r8, ror #20
 118:	00008a78 	andeq	r8, r0, r8, ror sl
 11c:	00008a7c 	andeq	r8, r0, ip, ror sl
 120:	00008a90 	muleq	r0, r0, sl
 124:	00008ab4 			; <UNDEFINED> instruction: 0x00008ab4
	...
 130:	00008b48 	andeq	r8, r0, r8, asr #22
 134:	00008b74 	andeq	r8, r0, r4, ror fp
 138:	00008b78 	andeq	r8, r0, r8, ror fp
 13c:	00008bd0 	ldrdeq	r8, [r0], -r0
	...
 148:	00008b48 	andeq	r8, r0, r8, asr #22
 14c:	00008b74 	andeq	r8, r0, r4, ror fp
 150:	00008b78 	andeq	r8, r0, r8, ror fp
 154:	00008bd0 	ldrdeq	r8, [r0], -r0
	...
 160:	00008b48 	andeq	r8, r0, r8, asr #22
 164:	00008b74 	andeq	r8, r0, r4, ror fp
 168:	00008b78 	andeq	r8, r0, r8, ror fp
 16c:	00008bd0 	ldrdeq	r8, [r0], -r0
	...
 178:	00008b54 	andeq	r8, r0, r4, asr fp
 17c:	00008b5c 	andeq	r8, r0, ip, asr fp
 180:	00008b78 	andeq	r8, r0, r8, ror fp
 184:	00008b88 	andeq	r8, r0, r8, lsl #23
 188:	00008b8c 	andeq	r8, r0, ip, lsl #23
 18c:	00008ba4 	andeq	r8, r0, r4, lsr #23
	...
 198:	00008be4 	andeq	r8, r0, r4, ror #23
 19c:	00008be8 	andeq	r8, r0, r8, ror #23
 1a0:	00008c10 	andeq	r8, r0, r0, lsl ip
 1a4:	00008c20 	andeq	r8, r0, r0, lsr #24
 1a8:	00008c24 	andeq	r8, r0, r4, lsr #24
 1ac:	00008c3c 	andeq	r8, r0, ip, lsr ip
	...
 1b8:	00008e6c 	andeq	r8, r0, ip, ror #28
 1bc:	00008e70 	andeq	r8, r0, r0, ror lr
 1c0:	00008e74 	andeq	r8, r0, r4, ror lr
 1c4:	00008e78 	andeq	r8, r0, r8, ror lr
 1c8:	00008e7c 	andeq	r8, r0, ip, ror lr
 1cc:	00008e80 	andeq	r8, r0, r0, lsl #29
 1d0:	00008e84 	andeq	r8, r0, r4, lsl #29
 1d4:	00008e88 	andeq	r8, r0, r8, lsl #29
 1d8:	00008ec0 	andeq	r8, r0, r0, asr #29
 1dc:	00008f08 	andeq	r8, r0, r8, lsl #30
	...
 1e8:	00008e6c 	andeq	r8, r0, ip, ror #28
 1ec:	00008e70 	andeq	r8, r0, r0, ror lr
 1f0:	00008e74 	andeq	r8, r0, r4, ror lr
 1f4:	00008e78 	andeq	r8, r0, r8, ror lr
 1f8:	00008e7c 	andeq	r8, r0, ip, ror lr
 1fc:	00008e80 	andeq	r8, r0, r0, lsl #29
 200:	00008e84 	andeq	r8, r0, r4, lsl #29
 204:	00008e88 	andeq	r8, r0, r8, lsl #29
 208:	00008ed4 	ldrdeq	r8, [r0], -r4
 20c:	00008f08 	andeq	r8, r0, r8, lsl #30
	...
 218:	00008e6c 	andeq	r8, r0, ip, ror #28
 21c:	00008e70 	andeq	r8, r0, r0, ror lr
 220:	00008e74 	andeq	r8, r0, r4, ror lr
 224:	00008e78 	andeq	r8, r0, r8, ror lr
 228:	00008e7c 	andeq	r8, r0, ip, ror lr
 22c:	00008e80 	andeq	r8, r0, r0, lsl #29
 230:	00008e84 	andeq	r8, r0, r4, lsl #29
 234:	00008e88 	andeq	r8, r0, r8, lsl #29
 238:	00008ed4 	ldrdeq	r8, [r0], -r4
 23c:	00008f08 	andeq	r8, r0, r8, lsl #30
	...
 248:	00008934 	andeq	r8, r0, r4, lsr r9
 24c:	00008940 	andeq	r8, r0, r0, asr #18
 250:	00008940 	andeq	r8, r0, r0, asr #18
 254:	0000898c 	andeq	r8, r0, ip, lsl #19
 258:	0000898c 	andeq	r8, r0, ip, lsl #19
 25c:	000089d4 	ldrdeq	r8, [r0], -r4
 260:	000089d4 	ldrdeq	r8, [r0], -r4
 264:	00008b20 	andeq	r8, r0, r0, lsr #22
 268:	00008b20 	andeq	r8, r0, r0, lsr #22
 26c:	00008bd0 	ldrdeq	r8, [r0], -r0
 270:	00008bd0 	ldrdeq	r8, [r0], -r0
 274:	00008c70 	andeq	r8, r0, r0, ror ip
 278:	00008c70 	andeq	r8, r0, r0, ror ip
 27c:	00008cc4 	andeq	r8, r0, r4, asr #25
 280:	00008cc4 	andeq	r8, r0, r4, asr #25
 284:	00008f74 	andeq	r8, r0, r4, ror pc
	...

Disassembly of section .debug_macro:

00000000 <.debug_macro>:
   0:	5e020004 	cdppl	0, 0, cr0, cr2, cr4, {0}
   4:	07000000 	streq	r0, [r0, -r0]
   8:	0000008c 	andeq	r0, r0, ip, lsl #1
   c:	03010003 	movweq	r0, #4099	; 0x1003
  10:	52070204 	andpl	r0, r7, #4, 4	; 0x40000000
  14:	04000008 	streq	r0, [r0], #-8
  18:	18600c05 	stmdane	r0!, {r0, r2, sl, fp}^
  1c:	0d050000 	stceq	0, cr0, [r5, #-0]
  20:	00000f9e 	muleq	r0, lr, pc	; <UNPREDICTABLE>
  24:	08a90f05 	stmiaeq	r9!, {r0, r2, r8, r9, sl, fp}
  28:	10050000 	andne	r0, r5, r0
  2c:	0000128d 	andeq	r1, r0, sp, lsl #5
  30:	22701105 	rsbscs	r1, r0, #1073741825	; 0x40000001
  34:	12050000 	andne	r0, r5, #0
  38:	0000137e 	andeq	r1, r0, lr, ror r3
  3c:	0cf81305 	ldcleq	3, cr1, [r8], #20
  40:	15050000 	strne	r0, [r5, #-0]
  44:	000007fb 	strdeq	r0, [r0], -fp
  48:	21561605 	cmpcs	r6, r5, lsl #12
  4c:	17050000 	strne	r0, [r5, -r0]
  50:	00001b86 	andeq	r1, r0, r6, lsl #23
  54:	1a4d1805 	bne	1346070 <multiplylookup+0x133c8c0>
  58:	19050000 	stmdbne	r5, {}	; <UNPREDICTABLE>
  5c:	0000168d 	andeq	r1, r0, sp, lsl #13
  60:	07501a05 	ldrbeq	r1, [r0, -r5, lsl #20]
  64:	1b050000 	blne	14006c <multiplylookup+0x1368bc>
  68:	00001045 	andeq	r1, r0, r5, asr #32
  6c:	20f31c05 	rscscs	r1, r3, r5, lsl #24
  70:	1d050000 	stcne	0, cr0, [r5, #-0]
  74:	00001dcd 	andeq	r1, r0, sp, asr #27
  78:	05a41e05 	streq	r1, [r4, #3589]!	; 0xe05
  7c:	1f050000 	svcne	0x00050000
  80:	000003ca 	andeq	r0, r0, sl, asr #7
  84:	1a322005 	bne	c880a0 <multiplylookup+0xc7e8f0>
  88:	00040000 	andeq	r0, r4, r0
  8c:	05000004 	streq	r0, [r0, #-4]
  90:	00135501 	andseq	r5, r3, r1, lsl #10
  94:	c8010500 	stmdagt	r1, {r8, sl}
  98:	0500000d 	streq	r0, [r0, #-13]
  9c:	0003a801 	andeq	sl, r3, r1, lsl #16
  a0:	0d010500 	cfstr32eq	mvfx0, [r1, #-0]
  a4:	0500000d 	streq	r0, [r0, #-13]
  a8:	00108d01 	andseq	r8, r0, r1, lsl #26
  ac:	1f010500 	svcne	0x00010500
  b0:	0500000f 	streq	r0, [r0, #-15]
  b4:	00189c01 	andseq	r9, r8, r1, lsl #24
  b8:	5c010500 	cfstr32pl	mvfx0, [r1], {-0}
  bc:	0500000a 	streq	r0, [r0, #-10]
  c0:	0013b501 	andseq	fp, r3, r1, lsl #10
  c4:	7a010500 	bvc	414cc <multiplylookup+0x37d1c>
  c8:	05000010 	streq	r0, [r0, #-16]
  cc:	00121d01 	andseq	r1, r2, r1, lsl #26
  d0:	d4010500 	strle	r0, [r1], #-1280	; 0x500
  d4:	0500001c 	streq	r0, [r0, #-28]
  d8:	001dae01 	andseq	sl, sp, r1, lsl #28
  dc:	03010500 	movweq	r0, #5376	; 0x1500
  e0:	0500000c 	streq	r0, [r0, #-12]
  e4:	00115a01 	andseq	r5, r1, r1, lsl #20
  e8:	22010500 	andcs	r0, r1, #0, 10
  ec:	05000007 	streq	r0, [r0, #-7]
  f0:	000ba301 	andeq	sl, fp, r1, lsl #6
  f4:	db010500 	blle	414fc <multiplylookup+0x37d4c>
  f8:	0500000e 	streq	r0, [r0, #-14]
  fc:	00176701 	andseq	r6, r7, r1, lsl #14
 100:	c9010500 	stmdbgt	r1, {r8, sl}
 104:	05000009 	streq	r0, [r0, #-9]
 108:	0006cd01 	andeq	ip, r6, r1, lsl #26
 10c:	a2010500 	andge	r0, r1, #0, 10
 110:	05000000 	streq	r0, [r0, #-0]
 114:	001e7c01 	andseq	r7, lr, r1, lsl #24
 118:	4b010500 	blmi	41520 <multiplylookup+0x37d70>
 11c:	05000012 	streq	r0, [r0, #-18]
 120:	00182801 	andseq	r2, r8, r1, lsl #16
 124:	59010500 	stmdbpl	r1, {r8, sl}
 128:	0500000e 	streq	r0, [r0, #-14]
 12c:	00120301 	andseq	r0, r2, r1, lsl #6
 130:	d4010500 	strle	r0, [r1], #-1280	; 0x500
 134:	05000007 	streq	r0, [r0, #-7]
 138:	00084901 	andeq	r4, r8, r1, lsl #18
 13c:	46010500 	strmi	r0, [r1], -r0, lsl #10
 140:	05000001 	streq	r0, [r0, #-1]
 144:	0004ec01 	andeq	lr, r4, r1, lsl #24
 148:	23010500 	movwcs	r0, #5376	; 0x1500
 14c:	0500001c 	streq	r0, [r0, #-28]
 150:	001c6101 	andseq	r6, ip, r1, lsl #2
 154:	45010500 	strmi	r0, [r1, #-1280]	; 0x500
 158:	05000018 	streq	r0, [r0, #-24]
 15c:	000ebd01 	andeq	fp, lr, r1, lsl #26
 160:	b6010500 	strlt	r0, [r1], -r0, lsl #10
 164:	05000000 	streq	r0, [r0, #-0]
 168:	000e7301 	andeq	r7, lr, r1, lsl #6
 16c:	86010500 	strhi	r0, [r1], -r0, lsl #10
 170:	05000003 	streq	r0, [r0, #-3]
 174:	00069f01 	andeq	r9, r6, r1, lsl #30
 178:	ba010500 	blt	41580 <multiplylookup+0x37dd0>
 17c:	05000007 	streq	r0, [r0, #-7]
 180:	00097801 	andeq	r7, r9, r1, lsl #16
 184:	b5010500 	strlt	r0, [r1, #-1280]	; 0x500
 188:	05000016 	streq	r0, [r0, #-22]
 18c:	00116b01 	andseq	r6, r1, r1, lsl #22
 190:	51010500 	tstpl	r1, r0, lsl #10
 194:	05000006 	streq	r0, [r0, #-6]
 198:	001d6b01 	andseq	r6, sp, r1, lsl #22
 19c:	42010500 	andmi	r0, r1, #0, 10
 1a0:	05000015 	streq	r0, [r0, #-21]
 1a4:	00022401 	andeq	r2, r2, r1, lsl #8
 1a8:	37010500 	strcc	r0, [r1, -r0, lsl #10]
 1ac:	05000017 	streq	r0, [r0, #-23]
 1b0:	000be401 	andeq	lr, fp, r1, lsl #8
 1b4:	55010500 	strpl	r0, [r1, #-1280]	; 0x500
 1b8:	05000019 	streq	r0, [r0, #-25]
 1bc:	00187901 	andseq	r7, r8, r1, lsl #18
 1c0:	2e010500 	cfsh32cs	mvfx0, mvfx1, #0
 1c4:	05000022 	streq	r0, [r0, #-34]	; 0x22
 1c8:	00130601 	andseq	r0, r3, r1, lsl #12
 1cc:	fa010500 	blx	415d4 <multiplylookup+0x37e24>
 1d0:	05000016 	streq	r0, [r0, #-22]
 1d4:	0005bf01 	andeq	fp, r5, r1, lsl #30
 1d8:	32010500 	andcc	r0, r1, #0, 10
 1dc:	05000009 	streq	r0, [r0, #-9]
 1e0:	0008d601 	andeq	sp, r8, r1, lsl #12
 1e4:	12010500 	andne	r0, r1, #0, 10
 1e8:	0500001f 	streq	r0, [r0, #-31]
 1ec:	00220c01 	eoreq	r0, r2, r1, lsl #24
 1f0:	02010500 	andeq	r0, r1, #0, 10
 1f4:	0500001c 	streq	r0, [r0, #-28]
 1f8:	001f2a01 	andseq	r2, pc, r1, lsl #20
 1fc:	9a010500 	bls	41604 <multiplylookup+0x37e54>
 200:	05000014 	streq	r0, [r0, #-20]
 204:	0021e001 	eoreq	lr, r1, r1
 208:	03010500 	movweq	r0, #5376	; 0x1500
 20c:	05000006 	streq	r0, [r0, #-6]
 210:	001a8401 	andseq	r8, sl, r1, lsl #8
 214:	b3010500 	movwlt	r0, #5376	; 0x1500
 218:	05000019 	streq	r0, [r0, #-25]
 21c:	00233101 	eoreq	r3, r3, r1, lsl #2
 220:	2e010500 	cfsh32cs	mvfx0, mvfx1, #0
 224:	0500001b 	streq	r0, [r0, #-27]
 228:	00043201 	andeq	r3, r4, r1, lsl #4
 22c:	de010500 	cfsh32le	mvfx0, mvfx1, #0
 230:	0500000f 	streq	r0, [r0, #-15]
 234:	00161001 	andseq	r1, r6, r1
 238:	63010500 	movwvs	r0, #5376	; 0x1500
 23c:	05000012 	streq	r0, [r0, #-18]
 240:	001b1d01 	andseq	r1, fp, r1, lsl #26
 244:	cb010500 	blgt	4164c <multiplylookup+0x37e9c>
 248:	0500001a 	streq	r0, [r0, #-26]
 24c:	00044901 	andeq	r4, r4, r1, lsl #18
 250:	72010500 	andvc	r0, r1, #0, 10
 254:	05000016 	streq	r0, [r0, #-22]
 258:	00200001 	eoreq	r0, r0, r1
 25c:	8e010500 	cfsh32hi	mvfx0, mvfx1, #0
 260:	05000019 	streq	r0, [r0, #-25]
 264:	0016e401 	andseq	lr, r6, r1, lsl #8
 268:	81010500 	tsthi	r1, r0, lsl #10
 26c:	05000020 	streq	r0, [r0, #-32]
 270:	0001f601 	andeq	pc, r1, r1, lsl #12
 274:	37010500 	strcc	r0, [r1, -r0, lsl #10]
 278:	05000019 	streq	r0, [r0, #-25]
 27c:	001e8b01 	andseq	r8, lr, r1, lsl #22
 280:	5a010500 	bpl	41688 <multiplylookup+0x37ed8>
 284:	0500000d 	streq	r0, [r0, #-13]
 288:	00112801 	andseq	r2, r1, r1, lsl #16
 28c:	bc010500 	cfstr32lt	mvfx0, [r1], {-0}
 290:	05000008 	streq	r0, [r0, #-8]
 294:	00004901 	andeq	r4, r0, r1, lsl #18
 298:	87010500 	strhi	r0, [r1, -r0, lsl #10]
 29c:	05000001 	streq	r0, [r0, #-1]
 2a0:	0015e401 	andseq	lr, r5, r1, lsl #8
 2a4:	7e010500 	cfsh32vc	mvfx0, mvfx1, #0
 2a8:	05000014 	streq	r0, [r0, #-20]
 2ac:	000d8901 	andeq	r8, sp, r1, lsl #18
 2b0:	f1010500 			; <UNDEFINED> instruction: 0xf1010500
 2b4:	0500000d 	streq	r0, [r0, #-13]
 2b8:	000cb401 	andeq	fp, ip, r1, lsl #8
 2bc:	46010500 	strmi	r0, [r1], -r0, lsl #10
 2c0:	0500000c 	streq	r0, [r0, #-12]
 2c4:	00006d01 	andeq	r6, r0, r1, lsl #26
 2c8:	e3010500 	movw	r0, #5376	; 0x1500
 2cc:	05000017 	streq	r0, [r0, #-23]
 2d0:	000ab201 	andeq	fp, sl, r1, lsl #4
 2d4:	1c010500 	cfstr32ne	mvfx0, [r1], {-0}
 2d8:	05000001 	streq	r0, [r0, #-1]
 2dc:	00172201 	andseq	r2, r7, r1, lsl #4
 2e0:	de010500 	cfsh32le	mvfx0, mvfx1, #0
 2e4:	05000001 	streq	r0, [r0, #-1]
 2e8:	000d4b01 	andeq	r4, sp, r1, lsl #22
 2ec:	30010500 	andcc	r0, r1, r0, lsl #10
 2f0:	05000012 	streq	r0, [r0, #-18]
 2f4:	00175701 	andseq	r5, r7, r1, lsl #14
 2f8:	f0010500 			; <UNDEFINED> instruction: 0xf0010500
 2fc:	05000010 	streq	r0, [r0, #-16]
 300:	001caf01 	andseq	sl, ip, r1, lsl #30
 304:	41010500 	tstmi	r1, r0, lsl #10
 308:	0500001b 	streq	r0, [r0, #-27]
 30c:	00008b01 	andeq	r8, r0, r1, lsl #22
 310:	5b010500 	blpl	41718 <multiplylookup+0x37f68>
 314:	05000001 	streq	r0, [r0, #-1]
 318:	0012e801 	andseq	lr, r2, r1, lsl #16
 31c:	cc010500 	cfstr32gt	mvfx0, [r1], {-0}
 320:	0500001b 	streq	r0, [r0, #-27]
 324:	00159301 	andseq	r9, r5, r1, lsl #6
 328:	0d010500 	cfstr32eq	mvfx0, [r1, #-0]
 32c:	05000021 	streq	r0, [r0, #-33]	; 0x21
 330:	001d8e01 	andseq	r8, sp, r1, lsl #28
 334:	7f010500 	svcvc	0x00010500
 338:	05000004 	streq	r0, [r0, #-4]
 33c:	0009fb01 	andeq	pc, r9, r1, lsl #22
 340:	5d010500 	cfstr32pl	mvfx0, [r1, #-0]
 344:	0500001f 	streq	r0, [r0, #-31]
 348:	0022d101 	eoreq	sp, r2, r1, lsl #2
 34c:	8f010500 	svchi	0x00010500
 350:	05000013 	streq	r0, [r0, #-19]
 354:	000c1a01 	andeq	r1, ip, r1, lsl #20
 358:	bb010500 	bllt	41760 <multiplylookup+0x37fb0>
 35c:	0500001a 	streq	r0, [r0, #-26]
 360:	000fb701 	andeq	fp, pc, r1, lsl #14
 364:	a7010500 	strge	r0, [r1, -r0, lsl #10]
 368:	05000016 	streq	r0, [r0, #-22]
 36c:	000dda01 	andeq	sp, sp, r1, lsl #20
 370:	19010500 	stmdbne	r1, {r8, sl}
 374:	05000020 	streq	r0, [r0, #-32]
 378:	000f6501 	andeq	r6, pc, r1, lsl #10
 37c:	30010500 	andcc	r0, r1, r0, lsl #10
 380:	0500000c 	streq	r0, [r0, #-12]
 384:	00111201 	andseq	r1, r1, r1, lsl #4
 388:	34010500 	strcc	r0, [r1], #-1280	; 0x500
 38c:	0500001e 	streq	r0, [r0, #-30]
 390:	00055801 	andeq	r5, r5, r1, lsl #16
 394:	bc010500 	cfstr32lt	mvfx0, [r1], {-0}
 398:	05000017 	streq	r0, [r0, #-23]
 39c:	00179101 	andseq	r9, r7, r1, lsl #2
 3a0:	ed010500 	cfstr32	mvfx0, [r1, #-0]
 3a4:	05000022 	streq	r0, [r0, #-34]	; 0x22
 3a8:	001b0601 	andseq	r0, fp, r1, lsl #12
 3ac:	b0010500 	andlt	r0, r1, r0, lsl #10
 3b0:	0500000d 	streq	r0, [r0, #-13]
 3b4:	00057c01 	andeq	r7, r5, r1, lsl #24
 3b8:	e1010500 	tst	r1, r0, lsl #10
 3bc:	05000010 	streq	r0, [r0, #-16]
 3c0:	0015cc01 	andseq	ip, r5, r1, lsl #24
 3c4:	3f010500 	svccc	0x00010500
 3c8:	0500000e 	streq	r0, [r0, #-14]
 3cc:	00134001 	andseq	r4, r3, r1
 3d0:	7a010500 	bvc	417d8 <multiplylookup+0x38028>
 3d4:	05000017 	streq	r0, [r0, #-23]
 3d8:	0010ca01 	andseq	ip, r0, r1, lsl #20
 3dc:	99010500 	stmdbls	r1, {r8, sl}
 3e0:	05000001 	streq	r0, [r0, #-1]
 3e4:	00156401 	andseq	r6, r5, r1, lsl #8
 3e8:	7d010500 	cfstr32vc	mvfx0, [r1, #-0]
 3ec:	0500001c 	streq	r0, [r0, #-28]
 3f0:	000cc201 	andeq	ip, ip, r1, lsl #4
 3f4:	89010500 	stmdbhi	r1, {r8, sl}
 3f8:	0500000f 	streq	r0, [r0, #-15]
 3fc:	0003b301 	andeq	fp, r3, r1, lsl #6
 400:	f7010500 			; <UNDEFINED> instruction: 0xf7010500
 404:	05000003 	streq	r0, [r0, #-3]
 408:	0004c501 	andeq	ip, r4, r1, lsl #10
 40c:	bc010500 	cfstr32lt	mvfx0, [r1], {-0}
 410:	05000014 	streq	r0, [r0, #-20]
 414:	001aa201 	andseq	sl, sl, r1, lsl #4
 418:	6e010500 	cfsh32vs	mvfx0, mvfx1, #0
 41c:	05000006 	streq	r0, [r0, #-6]
 420:	00068901 	andeq	r8, r6, r1, lsl #18
 424:	6e010500 	cfsh32vs	mvfx0, mvfx1, #0
 428:	0500001b 	streq	r0, [r0, #-27]
 42c:	00045901 	andeq	r5, r4, r1, lsl #18
 430:	9f010500 	svcls	0x00010500
 434:	05000004 	streq	r0, [r0, #-4]
 438:	00061701 	andeq	r1, r6, r1, lsl #14
 43c:	d6010500 	strle	r0, [r1], -r0, lsl #10
 440:	05000014 	streq	r0, [r0, #-20]
 444:	0011d601 	andseq	sp, r1, r1, lsl #12
 448:	38010500 	stmdacc	r1, {r8, sl}
 44c:	0500001c 	streq	r0, [r0, #-28]
 450:	00077901 	andeq	r7, r7, r1, lsl #18
 454:	91010500 	tstls	r1, r0, lsl #10
 458:	05000009 	streq	r0, [r0, #-9]
 45c:	00191801 	andseq	r1, r9, r1, lsl #16
 460:	60010500 	andvs	r0, r1, r0, lsl #10
 464:	0500000c 	streq	r0, [r0, #-12]
 468:	000c7801 	andeq	r7, ip, r1, lsl #16
 46c:	0e010500 	cfsh32eq	mvfx0, mvfx1, #0
 470:	05000002 	streq	r0, [r0, #-2]
 474:	00073401 	andeq	r3, r7, r1, lsl #8
 478:	de010500 	cfsh32le	mvfx0, mvfx1, #0
 47c:	0500001e 	streq	r0, [r0, #-30]
 480:	000a2701 	andeq	r2, sl, r1, lsl #14
 484:	c8010500 	stmdagt	r1, {r8, sl}
 488:	05000001 	streq	r0, [r0, #-1]
 48c:	00204701 	eoreq	r4, r0, r1, lsl #14
 490:	b7010500 	strlt	r0, [r1, -r0, lsl #10]
 494:	05000006 	streq	r0, [r0, #-6]
 498:	00230201 	eoreq	r0, r3, r1, lsl #4
 49c:	b2010500 	andlt	r0, r1, #0, 10
 4a0:	0500001f 	streq	r0, [r0, #-31]
 4a4:	0013c801 	andseq	ip, r3, r1, lsl #16
 4a8:	27010500 	strcs	r0, [r1, -r0, lsl #10]
 4ac:	05000005 	streq	r0, [r0, #-5]
 4b0:	0015f901 	andseq	pc, r5, r1, lsl #18
 4b4:	5f010500 	svcpl	0x00010500
 4b8:	05000010 	streq	r0, [r0, #-16]
 4bc:	00119c01 	andseq	r9, r1, r1, lsl #24
 4c0:	ff010500 			; <UNDEFINED> instruction: 0xff010500
 4c4:	05000018 	streq	r0, [r0, #-24]
 4c8:	0012ae01 	andseq	sl, r2, r1, lsl #28
 4cc:	50010500 	andpl	r0, r1, r0, lsl #10
 4d0:	0500001d 	streq	r0, [r0, #-29]
 4d4:	001cfc01 	andseq	pc, ip, r1, lsl #24
 4d8:	b8010500 	stmdalt	r1, {r8, sl}
 4dc:	05000010 	streq	r0, [r0, #-16]
 4e0:	0004da01 	andeq	sp, r4, r1, lsl #20
 4e4:	dd010500 	cfstr32le	mvfx0, [r1, #-0]
 4e8:	05000009 	streq	r0, [r0, #-9]
 4ec:	000a9901 	andeq	r9, sl, r1, lsl #18
 4f0:	6a010500 	bvs	418f8 <multiplylookup+0x38148>
 4f4:	05000003 	streq	r0, [r0, #-3]
 4f8:	00046c01 	andeq	r6, r4, r1, lsl #24
 4fc:	dc010500 	cfstr32le	mvfx0, [r1], {-0}
 500:	05000019 	streq	r0, [r0, #-25]
 504:	000e9601 	andeq	r9, lr, r1, lsl #12
 508:	24010500 	strcs	r0, [r1], #-1280	; 0x500
 50c:	0500000e 	streq	r0, [r0, #-14]
 510:	00024b01 	andeq	r4, r2, r1, lsl #22
 514:	e6010500 	str	r0, [r1], -r0, lsl #10
 518:	05000006 	streq	r0, [r0, #-6]
 51c:	001f4c01 	andseq	r4, pc, r1, lsl #24
 520:	f7010500 			; <UNDEFINED> instruction: 0xf7010500
 524:	0500001e 	streq	r0, [r0, #-30]
 528:	001f7701 	andseq	r7, pc, r1, lsl #14
 52c:	12010500 	andne	r0, r1, #0, 10
 530:	05000008 	streq	r0, [r0, #-8]
 534:	000fcb01 	andeq	ip, pc, r1, lsl #22
 538:	ca010500 	bgt	41940 <multiplylookup+0x38190>
 53c:	05000019 	streq	r0, [r0, #-25]
 540:	001ce701 	andseq	lr, ip, r1, lsl #14
 544:	08010500 	stmdaeq	r1, {r8, sl}
 548:	0500000e 	streq	r0, [r0, #-14]
 54c:	001a6701 	andseq	r6, sl, r1, lsl #14
 550:	f7010500 			; <UNDEFINED> instruction: 0xf7010500
 554:	0500000f 	streq	r0, [r0, #-15]
 558:	001a1201 	andseq	r1, sl, r1, lsl #4
 55c:	14010500 	strne	r0, [r1], #-1280	; 0x500
 560:	05000009 	streq	r0, [r0, #-9]
 564:	00050701 	andeq	r0, r5, r1, lsl #14
 568:	67010500 	strvs	r0, [r1, -r0, lsl #10]
 56c:	0500000b 	streq	r0, [r0, #-11]
 570:	00063d01 	andeq	r3, r6, r1, lsl #26
 574:	ee010500 	cfsh32	mvfx0, mvfx1, #0
 578:	0500000e 	streq	r0, [r0, #-14]
 57c:	0005ec01 	andeq	lr, r5, r1, lsl #24
 580:	be010500 	cfsh32lt	mvfx0, mvfx1, #0
 584:	05000021 	streq	r0, [r0, #-33]	; 0x21
 588:	000bc501 	andeq	ip, fp, r1, lsl #10
 58c:	d8010500 	stmdale	r1, {r8, sl}
 590:	0500001f 	streq	r0, [r0, #-31]
 594:	0021ab01 	eoreq	sl, r1, r1, lsl #22
 598:	60010500 	andvs	r0, r1, r0, lsl #10
 59c:	05000020 	streq	r0, [r0, #-32]
 5a0:	0006f801 	andeq	pc, r6, r1, lsl #16
 5a4:	84010500 	strhi	r0, [r1], #-1280	; 0x500
 5a8:	0500000b 	streq	r0, [r0, #-11]
 5ac:	00203201 	eoreq	r3, r0, r1, lsl #4
 5b0:	90010500 	andls	r0, r1, r0, lsl #10
 5b4:	05000005 	streq	r0, [r0, #-5]
 5b8:	00026901 	andeq	r6, r2, r1, lsl #18
 5bc:	e7010500 	str	r0, [r1, -r0, lsl #10]
 5c0:	0500001d 	streq	r0, [r0, #-29]
 5c4:	001bab01 	andseq	sl, fp, r1, lsl #22
 5c8:	a8010500 	stmdage	r1, {r8, sl}
 5cc:	05000007 	streq	r0, [r0, #-7]
 5d0:	00231f01 	eoreq	r1, r3, r1, lsl #30
 5d4:	e4010500 	str	r0, [r1], #-1280	; 0x500
 5d8:	0500001a 	streq	r0, [r0, #-26]
 5dc:	00197301 	andseq	r7, r9, r1, lsl #6
 5e0:	32010500 	andcc	r0, r1, #0, 10
 5e4:	05000003 	streq	r0, [r0, #-3]
 5e8:	00142a01 	andseq	r2, r4, r1, lsl #20
 5ec:	15010500 	strne	r0, [r1, #-1280]	; 0x500
 5f0:	05000018 	streq	r0, [r0, #-24]
 5f4:	0016cd01 	andseq	ip, r6, r1, lsl #26
 5f8:	61010500 	tstvs	r1, r0, lsl #10
 5fc:	05000014 	streq	r0, [r0, #-20]
 600:	000b2b01 	andeq	r2, fp, r1, lsl #22
 604:	e5010500 	str	r0, [r1, #-1280]	; 0x500
 608:	05000003 	streq	r0, [r0, #-3]
 60c:	00090201 	andeq	r0, r9, r1, lsl #4
 610:	82010500 	andhi	r0, r1, #0, 10
 614:	05000022 	streq	r0, [r0, #-34]	; 0x22
 618:	00031401 	andeq	r1, r3, r1, lsl #8
 61c:	4a010500 	bmi	41a24 <multiplylookup+0x38274>
 620:	0500000f 	streq	r0, [r0, #-15]
 624:	0011c301 	andseq	ip, r1, r1, lsl #6
 628:	76010500 	strvc	r0, [r1], -r0, lsl #10
 62c:	0500000d 	streq	r0, [r0, #-13]
 630:	00216f01 	eoreq	r6, r1, r1, lsl #30
 634:	58010500 	stmdapl	r1, {r8, sl}
 638:	05000009 	streq	r0, [r0, #-9]
 63c:	000ac601 	andeq	ip, sl, r1, lsl #12
 640:	4e010500 	cfsh32mi	mvfx0, mvfx1, #0
 644:	0500001c 	streq	r0, [r0, #-28]
 648:	00041f01 	andeq	r1, r4, r1, lsl #30
 64c:	58010500 	stmdapl	r1, {r8, sl}
 650:	0500001e 	streq	r0, [r0, #-30]
 654:	0018be01 	andseq	fp, r8, r1, lsl #28
 658:	8c010500 	cfstr32hi	mvfx0, [r1], {-0}
 65c:	05000008 	streq	r0, [r0, #-8]
 660:	00000001 	andeq	r0, r0, r1
 664:	fe010500 	cdp2	5, 0, cr0, cr1, cr0, {0}
 668:	05000019 	streq	r0, [r0, #-25]
 66c:	001eb801 	andseq	fp, lr, r1, lsl #16
 670:	c7010500 	strgt	r0, [r1, -r0, lsl #10]
 674:	05000002 	streq	r0, [r0, #-2]
 678:	0013e201 	andseq	lr, r3, r1, lsl #4
 67c:	ec010500 	cfstr32	mvfx0, [r1], {-0}
 680:	0500001f 	streq	r0, [r0, #-31]
 684:	0020a901 	eoreq	sl, r0, r1, lsl #18
 688:	8d010500 	cfstr32hi	mvfx0, [r1, #-0]
 68c:	0500000c 	streq	r0, [r0, #-12]
 690:	00212c01 	eoreq	r2, r1, r1, lsl #24
 694:	aa010500 	bge	41a9c <multiplylookup+0x382ec>
 698:	05000009 	streq	r0, [r0, #-9]
 69c:	00010701 	andeq	r0, r1, r1, lsl #14
 6a0:	a3010500 	movwge	r0, #5376	; 0x1500
 6a4:	05000010 	streq	r0, [r0, #-16]
 6a8:	0018e601 	andseq	lr, r8, r1, lsl #12
 6ac:	c7010500 	strgt	r0, [r1, -r0, lsl #10]
 6b0:	05000020 	streq	r0, [r0, #-32]
 6b4:	00028201 	andeq	r8, r2, r1, lsl #4
 6b8:	26010500 	strcs	r0, [r1], -r0, lsl #10
 6bc:	05000015 	streq	r0, [r0, #-21]
 6c0:	00103701 	andseq	r3, r0, r1, lsl #14
 6c4:	14010500 	strne	r0, [r1], #-1280	; 0x500
 6c8:	05000000 	streq	r0, [r0, #-0]
 6cc:	001a2401 	andseq	r2, sl, r1, lsl #8
 6d0:	01010500 	tsteq	r1, r0, lsl #10
 6d4:	0500000f 	streq	r0, [r0, #-15]
 6d8:	000a6f01 	andeq	r6, sl, r1, lsl #30
 6dc:	b4010500 	strlt	r0, [r1], #-1280	; 0x500
 6e0:	05000011 	streq	r0, [r0, #-17]
 6e4:	00163801 	andseq	r3, r6, r1, lsl #16
 6e8:	1b010500 	blne	41af0 <multiplylookup+0x38340>
 6ec:	0500000b 	streq	r0, [r0, #-11]
 6f0:	000a4e01 	andeq	r4, sl, r1, lsl #28
 6f4:	9f010500 	svcls	0x00010500
 6f8:	05000012 	streq	r0, [r0, #-18]
 6fc:	00151701 	andseq	r1, r5, r1, lsl #14
 700:	7d010500 	cfstr32vc	mvfx0, [r1, #-0]
 704:	05000012 	streq	r0, [r0, #-18]
 708:	00007c01 	andeq	r7, r0, r1, lsl #24
 70c:	ad010500 	cfstr32ge	mvfx0, [r1, #-0]
 710:	0500000e 	streq	r0, [r0, #-14]
 714:	001bf301 	andseq	pc, fp, r1, lsl #6
 718:	bc010500 	cfstr32lt	mvfx0, [r1], {-0}
 71c:	05000015 	streq	r0, [r0, #-21]
 720:	00143d01 	andseq	r3, r4, r1, lsl #26
 724:	2f010500 	svccs	0x00010500
 728:	05000013 	streq	r0, [r0, #-19]
 72c:	00094901 	andeq	r4, r9, r1, lsl #18
 730:	09010500 	stmdbeq	r1, {r8, sl}
 734:	05000015 	streq	r0, [r0, #-21]
 738:	00153401 	andseq	r3, r5, r1, lsl #8
 73c:	ef010500 	svc	0x00010500
 740:	05000019 	streq	r0, [r0, #-25]
 744:	00017801 	andeq	r7, r1, r1, lsl #16
 748:	10010500 	andne	r0, r1, r0, lsl #10
 74c:	0500000f 	streq	r0, [r0, #-15]
 750:	0018af01 	andseq	sl, r8, r1, lsl #30
 754:	cf010500 	svcgt	0x00010500
 758:	0500001e 	streq	r0, [r0, #-30]
 75c:	00076a01 	andeq	r6, r7, r1, lsl #20
 760:	c5010500 	strgt	r0, [r1, #-1280]	; 0x500
 764:	0500001c 	streq	r0, [r0, #-28]
 768:	000d3c01 	andeq	r3, sp, r1, lsl #24
 76c:	84010500 	strhi	r0, [r1], #-1280	; 0x500
 770:	05000021 	streq	r0, [r0, #-33]	; 0x21
 774:	000f7901 	andeq	r7, pc, r1, lsl #18
 778:	bd010500 	cfstr32lt	mvfx0, [r1, #-0]
 77c:	0500001d 	streq	r0, [r0, #-29]
 780:	00040f01 	andeq	r0, r4, r1, lsl #30
 784:	05010500 	streq	r0, [r1, #-1280]	; 0x500
 788:	0500000b 	streq	r0, [r0, #-11]
 78c:	0013a501 	andseq	sl, r3, r1, lsl #10
 790:	52010500 	andpl	r0, r1, #0, 10
 794:	0500000b 	streq	r0, [r0, #-11]
 798:	00219401 	eoreq	r9, r1, r1, lsl #8
 79c:	76010500 	strvc	r0, [r1], -r0, lsl #10
 7a0:	05000008 	streq	r0, [r0, #-8]
 7a4:	00118801 	andseq	r8, r1, r1, lsl #16
 7a8:	1e010500 	cfsh32ne	mvfx0, mvfx1, #0
 7ac:	0500000d 	streq	r0, [r0, #-13]
 7b0:	00136001 	andseq	r6, r3, r1
 7b4:	50010500 	andpl	r0, r1, r0, lsl #10
 7b8:	05000016 	streq	r0, [r0, #-22]
 7bc:	000ae301 	andeq	lr, sl, r1, lsl #6
 7c0:	91010500 	tstls	r1, r0, lsl #10
 7c4:	0500001f 	streq	r0, [r0, #-31]
 7c8:	00225101 	eoreq	r5, r2, r1, lsl #2
 7cc:	0d010500 	cfstr32eq	mvfx0, [r1, #-0]
 7d0:	05000014 	streq	r0, [r0, #-20]
 7d4:	0000e901 	andeq	lr, r0, r1, lsl #18
 7d8:	18010500 	stmdane	r1, {r8, sl}
 7dc:	05000010 	streq	r0, [r0, #-16]
 7e0:	0002a301 	andeq	sl, r2, r1, lsl #6
 7e4:	a3010500 	movwge	r0, #5376	; 0x1500
 7e8:	05000022 	streq	r0, [r0, #-34]	; 0x22
 7ec:	000a7d01 	andeq	r7, sl, r1, lsl #26
 7f0:	2d010500 	cfstr32cs	mvfx0, [r1, #-0]
 7f4:	05000008 	streq	r0, [r0, #-8]
 7f8:	00144c01 	andseq	r4, r4, r1, lsl #24
 7fc:	46010500 	strmi	r0, [r1], -r0, lsl #10
 800:	05000011 	streq	r0, [r0, #-17]
 804:	00079101 	andeq	r9, r7, r1, lsl #2
 808:	ff010500 			; <UNDEFINED> instruction: 0xff010500
 80c:	05000014 	streq	r0, [r0, #-20]
 810:	00100a01 	andseq	r0, r0, r1, lsl #20
 814:	3e010500 	cfsh32cc	mvfx0, mvfx1, #0
 818:	0500000f 	streq	r0, [r0, #-15]
 81c:	0022c401 	eoreq	ip, r2, r1, lsl #8
 820:	07010500 	streq	r0, [r1, -r0, lsl #10]
 824:	05000003 	streq	r0, [r0, #-3]
 828:	00034e01 	andeq	r4, r3, r1, lsl #28
 82c:	03010500 	movweq	r0, #5376	; 0x1500
 830:	05000018 	streq	r0, [r0, #-24]
 834:	0002f101 	andeq	pc, r2, r1, lsl #2
 838:	41010500 	tstmi	r1, r0, lsl #10
 83c:	0500001d 	streq	r0, [r0, #-29]
 840:	001e1301 	andseq	r1, lr, r1, lsl #6
 844:	cc010500 	cfstr32gt	mvfx0, [r1], {-0}
 848:	05000014 	streq	r0, [r0, #-20]
 84c:	0008ee00 	andeq	lr, r8, r0, lsl #28
 850:	00040000 	andeq	r0, r4, r0
 854:	60010500 	andvs	r0, r1, r0, lsl #10
 858:	05000018 	streq	r0, [r0, #-24]
 85c:	000f9e02 	andeq	r9, pc, r2, lsl #28
 860:	a9040500 	stmdbge	r4, {r8, sl}
 864:	05000008 	streq	r0, [r0, #-8]
 868:	00128d05 	andseq	r8, r2, r5, lsl #26
 86c:	70060500 	andvc	r0, r6, r0, lsl #10
 870:	05000022 	streq	r0, [r0, #-34]	; 0x22
 874:	00137e07 	andseq	r7, r3, r7, lsl #28
 878:	f8080500 			; <UNDEFINED> instruction: 0xf8080500
 87c:	0500000c 	streq	r0, [r0, #-12]
 880:	0007fb0a 	andeq	pc, r7, sl, lsl #22
 884:	560b0500 	strpl	r0, [fp], -r0, lsl #10
 888:	05000021 	streq	r0, [r0, #-33]	; 0x21
 88c:	001b860c 	andseq	r8, fp, ip, lsl #12
 890:	4d0d0500 	cfstr32mi	mvfx0, [sp, #-0]
 894:	0500001a 	streq	r0, [r0, #-26]
 898:	00168d0e 	andseq	r8, r6, lr, lsl #26
 89c:	500f0500 	andpl	r0, pc, r0, lsl #10
 8a0:	05000007 	streq	r0, [r0, #-7]
 8a4:	00104510 	andseq	r4, r0, r0, lsl r5
 8a8:	f3110500 	vrshl.u16	d0, d0, d1
 8ac:	05000020 	streq	r0, [r0, #-32]
 8b0:	001dcd12 	andseq	ip, sp, r2, lsl sp
 8b4:	a4130500 	ldrge	r0, [r3], #-1280	; 0x500
 8b8:	05000005 	streq	r0, [r0, #-5]
 8bc:	0003ca14 	andeq	ip, r3, r4, lsl sl
 8c0:	32150500 	andscc	r0, r5, #0, 10
 8c4:	0000001a 	andeq	r0, r0, sl, lsl r0
 8c8:	a5020004 	strge	r0, [r2, #-4]
 8cc:	07000001 	streq	r0, [r0, -r1]
 8d0:	0000008c 	andeq	r0, r0, ip, lsl #1
 8d4:	03010003 	movweq	r0, #4099	; 0x1003
 8d8:	03040512 	movweq	r0, #17682	; 0x4512
 8dc:	52070313 	andpl	r0, r7, #1275068416	; 0x4c000000
 8e0:	04000008 	streq	r0, [r0], #-8
 8e4:	04061403 	streq	r1, [r6], #-1027	; 0x403
 8e8:	04071503 	streq	r1, [r7], #-1283	; 0x503
 8ec:	04041603 	streq	r1, [r4], #-1539	; 0x603
 8f0:	04021703 	streq	r1, [r2], #-1795	; 0x703
 8f4:	235d1805 	cmpcs	sp, #327680	; 0x50000
 8f8:	1a050000 	bne	140900 <multiplylookup+0x137150>
 8fc:	0000246f 	andeq	r2, r0, pc, ror #8
 900:	23c81c05 	biccs	r1, r8, #1280	; 0x500
 904:	1d050000 	stcne	0, cr0, [r5, #-0]
 908:	000023e7 	andeq	r2, r0, r7, ror #7
 90c:	23a71f05 			; <UNDEFINED> instruction: 0x23a71f05
 910:	20050000 	andcs	r0, r5, r0
 914:	0000237d 	andeq	r2, r0, sp, ror r3
 918:	240a2105 	strcs	r2, [sl], #-261	; 0x105
 91c:	00040000 	andeq	r0, r4, r0
 920:	51020004 	tstpl	r2, r4
 924:	07000003 	streq	r0, [r0, -r3]
 928:	0000008c 	andeq	r0, r0, ip, lsl #1
 92c:	03010003 	movweq	r0, #4099	; 0x1003
 930:	52070201 	andpl	r0, r7, #268435456	; 0x10000000
 934:	04000008 	streq	r0, [r0], #-8
 938:	04030203 	streq	r0, [r3], #-515	; 0x203
 93c:	00040004 	andeq	r0, r4, r4
 940:	0003fb02 	andeq	pc, r3, r2, lsl #22
 944:	008c0700 	addeq	r0, ip, r0, lsl #14
 948:	00030000 	andeq	r0, r3, r0
 94c:	04010301 	streq	r0, [r1], #-769	; 0x301
 950:	03020304 	movweq	r0, #8964	; 0x2304
 954:	02030304 	andeq	r0, r3, #4, 6	; 0x10000000
 958:	Address 0x0000000000000958 is out of bounds.


Disassembly of section .debug_str:

00000000 <.debug_str>:
       0:	4c555f5f 	mrrcmi	15, 5, r5, r5, cr15	; <UNPREDICTABLE>
       4:	55434341 	strbpl	r4, [r3, #-833]	; 0x341
       8:	42465f4d 	submi	r5, r6, #308	; 0x134
       c:	5f5f5449 	svcpl	0x005f5449
      10:	00323320 	eorseq	r3, r2, r0, lsr #6
      14:	51485f5f 	cmppl	r8, pc, asr pc
      18:	4942465f 	stmdbmi	r2, {r0, r1, r2, r3, r4, r6, r9, sl, lr}^
      1c:	205f5f54 	subscs	r5, pc, r4, asr pc	; <UNPREDICTABLE>
      20:	2f003531 	svccs	0x00003531
      24:	72657355 	rsbvc	r7, r5, #1409286145	; 0x54000001
      28:	6e6d2f73 	mcrvs	15, 3, r2, cr13, cr3, {3}
      2c:	6e616c6f 	cdpvs	12, 6, cr6, cr1, cr15, {3}
      30:	7469672f 	strbtvc	r6, [r9], #-1839	; 0x72f
      34:	7361722f 	cmnvc	r1, #-268435454	; 0xf0000002
      38:	72656270 	rsbvc	r6, r5, #112, 4
      3c:	69707972 	ldmdbvs	r0!, {r1, r4, r5, r6, r8, fp, ip, sp, lr}^
      40:	6469762f 	strbtvs	r7, [r9], #-1583	; 0x62f
      44:	31306f65 	teqcc	r0, r5, ror #30
      48:	495f5f00 	ldmdbmi	pc, {r8, r9, sl, fp, ip, lr}^	; <UNPREDICTABLE>
      4c:	3436544e 	ldrtcc	r5, [r6], #-1102	; 0x44e
      50:	58414d5f 	stmdapl	r1, {r0, r1, r2, r3, r4, r6, r8, sl, fp, lr}^
      54:	39205f5f 	stmdbcc	r0!, {r0, r1, r2, r3, r4, r6, r8, r9, sl, fp, ip, lr}
      58:	33333232 	teqcc	r3, #536870915	; 0x20000003
      5c:	33303237 	teqcc	r0, #1879048195	; 0x70000003
      60:	34353836 	ldrtcc	r3, [r5], #-2102	; 0x836
      64:	38353737 	ldmdacc	r5!, {r0, r1, r2, r4, r5, r8, r9, sl, ip, sp}
      68:	4c4c3730 	mcrrmi	7, 3, r3, ip, cr0
      6c:	495f5f00 	ldmdbmi	pc, {r8, r9, sl, fp, ip, lr}^	; <UNPREDICTABLE>
      70:	3631544e 	ldrtcc	r5, [r1], -lr, asr #8
      74:	6328435f 	teqvs	r8, #2080374785	; 0x7c000001
      78:	00632029 	rsbeq	r2, r3, r9, lsr #32
      7c:	48555f5f 	ldmdami	r5, {r0, r1, r2, r3, r4, r6, r8, r9, sl, fp, ip, lr}^
      80:	42495f51 	submi	r5, r9, #324	; 0x144
      84:	5f5f5449 	svcpl	0x005f5449
      88:	5f003020 	svcpl	0x00003020
      8c:	4e49555f 	mcrmi	5, 2, r5, cr9, cr15, {2}
      90:	5f343654 	svcpl	0x00343654
      94:	29632843 	stmdbcs	r3!, {r0, r1, r6, fp, sp}^
      98:	23206320 	teqcs	r0, #32, 6	; 0x80000000
      9c:	4c552023 	mrrcmi	0, 2, r2, r5, cr3
      a0:	5f5f004c 	svcpl	0x005f004c
      a4:	455a4953 	ldrbmi	r4, [sl, #-2387]	; 0x953
      a8:	535f464f 	cmppl	pc, #82837504	; 0x4f00000
      ac:	5f455a49 	svcpl	0x00455a49
      b0:	205f5f54 	subscs	r5, pc, r4, asr pc	; <UNPREDICTABLE>
      b4:	5f5f0034 	svcpl	0x005f0034
      b8:	544e4955 	strbpl	r4, [lr], #-2389	; 0x955
      bc:	5f58414d 	svcpl	0x0058414d
      c0:	45505954 	ldrbmi	r5, [r0, #-2388]	; 0x954
      c4:	6c205f5f 	stcvs	15, cr5, [r0], #-380	; 0xfffffe84
      c8:	20676e6f 	rsbcs	r6, r7, pc, ror #28
      cc:	676e6f6c 	strbvs	r6, [lr, -ip, ror #30]!
      d0:	736e7520 	cmnvc	lr, #32, 10	; 0x8000000
      d4:	656e6769 	strbvs	r6, [lr, #-1897]!	; 0x769
      d8:	6e692064 	cdpvs	0, 6, cr2, cr9, cr4, {3}
      dc:	61750074 	cmnvs	r5, r4, ror r0
      e0:	665f7472 			; <UNDEFINED> instruction: 0x665f7472
      e4:	6873756c 	ldmdavs	r3!, {r2, r3, r5, r6, r8, sl, ip, sp, lr}^
      e8:	475f5f00 	ldrbmi	r5, [pc, -r0, lsl #30]
      ec:	415f4343 	cmpmi	pc, r3, asr #6
      f0:	494d4f54 	stmdbmi	sp, {r2, r4, r6, r8, r9, sl, fp, lr}^
      f4:	4f4c5f43 	svcmi	0x004c5f43
      f8:	4c5f474e 	mrrcmi	7, 4, r4, pc, cr14	; <UNPREDICTABLE>
      fc:	5f4b434f 	svcpl	0x004b434f
     100:	45455246 	strbmi	r5, [r5, #-582]	; 0x246
     104:	5f003120 	svcpl	0x00003120
     108:	4c4c555f 	cfstr64mi	mvdx5, [ip], {95}	; 0x5f
     10c:	55434341 	strbpl	r4, [r3, #-833]	; 0x341
     110:	42465f4d 	submi	r5, r6, #308	; 0x134
     114:	5f5f5449 	svcpl	0x005f5449
     118:	00323320 	eorseq	r3, r2, r0, lsr #6
     11c:	4e495f5f 	mcrmi	15, 2, r5, cr9, cr15, {2}
     120:	454c5f54 	strbmi	r5, [ip, #-3924]	; 0xf54
     124:	36545341 	ldrbcc	r5, [r4], -r1, asr #6
     128:	414d5f34 	cmpmi	sp, r4, lsr pc
     12c:	205f5f58 	subscs	r5, pc, r8, asr pc	; <UNPREDICTABLE>
     130:	33323239 	teqcc	r2, #-1879048189	; 0x90000003
     134:	30323733 	eorscc	r3, r2, r3, lsr r7
     138:	35383633 	ldrcc	r3, [r8, #-1587]!	; 0x633
     13c:	35373734 	ldrcc	r3, [r7, #-1844]!	; 0x734
     140:	4c373038 	ldcmi	0, cr3, [r7], #-224	; 0xffffff20
     144:	5f5f004c 	svcpl	0x005f004c
     148:	455a4953 	ldrbmi	r4, [sl, #-2387]	; 0x953
     14c:	505f464f 	subspl	r4, pc, pc, asr #12
     150:	544e494f 	strbpl	r4, [lr], #-2383	; 0x94f
     154:	5f5f5245 	svcpl	0x005f5245
     158:	5f003420 	svcpl	0x00003420
     15c:	544e495f 	strbpl	r4, [lr], #-2399	; 0x95f
     160:	5341465f 	movtpl	r4, #5727	; 0x165f
     164:	4d5f3854 	ldclmi	8, cr3, [pc, #-336]	; 1c <_start-0x7fe4>
     168:	5f5f5841 	svcpl	0x005f5841
     16c:	34313220 	ldrtcc	r3, [r1], #-544	; 0x220
     170:	33383437 	teqcc	r8, #922746880	; 0x37000000
     174:	00373436 	eorseq	r3, r7, r6, lsr r4
     178:	41535f5f 	cmpmi	r3, pc, asr pc
     17c:	4942495f 	stmdbmi	r2, {r0, r1, r2, r3, r4, r6, r8, fp, lr}^
     180:	205f5f54 	subscs	r5, pc, r4, asr pc	; <UNPREDICTABLE>
     184:	5f003631 	svcpl	0x00003631
     188:	4e49555f 	mcrmi	5, 2, r5, cr9, cr15, {2}
     18c:	4d5f3854 	ldclmi	8, cr3, [pc, #-336]	; 44 <_start-0x7fbc>
     190:	5f5f5841 	svcpl	0x005f5841
     194:	35353220 	ldrcc	r3, [r5, #-544]!	; 0x220
     198:	445f5f00 	ldrbmi	r5, [pc], #-3840	; 1a0 <_start-0x7e60>
     19c:	4d5f4c42 	ldclmi	12, cr4, [pc, #-264]	; 9c <_start-0x7f64>
     1a0:	5f5f5841 	svcpl	0x005f5841
     1a4:	64282820 	strtvs	r2, [r8], #-2080	; 0x820
     1a8:	6c62756f 	cfstr64vs	mvdx7, [r2], #-444	; 0xfffffe44
     1ac:	2e312965 	cdpcs	9, 3, cr2, cr1, cr5, {3}
     1b0:	36373937 			; <UNDEFINED> instruction: 0x36373937
     1b4:	33313339 	teqcc	r1, #-469762048	; 0xe4000000
     1b8:	32363834 	eorscc	r3, r6, #52, 16	; 0x340000
     1bc:	37353133 			; <UNDEFINED> instruction: 0x37353133
     1c0:	30332b65 	eorscc	r2, r3, r5, ror #22
     1c4:	00294c38 	eoreq	r4, r9, r8, lsr ip
     1c8:	45445f5f 	strbmi	r5, [r4, #-3935]	; 0xf5f
     1cc:	5f343643 	svcpl	0x00343643
     1d0:	544e414d 	strbpl	r4, [lr], #-333	; 0x14d
     1d4:	4749445f 	smlsldmi	r4, r9, pc, r4	; <UNPREDICTABLE>
     1d8:	31205f5f 	teqcc	r0, pc, asr pc
     1dc:	5f5f0036 	svcpl	0x005f0036
     1e0:	544e4955 	strbpl	r4, [lr], #-2389	; 0x955
     1e4:	41454c5f 	cmpmi	r5, pc, asr ip
     1e8:	5f385453 	svcpl	0x00385453
     1ec:	5f58414d 	svcpl	0x0058414d
     1f0:	3532205f 	ldrcc	r2, [r2, #-95]!	; 0x5f
     1f4:	5f5f0035 	svcpl	0x005f0035
     1f8:	544e4955 	strbpl	r4, [lr], #-2389	; 0x955
     1fc:	5f58414d 	svcpl	0x0058414d
     200:	29632843 	stmdbcs	r3!, {r0, r1, r6, fp, sp}^
     204:	23206320 	teqcs	r0, #32, 6	; 0x80000000
     208:	4c552023 	mrrcmi	0, 2, r2, r5, cr3
     20c:	5f5f004c 	svcpl	0x005f004c
     210:	33434544 	movtcc	r4, #13636	; 0x3544
     214:	494d5f32 	stmdbmi	sp, {r1, r4, r5, r8, r9, sl, fp, ip, lr}^
     218:	205f5f4e 	subscs	r5, pc, lr, asr #30
     21c:	392d4531 	pushcc	{r0, r4, r5, r8, sl, lr}
     220:	00464435 	subeq	r4, r6, r5, lsr r4
     224:	49555f5f 	ldmdbmi	r5, {r0, r1, r2, r3, r4, r6, r8, r9, sl, fp, ip, lr}^
     228:	3436544e 	ldrtcc	r5, [r6], #-1102	; 0x44e
     22c:	5059545f 	subspl	r5, r9, pc, asr r4
     230:	205f5f45 	subscs	r5, pc, r5, asr #30
     234:	676e6f6c 	strbvs	r6, [lr, -ip, ror #30]!
     238:	6e6f6c20 	cdpvs	12, 6, cr6, cr15, cr0, {1}
     23c:	6e752067 	cdpvs	0, 7, cr2, cr5, cr7, {3}
     240:	6e676973 	mcrvs	9, 3, r6, cr7, cr3, {3}
     244:	69206465 	stmdbvs	r0!, {r0, r2, r5, r6, sl, sp, lr}
     248:	5f00746e 	svcpl	0x0000746e
     24c:	4653555f 			; <UNDEFINED> instruction: 0x4653555f
     250:	54434152 	strbpl	r4, [r3], #-338	; 0x152
     254:	5350455f 	cmppl	r0, #398458880	; 0x17c00000
     258:	4e4f4c49 	cdpmi	12, 4, cr4, cr15, cr9, {2}
     25c:	30205f5f 	eorcc	r5, r0, pc, asr pc
     260:	2d503178 	ldfcse	f3, [r0, #-480]	; 0xfffffe20
     264:	52485538 	subpl	r5, r8, #56, 10	; 0xe000000
     268:	555f5f00 	ldrbpl	r5, [pc, #-3840]	; fffff370 <multiplylookup+0xffff5bc0>
     26c:	52464c4c 	subpl	r4, r6, #76, 24	; 0x4c00
     270:	5f544341 	svcpl	0x00544341
     274:	5f4e494d 	svcpl	0x004e494d
     278:	2e30205f 	mrccs	0, 1, r2, cr0, cr15, {2}
     27c:	4c4c5530 	cfstr64mi	mvdx5, [ip], {48}	; 0x30
     280:	5f5f0052 	svcpl	0x005f0052
     284:	414c4c55 	cmpmi	ip, r5, asr ip
     288:	4d554343 	ldclmi	3, cr4, [r5, #-268]	; 0xfffffef4
     28c:	5350455f 	cmppl	r0, #398458880	; 0x17c00000
     290:	4e4f4c49 	cdpmi	12, 4, cr4, cr15, cr9, {2}
     294:	30205f5f 	eorcc	r5, r0, pc, asr pc
     298:	2d503178 	ldfcse	f3, [r0, #-480]	; 0xfffffe20
     29c:	4c553233 	lfmmi	f3, 2, [r5], {51}	; 0x33
     2a0:	5f004b4c 	svcpl	0x00004b4c
     2a4:	4343475f 	movtmi	r4, #14175	; 0x375f
     2a8:	4f54415f 	svcmi	0x0054415f
     2ac:	5f43494d 	svcpl	0x0043494d
     2b0:	54534554 	ldrbpl	r4, [r3], #-1364	; 0x554
     2b4:	444e415f 	strbmi	r4, [lr], #-351	; 0x15f
     2b8:	5445535f 	strbpl	r5, [r5], #-863	; 0x35f
     2bc:	5552545f 	ldrbpl	r5, [r2, #-1119]	; 0x45f
     2c0:	4c415645 	mcrrmi	6, 4, r5, r1, cr5
     2c4:	5f003120 	svcpl	0x00003120
     2c8:	414c555f 	cmpmi	ip, pc, asr r5
     2cc:	4d554343 	ldclmi	3, cr4, [r5, #-268]	; 0xfffffef4
     2d0:	58414d5f 	stmdapl	r1, {r0, r1, r2, r3, r4, r6, r8, sl, fp, lr}^
     2d4:	30205f5f 	eorcc	r5, r0, pc, asr pc
     2d8:	46464658 			; <UNDEFINED> instruction: 0x46464658
     2dc:	46464646 	strbmi	r4, [r6], -r6, asr #12
     2e0:	46464646 	strbmi	r4, [r6], -r6, asr #12
     2e4:	46464646 	strbmi	r4, [r6], -r6, asr #12
     2e8:	332d5046 	teqcc	sp, #70	; 0x46
     2ec:	4b4c5532 	blmi	13157bc <multiplylookup+0x130c00c>
     2f0:	415f5f00 	cmpmi	pc, r0, lsl #30
     2f4:	505f4d52 	subspl	r4, pc, r2, asr sp	; <UNPREDICTABLE>
     2f8:	31205343 	teqcc	r0, r3, asr #6
     2fc:	72617500 	rsbvc	r7, r1, #0, 10
     300:	6e695f74 	mcrvs	15, 3, r5, cr9, cr4, {3}
     304:	5f007469 	svcpl	0x00007469
     308:	5046565f 	subpl	r5, r6, pc, asr r6
     30c:	5f50465f 	svcpl	0x0050465f
     310:	0031205f 	eorseq	r2, r1, pc, asr r0
     314:	43415f5f 	movtmi	r5, #8031	; 0x1f5f
     318:	5f4d5543 	svcpl	0x004d5543
     31c:	5f58414d 	svcpl	0x0058414d
     320:	5830205f 	ldmdapl	r0!, {r0, r1, r2, r3, r4, r6, sp}
     324:	46464637 			; <UNDEFINED> instruction: 0x46464637
     328:	46464646 	strbmi	r4, [r6], -r6, asr #12
     32c:	35312d50 	ldrcc	r2, [r1, #-3408]!	; 0xd50
     330:	5f5f004b 	svcpl	0x005f004b
     334:	43434153 	movtmi	r4, #12627	; 0x3153
     338:	455f4d55 	ldrbmi	r4, [pc, #-3413]	; fffff5eb <multiplylookup+0xffff5e3b>
     33c:	4c495350 	mcrrmi	3, 5, r5, r9, cr0
     340:	5f5f4e4f 	svcpl	0x005f4e4f
     344:	31783020 	cmncc	r8, r0, lsr #32
     348:	48372d50 	ldmdami	r7!, {r4, r6, r8, sl, fp, sp}
     34c:	5f5f004b 	svcpl	0x005f004b
     350:	4d554854 	ldclmi	8, cr4, [r5, #-336]	; 0xfffffeb0
     354:	4e495f42 	cdpmi	15, 4, cr5, cr9, cr2, {2}
     358:	57524554 			; <UNDEFINED> instruction: 0x57524554
     35c:	5f4b524f 	svcpl	0x004b524f
     360:	0031205f 	eorseq	r2, r1, pc, asr r0
     364:	33544547 	cmpcc	r4, #297795584	; 0x11c00000
     368:	5f5f0032 	svcpl	0x005f0032
     36c:	41524653 	cmpmi	r2, r3, asr r6
     370:	455f5443 	ldrbmi	r5, [pc, #-1091]	; ffffff35 <multiplylookup+0xffff6785>
     374:	4c495350 	mcrrmi	3, 5, r5, r9, cr0
     378:	5f5f4e4f 	svcpl	0x005f4e4f
     37c:	31783020 	cmncc	r8, r0, lsr #32
     380:	48372d50 	ldmdami	r7!, {r4, r6, r8, sl, fp, sp}
     384:	5f5f0052 	svcpl	0x005f0052
     388:	52414843 	subpl	r4, r1, #4390912	; 0x430000
     38c:	545f3233 	ldrbpl	r3, [pc], #-563	; 394 <_start-0x7c6c>
     390:	5f455059 	svcpl	0x00455059
     394:	6f6c205f 	svcvs	0x006c205f
     398:	7520676e 	strvc	r6, [r0, #-1902]!	; 0x76e
     39c:	6769736e 	strbvs	r7, [r9, -lr, ror #6]!
     3a0:	2064656e 	rsbcs	r6, r4, lr, ror #10
     3a4:	00746e69 	rsbseq	r6, r4, r9, ror #28
     3a8:	4e475f5f 	mcrmi	15, 2, r5, cr7, cr15, {2}
     3ac:	5f5f4355 	svcpl	0x005f4355
     3b0:	5f003420 	svcpl	0x00003420
     3b4:	4c42445f 	cfstrdmi	mvd4, [r2], {95}	; 0x5f
     3b8:	5341485f 	movtpl	r4, #6239	; 0x185f
     3bc:	464e495f 			; <UNDEFINED> instruction: 0x464e495f
     3c0:	54494e49 	strbpl	r4, [r9], #-3657	; 0xe49
     3c4:	205f5f59 	subscs	r5, pc, r9, asr pc	; <UNPREDICTABLE>
     3c8:	55410031 	strbpl	r0, [r1, #-49]	; 0x31
     3cc:	554d5f58 	strbpl	r5, [sp, #-3928]	; 0xf58
     3d0:	4154535f 	cmpmi	r4, pc, asr r3
     3d4:	45525f54 	ldrbmi	r5, [r2, #-3924]	; 0xf54
     3d8:	78302047 	ldmdavc	r0!, {r0, r1, r2, r6, sp}
     3dc:	31323032 	teqcc	r2, r2, lsr r0
     3e0:	34363035 	ldrtcc	r3, [r6], #-53	; 0x35
     3e4:	415f5f00 	cmpmi	pc, r0, lsl #30
     3e8:	4d554343 	ldclmi	3, cr4, [r5, #-268]	; 0xfffffef4
     3ec:	4942465f 	stmdbmi	r2, {r0, r1, r2, r3, r4, r6, r9, sl, lr}^
     3f0:	205f5f54 	subscs	r5, pc, r4, asr pc	; <UNPREDICTABLE>
     3f4:	5f003531 	svcpl	0x00003531
     3f8:	4c42445f 	cfstrdmi	mvd4, [r2], {95}	; 0x5f
     3fc:	5341485f 	movtpl	r4, #6239	; 0x185f
     400:	4955515f 	ldmdbmi	r5, {r0, r1, r2, r3, r4, r6, r8, ip, lr}^
     404:	4e5f5445 	cdpmi	4, 5, cr5, cr15, cr5, {2}
     408:	5f5f4e41 	svcpl	0x005f4e41
     40c:	5f003120 	svcpl	0x00003120
     410:	4144555f 	cmpmi	r4, pc, asr r5
     414:	4942495f 	stmdbmi	r2, {r0, r1, r2, r3, r4, r6, r8, fp, lr}^
     418:	205f5f54 	subscs	r5, pc, r4, asr pc	; <UNPREDICTABLE>
     41c:	5f003233 	svcpl	0x00003233
     420:	43414c5f 	movtmi	r4, #7263	; 0x1c5f
     424:	5f4d5543 	svcpl	0x004d5543
     428:	54494249 	strbpl	r4, [r9], #-585	; 0x249
     42c:	33205f5f 	teqcc	r0, #380	; 0x17c
     430:	5f5f0032 	svcpl	0x005f0032
     434:	5f544e49 	svcpl	0x00544e49
     438:	5f58414d 	svcpl	0x0058414d
     43c:	3132205f 	teqcc	r2, pc, asr r0
     440:	38343734 	ldmdacc	r4!, {r2, r4, r5, r8, r9, sl, ip, sp}
     444:	37343633 			; <UNDEFINED> instruction: 0x37343633
     448:	575f5f00 	ldrbpl	r5, [pc, -r0, lsl #30]
     44c:	5f544e49 	svcpl	0x00544e49
     450:	5f4e494d 	svcpl	0x004e494d
     454:	5530205f 	ldrpl	r2, [r0, #-95]!	; 0x5f
     458:	445f5f00 	ldrbmi	r5, [pc], #-3840	; 460 <_start-0x7ba0>
     45c:	4d494345 	stclmi	3, cr4, [r9, #-276]	; 0xfffffeec
     460:	445f4c41 	ldrbmi	r4, [pc], #-3137	; 468 <_start-0x7b98>
     464:	5f5f4749 	svcpl	0x005f4749
     468:	00373120 	eorseq	r3, r7, r0, lsr #2
     46c:	53555f5f 	cmppl	r5, #380	; 0x17c
     470:	43415246 	movtmi	r5, #4678	; 0x1246
     474:	42465f54 	submi	r5, r6, #84, 30	; 0x150
     478:	5f5f5449 	svcpl	0x005f5449
     47c:	5f003820 	svcpl	0x00003820
     480:	4e49555f 	mcrmi	5, 2, r5, cr9, cr15, {2}
     484:	41465f54 	cmpmi	r6, r4, asr pc
     488:	32335453 	eorscc	r5, r3, #1392508928	; 0x53000000
     48c:	58414d5f 	stmdapl	r1, {r0, r1, r2, r3, r4, r6, r8, sl, fp, lr}^
     490:	34205f5f 	strtcc	r5, [r0], #-3935	; 0xf5f
     494:	39343932 	ldmdbcc	r4!, {r1, r4, r5, r8, fp, ip, sp}
     498:	39323736 	ldmdbcc	r2!, {r1, r2, r4, r5, r8, r9, sl, ip, sp}
     49c:	5f005535 	svcpl	0x00005535
     4a0:	42444c5f 	submi	r4, r4, #24320	; 0x5f00
     4a4:	414d5f4c 	cmpmi	sp, ip, asr #30
     4a8:	205f5f58 	subscs	r5, pc, r8, asr pc	; <UNPREDICTABLE>
     4ac:	39372e31 	ldmdbcc	r7!, {r0, r4, r5, r9, sl, fp, sp}
     4b0:	33393637 	teqcc	r9, #57671680	; 0x3700000
     4b4:	38343331 	ldmdacc	r4!, {r0, r4, r5, r8, r9, ip, sp}
     4b8:	31333236 	teqcc	r3, r6, lsr r2
     4bc:	2b653735 	blcs	194e198 <multiplylookup+0x19449e8>
     4c0:	4c383033 	ldcmi	0, cr3, [r8], #-204	; 0xffffff34
     4c4:	4c5f5f00 	mrrcmi	15, 0, r5, pc, cr0	; <UNPREDICTABLE>
     4c8:	5f4c4244 	svcpl	0x004c4244
     4cc:	544e414d 	strbpl	r4, [lr], #-333	; 0x14d
     4d0:	4749445f 	smlsldmi	r4, r9, pc, r4	; <UNPREDICTABLE>
     4d4:	35205f5f 	strcc	r5, [r0, #-3935]!	; 0xf5f
     4d8:	5f5f0033 	svcpl	0x005f0033
     4dc:	41524653 	cmpmi	r2, r3, asr r6
     4e0:	495f5443 	ldmdbmi	pc, {r0, r1, r6, sl, ip, lr}^	; <UNPREDICTABLE>
     4e4:	5f544942 	svcpl	0x00544942
     4e8:	0030205f 	eorseq	r2, r0, pc, asr r0
     4ec:	49535f5f 	ldmdbmi	r3, {r0, r1, r2, r3, r4, r6, r8, r9, sl, fp, ip, lr}^
     4f0:	545f455a 	ldrbpl	r4, [pc], #-1370	; 4f8 <_start-0x7b08>
     4f4:	5f455059 	svcpl	0x00455059
     4f8:	6e75205f 	mrcvs	0, 3, r2, cr5, cr15, {2}
     4fc:	6e676973 	mcrvs	9, 3, r6, cr7, cr3, {3}
     500:	69206465 	stmdbvs	r0!, {r0, r2, r5, r6, sl, sp, lr}
     504:	5f00746e 	svcpl	0x0000746e
     508:	52464c5f 	subpl	r4, r6, #24320	; 0x5f00
     50c:	5f544341 	svcpl	0x00544341
     510:	5f58414d 	svcpl	0x0058414d
     514:	5830205f 	ldmdapl	r0!, {r0, r1, r2, r3, r4, r6, sp}
     518:	46464637 			; <UNDEFINED> instruction: 0x46464637
     51c:	46464646 	strbmi	r4, [r6], -r6, asr #12
     520:	31332d50 	teqcc	r3, r0, asr sp
     524:	5f00524c 	svcpl	0x0000524c
     528:	4345445f 	movtmi	r4, #21599	; 0x545f
     52c:	535f3436 	cmppl	pc, #905969664	; 0x36000000
     530:	4f4e4255 	svcmi	0x004e4255
     534:	4c414d52 	mcrrmi	13, 5, r4, r1, cr2
     538:	4e494d5f 	mcrmi	13, 2, r4, cr9, cr15, {2}
     53c:	30205f5f 	eorcc	r5, r0, pc, asr pc
     540:	3030302e 	eorscc	r3, r0, lr, lsr #32
     544:	30303030 	eorscc	r3, r0, r0, lsr r0
     548:	30303030 	eorscc	r3, r0, r0, lsr r0
     54c:	31303030 	teqcc	r0, r0, lsr r0
     550:	38332d45 	ldmdacc	r3!, {r0, r2, r6, r8, sl, fp, sp}
     554:	00444433 	subeq	r4, r4, r3, lsr r4
     558:	4c465f5f 	mcrrmi	15, 5, r5, r6, cr15
     55c:	494d5f54 	stmdbmi	sp, {r2, r4, r6, r8, r9, sl, fp, ip, lr}^
     560:	205f5f4e 	subscs	r5, pc, lr, asr #30
     564:	37312e31 			; <UNDEFINED> instruction: 0x37312e31
     568:	34393435 	ldrtcc	r3, [r9], #-1077	; 0x435
     56c:	38303533 	ldmdacc	r0!, {r0, r1, r4, r5, r8, sl, ip, sp}
     570:	38323232 	ldmdacc	r2!, {r1, r4, r5, r9, ip, sp}
     574:	2d653537 	cfstr64cs	mvdx3, [r5, #-220]!	; 0xffffff24
     578:	00463833 	subeq	r3, r6, r3, lsr r8
     57c:	42445f5f 	submi	r5, r4, #380	; 0x17c
     580:	414d5f4c 	cmpmi	sp, ip, asr #30
     584:	445f544e 	ldrbmi	r5, [pc], #-1102	; 58c <_start-0x7a74>
     588:	5f5f4749 	svcpl	0x005f4749
     58c:	00333520 	eorseq	r3, r3, r0, lsr #10
     590:	4c555f5f 	mrrcmi	15, 5, r5, r5, cr15	; <UNPREDICTABLE>
     594:	4152464c 	cmpmi	r2, ip, asr #12
     598:	495f5443 	ldmdbmi	pc, {r0, r1, r6, sl, ip, lr}^	; <UNPREDICTABLE>
     59c:	5f544942 	svcpl	0x00544942
     5a0:	0030205f 	eorseq	r2, r0, pc, asr r0
     5a4:	5f585541 	svcpl	0x00585541
     5a8:	435f554d 	cmpmi	pc, #322961408	; 0x13400000
     5ac:	5f4c544e 	svcpl	0x004c544e
     5b0:	20474552 	subcs	r4, r7, r2, asr r5
     5b4:	30327830 	eorscc	r7, r2, r0, lsr r8
     5b8:	30353132 	eorscc	r3, r5, r2, lsr r1
     5bc:	5f003036 	svcpl	0x00003036
     5c0:	4e49555f 	mcrmi	5, 2, r5, cr9, cr15, {2}
     5c4:	454c5f54 	strbmi	r5, [ip, #-3924]	; 0xf54
     5c8:	36545341 	ldrbcc	r5, [r4], -r1, asr #6
     5cc:	59545f34 	ldmdbpl	r4, {r2, r4, r5, r8, r9, sl, fp, ip, lr}^
     5d0:	5f5f4550 	svcpl	0x005f4550
     5d4:	6e6f6c20 	cdpvs	12, 6, cr6, cr15, cr0, {1}
     5d8:	6f6c2067 	svcvs	0x006c2067
     5dc:	7520676e 	strvc	r6, [r0, #-1902]!	; 0x76e
     5e0:	6769736e 	strbvs	r7, [r9, -lr, ror #6]!
     5e4:	2064656e 	rsbcs	r6, r4, lr, ror #10
     5e8:	00746e69 	rsbseq	r6, r4, r9, ror #28
     5ec:	4c555f5f 	mrrcmi	15, 5, r5, r5, cr15	; <UNPREDICTABLE>
     5f0:	43415246 	movtmi	r5, #4678	; 0x1246
     5f4:	494d5f54 	stmdbmi	sp, {r2, r4, r6, r8, r9, sl, fp, ip, lr}^
     5f8:	205f5f4e 	subscs	r5, pc, lr, asr #30
     5fc:	55302e30 	ldrpl	r2, [r0, #-3632]!	; 0xe30
     600:	5f00524c 	svcpl	0x0000524c
     604:	544e495f 	strbpl	r4, [lr], #-2399	; 0x95f
     608:	5f525450 	svcpl	0x00525450
     60c:	45505954 	ldrbmi	r5, [r0, #-2388]	; 0x954
     610:	69205f5f 	stmdbvs	r0!, {r0, r1, r2, r3, r4, r6, r8, r9, sl, fp, ip, lr}
     614:	5f00746e 	svcpl	0x0000746e
     618:	42444c5f 	submi	r4, r4, #24320	; 0x5f00
     61c:	494d5f4c 	stmdbmi	sp, {r2, r3, r6, r8, r9, sl, fp, ip, lr}^
     620:	205f5f4e 	subscs	r5, pc, lr, asr #30
     624:	32322e32 	eorscc	r2, r2, #800	; 0x320
     628:	33373035 	teqcc	r7, #53	; 0x35
     62c:	35383538 	ldrcc	r3, [r8, #-1336]!	; 0x538
     630:	30323730 	eorscc	r3, r2, r0, lsr r7
     634:	2d653431 	cfstrdcs	mvd3, [r5, #-196]!	; 0xffffff3c
     638:	4c383033 	ldcmi	0, cr3, [r8], #-204	; 0xffffff34
     63c:	555f5f00 	ldrbpl	r5, [pc, #-3840]	; fffff744 <multiplylookup+0xffff5f94>
     640:	4152464c 	cmpmi	r2, ip, asr #12
     644:	465f5443 	ldrbmi	r5, [pc], -r3, asr #8
     648:	5f544942 	svcpl	0x00544942
     64c:	3233205f 	eorscc	r2, r3, #95	; 0x5f
     650:	555f5f00 	ldrbpl	r5, [pc, #-3840]	; fffff758 <multiplylookup+0xffff5fa8>
     654:	38544e49 	ldmdacc	r4, {r0, r3, r6, r9, sl, fp, lr}^
     658:	5059545f 	subspl	r5, r9, pc, asr r4
     65c:	205f5f45 	subscs	r5, pc, r5, asr #30
     660:	69736e75 	ldmdbvs	r3!, {r0, r2, r4, r5, r6, r9, sl, fp, sp, lr}^
     664:	64656e67 	strbtvs	r6, [r5], #-3687	; 0xe67
     668:	61686320 	cmnvs	r8, r0, lsr #6
     66c:	5f5f0072 	svcpl	0x005f0072
     670:	4c42444c 	cfstrdmi	mvd4, [r2], {76}	; 0x4c
     674:	4e494d5f 	mcrmi	13, 2, r4, cr9, cr15, {2}
     678:	5f30315f 	svcpl	0x0030315f
     67c:	5f505845 	svcpl	0x00505845
     680:	2d28205f 	stccs	0, cr2, [r8, #-380]!	; 0xfffffe84
     684:	29373033 	ldmdbcs	r7!, {r0, r1, r4, r5, ip, sp}
     688:	4c5f5f00 	mrrcmi	15, 0, r5, pc, cr0	; <UNPREDICTABLE>
     68c:	5f4c4244 	svcpl	0x004c4244
     690:	5f58414d 	svcpl	0x0058414d
     694:	5f505845 	svcpl	0x00505845
     698:	3031205f 	eorscc	r2, r1, pc, asr r0
     69c:	5f003432 	svcpl	0x00003432
     6a0:	4749535f 	smlsldmi	r5, r9, pc, r3	; <UNPREDICTABLE>
     6a4:	4f54415f 	svcmi	0x0054415f
     6a8:	5f43494d 	svcpl	0x0043494d
     6ac:	45505954 	ldrbmi	r5, [r0, #-2388]	; 0x954
     6b0:	69205f5f 	stmdbvs	r0!, {r0, r1, r2, r3, r4, r6, r8, r9, sl, fp, ip, lr}
     6b4:	5f00746e 	svcpl	0x0000746e
     6b8:	4345445f 	movtmi	r4, #21599	; 0x545f
     6bc:	4d5f3436 	cfldrdmi	mvd3, [pc, #-216]	; 5ec <_start-0x7a14>
     6c0:	455f5841 	ldrbmi	r5, [pc, #-2113]	; fffffe87 <multiplylookup+0xffff66d7>
     6c4:	5f5f5058 	svcpl	0x005f5058
     6c8:	35383320 	ldrcc	r3, [r8, #-800]!	; 0x320
     6cc:	535f5f00 	cmppl	pc, #0, 30
     6d0:	4f455a49 	svcmi	0x00455a49
     6d4:	4f4c5f46 	svcmi	0x004c5f46
     6d8:	445f474e 	ldrbmi	r4, [pc], #-1870	; 6e0 <_start-0x7920>
     6dc:	4c42554f 	cfstr64mi	mvdx5, [r2], {79}	; 0x4f
     6e0:	205f5f45 	subscs	r5, pc, r5, asr #30
     6e4:	5f5f0038 	svcpl	0x005f0038
     6e8:	43415246 	movtmi	r5, #4678	; 0x1246
     6ec:	42465f54 	submi	r5, r6, #84, 30	; 0x150
     6f0:	5f5f5449 	svcpl	0x005f5449
     6f4:	00353120 	eorseq	r3, r5, r0, lsr #2
     6f8:	4c4c5f5f 	mcrrmi	15, 5, r5, ip, cr15
     6fc:	43415246 	movtmi	r5, #4678	; 0x1246
     700:	414d5f54 	cmpmi	sp, r4, asr pc
     704:	205f5f58 	subscs	r5, pc, r8, asr pc	; <UNPREDICTABLE>
     708:	46375830 			; <UNDEFINED> instruction: 0x46375830
     70c:	46464646 	strbmi	r4, [r6], -r6, asr #12
     710:	46464646 	strbmi	r4, [r6], -r6, asr #12
     714:	46464646 	strbmi	r4, [r6], -r6, asr #12
     718:	2d504646 	ldclcs	6, cr4, [r0, #-280]	; 0xfffffee8
     71c:	4c4c3336 	mcrrmi	3, 3, r3, ip, cr6
     720:	5f5f0052 	svcpl	0x005f0052
     724:	455a4953 	ldrbmi	r4, [sl, #-2387]	; 0x953
     728:	4c5f464f 	mrrcmi	6, 4, r4, pc, cr15	; <UNPREDICTABLE>
     72c:	5f474e4f 	svcpl	0x00474e4f
     730:	0034205f 	eorseq	r2, r4, pc, asr r0
     734:	45445f5f 	strbmi	r5, [r4, #-3935]	; 0xf5f
     738:	5f323343 	svcpl	0x00323343
     73c:	5f58414d 	svcpl	0x0058414d
     740:	2e39205f 	mrccs	0, 1, r2, cr9, cr15, {2}
     744:	39393939 	ldmdbcc	r9!, {r0, r3, r4, r5, r8, fp, ip, sp}
     748:	39453939 	stmdbcc	r5, {r0, r3, r4, r5, r8, fp, ip, sp}^
     74c:	00464436 	subeq	r4, r6, r6, lsr r4
     750:	5f585541 	svcpl	0x00585541
     754:	4d5f554d 	cfldr64mi	mvdx5, [pc, #-308]	; 628 <_start-0x79d8>
     758:	525f5243 	subspl	r5, pc, #805306372	; 0x30000004
     75c:	30204745 	eorcc	r4, r0, r5, asr #14
     760:	32303278 	eorscc	r3, r0, #120, 4	; 0x80000007
     764:	35303531 	ldrcc	r3, [r0, #-1329]!	; 0x531
     768:	5f5f0030 	svcpl	0x005f0030
     76c:	495f4154 	ldmdbmi	pc, {r2, r4, r6, r8, lr}^	; <UNPREDICTABLE>
     770:	5f544942 	svcpl	0x00544942
     774:	3436205f 	ldrtcc	r2, [r6], #-95	; 0x5f
     778:	4c5f5f00 	mrrcmi	15, 0, r5, pc, cr0	; <UNPREDICTABLE>
     77c:	5f4c4244 	svcpl	0x004c4244
     780:	5f534148 	svcpl	0x00534148
     784:	49464e49 	stmdbmi	r6, {r0, r3, r6, r9, sl, fp, lr}^
     788:	5954494e 	ldmdbpl	r4, {r1, r2, r3, r6, r8, fp, lr}^
     78c:	31205f5f 	teqcc	r0, pc, asr pc
     790:	535f5f00 	cmppl	pc, #0, 30
     794:	4f455a49 	svcmi	0x00455a49
     798:	54505f46 	ldrbpl	r5, [r0], #-3910	; 0xf46
     79c:	46494452 			; <UNDEFINED> instruction: 0x46494452
     7a0:	5f545f46 	svcpl	0x00545f46
     7a4:	0034205f 	eorseq	r2, r4, pc, asr r0
     7a8:	41535f5f 	cmpmi	r3, pc, asr pc
     7ac:	4d554343 	ldclmi	3, cr4, [r5, #-268]	; 0xfffffef4
     7b0:	4942465f 	stmdbmi	r2, {r0, r1, r2, r3, r4, r6, r9, sl, lr}^
     7b4:	205f5f54 	subscs	r5, pc, r4, asr pc	; <UNPREDICTABLE>
     7b8:	5f5f0037 	svcpl	0x005f0037
     7bc:	38544e49 	ldmdacc	r4, {r0, r3, r6, r9, sl, fp, lr}^
     7c0:	5059545f 	subspl	r5, r9, pc, asr r4
     7c4:	205f5f45 	subscs	r5, pc, r5, asr #30
     7c8:	6e676973 	mcrvs	9, 3, r6, cr7, cr3, {3}
     7cc:	63206465 	teqvs	r0, #1694498816	; 0x65000000
     7d0:	00726168 	rsbseq	r6, r2, r8, ror #2
     7d4:	59425f5f 	stmdbpl	r2, {r0, r1, r2, r3, r4, r6, r8, r9, sl, fp, ip, lr}^
     7d8:	4f5f4554 	svcmi	0x005f4554
     7dc:	52454452 	subpl	r4, r5, #1375731712	; 0x52000000
     7e0:	5f205f5f 	svcpl	0x00205f5f
     7e4:	44524f5f 	ldrbmi	r4, [r2], #-3935	; 0xf5f
     7e8:	4c5f5245 	lfmmi	f5, 2, [pc], {69}	; 0x45
     7ec:	4c545449 	cfldrdmi	mvd5, [r4], {73}	; 0x49
     7f0:	4e455f45 	cdpmi	15, 4, cr5, cr5, cr5, {2}
     7f4:	4e414944 	cdpmi	9, 4, cr4, cr1, cr4, {2}
     7f8:	41005f5f 	tstmi	r0, pc, asr pc
     7fc:	455f5855 	ldrbmi	r5, [pc, #-2133]	; ffffffaf <multiplylookup+0xffff67ff>
     800:	4c42414e 	stfmie	f4, [r2], {78}	; 0x4e
     804:	30205345 	eorcc	r5, r0, r5, asr #6
     808:	32303278 	eorscc	r3, r0, #120, 4	; 0x80000007
     80c:	30303531 	eorscc	r3, r0, r1, lsr r5
     810:	5f5f0034 	svcpl	0x005f0034
     814:	43415246 	movtmi	r5, #4678	; 0x1246
     818:	50455f54 	subpl	r5, r5, r4, asr pc
     81c:	4f4c4953 	svcmi	0x004c4953
     820:	205f5f4e 	subscs	r5, pc, lr, asr #30
     824:	50317830 	eorspl	r7, r1, r0, lsr r8
     828:	5235312d 	eorspl	r3, r5, #1073741835	; 0x4000000b
     82c:	505f5f00 	subspl	r5, pc, r0, lsl #30
     830:	4d474152 	stfmie	f4, [r7, #-328]	; 0xfffffeb8
     834:	45525f41 	ldrbmi	r5, [r2, #-3905]	; 0xf41
     838:	49464544 	stmdbmi	r6, {r2, r6, r8, sl, lr}^
     83c:	455f454e 	ldrbmi	r4, [pc, #-1358]	; 2f6 <_start-0x7d0a>
     840:	414e5458 	cmpmi	lr, r8, asr r4
     844:	3120454d 	teqcc	r0, sp, asr #10
     848:	465f5f00 	ldrbmi	r5, [pc], -r0, lsl #30
     84c:	54414f4c 	strbpl	r4, [r1], #-3916	; 0xf4c
     850:	524f575f 	subpl	r5, pc, #24903680	; 0x17c0000
     854:	524f5f44 	subpl	r5, pc, #68, 30	; 0x110
     858:	5f524544 	svcpl	0x00524544
     85c:	5f5f205f 	svcpl	0x005f205f
     860:	4544524f 	strbmi	r5, [r4, #-591]	; 0x24f
     864:	494c5f52 	stmdbmi	ip, {r1, r4, r6, r8, r9, sl, fp, ip, lr}^
     868:	454c5454 	strbmi	r5, [ip, #-1108]	; 0x454
     86c:	444e455f 	strbmi	r4, [lr], #-1375	; 0x55f
     870:	5f4e4149 	svcpl	0x004e4149
     874:	5f5f005f 	svcpl	0x005f005f
     878:	43554e47 	cmpmi	r5, #1136	; 0x470
     87c:	554e475f 	strbpl	r4, [lr, #-1887]	; 0x75f
     880:	4c4e495f 	mcrrmi	9, 5, r4, lr, cr15
     884:	5f454e49 	svcpl	0x00454e49
     888:	0031205f 	eorseq	r2, r1, pc, asr r0
     88c:	414c5f5f 	cmpmi	ip, pc, asr pc
     890:	4d554343 	ldclmi	3, cr4, [r5, #-268]	; 0xfffffef4
     894:	5350455f 	cmppl	r0, #398458880	; 0x17c00000
     898:	4e4f4c49 	cdpmi	12, 4, cr4, cr15, cr9, {2}
     89c:	30205f5f 	eorcc	r5, r0, pc, asr pc
     8a0:	2d503178 	ldfcse	f3, [r0, #-480]	; 0xfffffe20
     8a4:	4b4c3133 	blmi	130cd78 <multiplylookup+0x13035c8>
     8a8:	46504700 	ldrbmi	r4, [r0], -r0, lsl #14
     8ac:	314c4553 	cmpcc	ip, r3, asr r5
     8b0:	32783020 	rsbscc	r3, r8, #32
     8b4:	30303230 	eorscc	r3, r0, r0, lsr r2
     8b8:	00343030 	eorseq	r3, r4, r0, lsr r0
     8bc:	4e495f5f 	mcrmi	15, 2, r5, cr9, cr15, {2}
     8c0:	5f323354 	svcpl	0x00323354
     8c4:	5f58414d 	svcpl	0x0058414d
     8c8:	3132205f 	teqcc	r2, pc, asr r0
     8cc:	38343734 	ldmdacc	r4!, {r2, r4, r5, r8, r9, sl, ip, sp}
     8d0:	37343633 			; <UNDEFINED> instruction: 0x37343633
     8d4:	5f5f004c 	svcpl	0x005f004c
     8d8:	5f544e49 	svcpl	0x00544e49
     8dc:	54534146 	ldrbpl	r4, [r3], #-326	; 0x146
     8e0:	545f3631 	ldrbpl	r3, [pc], #-1585	; 8e8 <_start-0x7718>
     8e4:	5f455059 	svcpl	0x00455059
     8e8:	6e69205f 	mcrvs	0, 3, r2, cr9, cr15, {2}
     8ec:	5f5f0074 	svcpl	0x005f0074
     8f0:	53455355 	movtpl	r5, #21333	; 0x5355
     8f4:	494e495f 	stmdbmi	lr, {r0, r1, r2, r3, r4, r6, r8, fp, lr}^
     8f8:	4e494654 	mcrmi	6, 2, r4, cr9, cr4, {2}
     8fc:	205f5f49 	subscs	r5, pc, r9, asr #30
     900:	5f5f0031 	svcpl	0x005f0031
     904:	55434341 	strbpl	r4, [r3, #-833]	; 0x341
     908:	42495f4d 	submi	r5, r9, #308	; 0x134
     90c:	5f5f5449 	svcpl	0x005f5449
     910:	00363120 	eorseq	r3, r6, r0, lsr #2
     914:	464c5f5f 			; <UNDEFINED> instruction: 0x464c5f5f
     918:	54434152 	strbpl	r4, [r3], #-338	; 0x152
     91c:	4e494d5f 	mcrmi	13, 2, r4, cr9, cr15, {2}
     920:	28205f5f 	stmdacs	r0!, {r0, r1, r2, r3, r4, r6, r8, r9, sl, fp, ip, lr}
     924:	352e302d 	strcc	r3, [lr, #-45]!	; 0x2d
     928:	302d524c 	eorcc	r5, sp, ip, asr #4
     92c:	524c352e 	subpl	r3, ip, #192937984	; 0xb800000
     930:	5f5f0029 	svcpl	0x005f0029
     934:	5f544e49 	svcpl	0x00544e49
     938:	54534146 	ldrbpl	r4, [r3], #-326	; 0x146
     93c:	59545f38 	ldmdbpl	r4, {r3, r4, r5, r8, r9, sl, fp, ip, lr}^
     940:	5f5f4550 	svcpl	0x005f4550
     944:	746e6920 	strbtvc	r6, [lr], #-2336	; 0x920
     948:	555f5f00 	ldrbpl	r5, [pc, #-3840]	; fffffa50 <multiplylookup+0xffff62a0>
     94c:	495f5154 	ldmdbmi	pc, {r2, r4, r6, r8, ip, lr}^	; <UNPREDICTABLE>
     950:	5f544942 	svcpl	0x00544942
     954:	0030205f 	eorseq	r2, r0, pc, asr r0
     958:	41555f5f 	cmpmi	r5, pc, asr pc
     95c:	4d554343 	ldclmi	3, cr4, [r5, #-268]	; 0xfffffef4
     960:	58414d5f 	stmdapl	r1, {r0, r1, r2, r3, r4, r6, r8, sl, fp, lr}^
     964:	30205f5f 	eorcc	r5, r0, pc, asr pc
     968:	46464658 			; <UNDEFINED> instruction: 0x46464658
     96c:	46464646 	strbmi	r4, [r6], -r6, asr #12
     970:	312d5046 	teqcc	sp, r6, asr #32
     974:	004b5536 	subeq	r5, fp, r6, lsr r5
     978:	4e495f5f 	mcrmi	15, 2, r5, cr9, cr15, {2}
     97c:	5f363154 	svcpl	0x00363154
     980:	45505954 	ldrbmi	r5, [r0, #-2388]	; 0x954
     984:	73205f5f 	teqvc	r0, #380	; 0x17c
     988:	74726f68 	ldrbtvc	r6, [r2], #-3944	; 0xf68
     98c:	746e6920 	strbtvc	r6, [lr], #-2336	; 0x920
     990:	4c5f5f00 	mrrcmi	15, 0, r5, pc, cr0	; <UNPREDICTABLE>
     994:	5f4c4244 	svcpl	0x004c4244
     998:	5f534148 	svcpl	0x00534148
     99c:	45495551 	strbmi	r5, [r9, #-1361]	; 0x551
     9a0:	414e5f54 	cmpmi	lr, r4, asr pc
     9a4:	205f5f4e 	subscs	r5, pc, lr, asr #30
     9a8:	5f5f0031 	svcpl	0x005f0031
     9ac:	43414c4c 	movtmi	r4, #7244	; 0x1c4c
     9b0:	5f4d5543 	svcpl	0x004d5543
     9b4:	49535045 	ldmdbmi	r3, {r0, r2, r6, ip, lr}^
     9b8:	5f4e4f4c 	svcpl	0x004e4f4c
     9bc:	7830205f 	ldmdavc	r0!, {r0, r1, r2, r3, r4, r6, sp}
     9c0:	332d5031 	teqcc	sp, #49	; 0x31
     9c4:	4b4c4c31 	blmi	1313a90 <multiplylookup+0x130a2e0>
     9c8:	535f5f00 	cmppl	pc, #0, 30
     9cc:	4f455a49 	svcmi	0x00455a49
     9d0:	4f445f46 	svcmi	0x00445f46
     9d4:	454c4255 	strbmi	r4, [ip, #-597]	; 0x255
     9d8:	38205f5f 	stmdacc	r0!, {r0, r1, r2, r3, r4, r6, r8, r9, sl, fp, ip, lr}
     9dc:	535f5f00 	cmppl	pc, #0, 30
     9e0:	43415246 	movtmi	r5, #4678	; 0x1246
     9e4:	494d5f54 	stmdbmi	sp, {r2, r4, r6, r8, r9, sl, fp, ip, lr}^
     9e8:	205f5f4e 	subscs	r5, pc, lr, asr #30
     9ec:	2e302d28 	cdpcs	13, 3, cr2, cr0, cr8, {1}
     9f0:	2d524835 	ldclcs	8, cr4, [r2, #-212]	; 0xffffff2c
     9f4:	48352e30 	ldmdami	r5!, {r4, r5, r9, sl, fp, sp}
     9f8:	5f002952 	svcpl	0x00002952
     9fc:	4e49555f 	mcrmi	5, 2, r5, cr9, cr15, {2}
     a00:	41465f54 	cmpmi	r6, r4, asr pc
     a04:	34365453 	ldrtcc	r5, [r6], #-1107	; 0x453
     a08:	58414d5f 	stmdapl	r1, {r0, r1, r2, r3, r4, r6, r8, sl, fp, lr}^
     a0c:	31205f5f 	teqcc	r0, pc, asr pc
     a10:	36343438 			; <UNDEFINED> instruction: 0x36343438
     a14:	30343437 	eorscc	r3, r4, r7, lsr r4
     a18:	30373337 	eorscc	r3, r7, r7, lsr r3
     a1c:	31353539 	teqcc	r5, r9, lsr r5
     a20:	55353136 	ldrpl	r3, [r5, #-310]!	; 0x136
     a24:	5f004c4c 	svcpl	0x00004c4c
     a28:	4345445f 	movtmi	r4, #21599	; 0x545f
     a2c:	535f3233 	cmppl	pc, #805306371	; 0x30000003
     a30:	4f4e4255 	svcmi	0x004e4255
     a34:	4c414d52 	mcrrmi	13, 5, r4, r1, cr2
     a38:	4e494d5f 	mcrmi	13, 2, r4, cr9, cr15, {2}
     a3c:	30205f5f 	eorcc	r5, r0, pc, asr pc
     a40:	3030302e 	eorscc	r3, r0, lr, lsr #32
     a44:	45313030 	ldrmi	r3, [r1, #-48]!	; 0x30
     a48:	4435392d 	ldrtmi	r3, [r5], #-2349	; 0x92d
     a4c:	5f5f0046 	svcpl	0x005f0046
     a50:	495f5154 	ldmdbmi	pc, {r2, r4, r6, r8, ip, lr}^	; <UNPREDICTABLE>
     a54:	5f544942 	svcpl	0x00544942
     a58:	0030205f 	eorseq	r2, r0, pc, asr r0
     a5c:	54415f5f 	strbpl	r5, [r1], #-3935	; 0xf5f
     a60:	43494d4f 	movtmi	r4, #40271	; 0x9d4f
     a64:	5145535f 	cmppl	r5, pc, asr r3
     a68:	5453435f 	ldrbpl	r4, [r3], #-863	; 0x35f
     a6c:	5f003520 	svcpl	0x00003520
     a70:	5f51535f 	svcpl	0x0051535f
     a74:	54494249 	strbpl	r4, [r9], #-585	; 0x249
     a78:	30205f5f 	eorcc	r5, r0, pc, asr pc
     a7c:	475f5f00 	ldrbmi	r5, [pc, -r0, lsl #30]
     a80:	485f4343 	ldmdami	pc, {r0, r1, r6, r8, r9, lr}^	; <UNPREDICTABLE>
     a84:	5f455641 	svcpl	0x00455641
     a88:	52415744 	subpl	r5, r1, #68, 14	; 0x1100000
     a8c:	435f3246 	cmpmi	pc, #1610612740	; 0x60000004
     a90:	415f4946 	cmpmi	pc, r6, asr #18
     a94:	31204d53 	teqcc	r0, r3, asr sp
     a98:	535f5f00 	cmppl	pc, #0, 30
     a9c:	43415246 	movtmi	r5, #4678	; 0x1246
     aa0:	414d5f54 	cmpmi	sp, r4, asr pc
     aa4:	205f5f58 	subscs	r5, pc, r8, asr pc	; <UNPREDICTABLE>
     aa8:	46375830 			; <UNDEFINED> instruction: 0x46375830
     aac:	48372d50 	ldmdami	r7!, {r4, r6, r8, sl, fp, sp}
     ab0:	5f5f0052 	svcpl	0x005f0052
     ab4:	33544e49 	cmpcc	r4, #1168	; 0x490
     ab8:	28435f32 	stmdacs	r3, {r1, r4, r5, r8, r9, sl, fp, ip, lr}^
     abc:	63202963 	teqvs	r0, #1622016	; 0x18c000
     ac0:	20232320 	eorcs	r2, r3, r0, lsr #6
     ac4:	5f5f004c 	svcpl	0x005f004c
     ac8:	43434155 	movtmi	r4, #12629	; 0x3155
     acc:	455f4d55 	ldrbmi	r4, [pc, #-3413]	; fffffd7f <multiplylookup+0xffff65cf>
     ad0:	4c495350 	mcrrmi	3, 5, r5, r9, cr0
     ad4:	5f5f4e4f 	svcpl	0x005f4e4f
     ad8:	31783020 	cmncc	r8, r0, lsr #32
     adc:	36312d50 			; <UNDEFINED> instruction: 0x36312d50
     ae0:	5f004b55 	svcpl	0x00004b55
     ae4:	4343475f 	movtmi	r4, #14175	; 0x375f
     ae8:	4f54415f 	svcmi	0x0054415f
     aec:	5f43494d 	svcpl	0x0043494d
     af0:	52414843 	subpl	r4, r1, #4390912	; 0x430000
     af4:	545f3233 	ldrbpl	r3, [pc], #-563	; afc <_start-0x7504>
     af8:	434f4c5f 	movtmi	r4, #64607	; 0xfc5f
     afc:	52465f4b 	subpl	r5, r6, #300	; 0x12c
     b00:	31204545 	teqcc	r0, r5, asr #10
     b04:	555f5f00 	ldrbpl	r5, [pc, #-3840]	; fffffc0c <multiplylookup+0xffff645c>
     b08:	465f4154 			; <UNDEFINED> instruction: 0x465f4154
     b0c:	5f544942 	svcpl	0x00544942
     b10:	3436205f 	ldrtcc	r2, [r6], #-95	; 0x5f
     b14:	6d756400 	cfldrdvs	mvd6, [r5, #-0]
     b18:	5f00796d 	svcpl	0x0000796d
     b1c:	5f51545f 	svcpl	0x0051545f
     b20:	54494246 	strbpl	r4, [r9], #-582	; 0x246
     b24:	31205f5f 	teqcc	r0, pc, asr pc
     b28:	5f003732 	svcpl	0x00003732
     b2c:	4153555f 	cmpmi	r3, pc, asr r5
     b30:	4d554343 	ldclmi	3, cr4, [r5, #-268]	; 0xfffffef4
     b34:	5350455f 	cmppl	r0, #398458880	; 0x17c00000
     b38:	4e4f4c49 	cdpmi	12, 4, cr4, cr15, cr9, {2}
     b3c:	30205f5f 	eorcc	r5, r0, pc, asr pc
     b40:	2d503178 	ldfcse	f3, [r0, #-480]	; 0xfffffe20
     b44:	4b485538 	blmi	121602c <multiplylookup+0x120c87c>
     b48:	72617500 	rsbvc	r7, r1, #0, 10
     b4c:	636c5f74 	cmnvs	ip, #116, 30	; 0x1d0
     b50:	5f5f0072 	svcpl	0x005f0072
     b54:	49474552 	stmdbmi	r7, {r1, r4, r6, r8, sl, lr}^
     b58:	52455453 	subpl	r5, r5, #1392508928	; 0x53000000
     b5c:	4552505f 	ldrbmi	r5, [r2, #-95]	; 0x5f
     b60:	5f584946 	svcpl	0x00584946
     b64:	5f00205f 	svcpl	0x0000205f
     b68:	52464c5f 	subpl	r4, r6, #24320	; 0x5f00
     b6c:	5f544341 	svcpl	0x00544341
     b70:	49535045 	ldmdbmi	r3, {r0, r2, r6, ip, lr}^
     b74:	5f4e4f4c 	svcpl	0x004e4f4c
     b78:	7830205f 	ldmdavc	r0!, {r0, r1, r2, r3, r4, r6, sp}
     b7c:	332d5031 	teqcc	sp, #49	; 0x31
     b80:	00524c31 	subseq	r4, r2, r1, lsr ip
     b84:	4c4c5f5f 	mcrrmi	15, 5, r5, ip, cr15
     b88:	43415246 	movtmi	r5, #4678	; 0x1246
     b8c:	50455f54 	subpl	r5, r5, r4, asr pc
     b90:	4f4c4953 	svcmi	0x004c4953
     b94:	205f5f4e 	subscs	r5, pc, lr, asr #30
     b98:	50317830 	eorspl	r7, r1, r0, lsr r8
     b9c:	4c33362d 	ldcmi	6, cr3, [r3], #-180	; 0xffffff4c
     ba0:	5f00524c 	svcpl	0x0000524c
     ba4:	5a49535f 	bpl	1255928 <multiplylookup+0x124c178>
     ba8:	5f464f45 	svcpl	0x00464f45
     bac:	474e4f4c 	strbmi	r4, [lr, -ip, asr #30]
     bb0:	4e4f4c5f 	mcrmi	12, 2, r4, cr15, cr15, {2}
     bb4:	205f5f47 	subscs	r5, pc, r7, asr #30
     bb8:	69740038 	ldmdbvs	r4!, {r3, r4, r5}^
     bbc:	5f72656d 	svcpl	0x0072656d
     bc0:	6b636974 	blvs	18db198 <multiplylookup+0x18d19e8>
     bc4:	555f5f00 	ldrbpl	r5, [pc, #-3840]	; fffffccc <multiplylookup+0xffff651c>
     bc8:	4152464c 	cmpmi	r2, ip, asr #12
     bcc:	455f5443 	ldrbmi	r5, [pc, #-1091]	; 791 <_start-0x786f>
     bd0:	4c495350 	mcrrmi	3, 5, r5, r9, cr0
     bd4:	5f5f4e4f 	svcpl	0x005f4e4f
     bd8:	31783020 	cmncc	r8, r0, lsr #32
     bdc:	32332d50 	eorscc	r2, r3, #80, 26	; 0x1400
     be0:	00524c55 	subseq	r4, r2, r5, asr ip
     be4:	4e495f5f 	mcrmi	15, 2, r5, cr9, cr15, {2}
     be8:	454c5f54 	strbmi	r5, [ip, #-3924]	; 0xf54
     bec:	31545341 	cmpcc	r4, r1, asr #6
     bf0:	59545f36 	ldmdbpl	r4, {r1, r2, r4, r5, r8, r9, sl, fp, ip, lr}^
     bf4:	5f5f4550 	svcpl	0x005f4550
     bf8:	6f687320 	svcvs	0x00687320
     bfc:	69207472 	stmdbvs	r0!, {r1, r4, r5, r6, sl, ip, sp, lr}
     c00:	5f00746e 	svcpl	0x0000746e
     c04:	4e49465f 	mcrmi	6, 2, r4, cr9, cr15, {2}
     c08:	5f455449 	svcpl	0x00455449
     c0c:	4854414d 	ldmdami	r4, {r0, r2, r3, r6, r8, lr}^
     c10:	4c4e4f5f 	mcrrmi	15, 5, r4, lr, cr15
     c14:	205f5f59 	subscs	r5, pc, r9, asr pc	; <UNPREDICTABLE>
     c18:	5f5f0030 	svcpl	0x005f0030
     c1c:	5f434544 	svcpl	0x00434544
     c20:	4c415645 	mcrrmi	6, 4, r5, r1, cr5
     c24:	54454d5f 	strbpl	r4, [r5], #-3423	; 0xd5f
     c28:	5f444f48 	svcpl	0x00444f48
     c2c:	0032205f 	eorseq	r2, r2, pc, asr r0
     c30:	4c465f5f 	mcrrmi	15, 5, r5, r6, cr15
     c34:	414d5f54 	cmpmi	sp, r4, asr pc
     c38:	30315f58 	eorscc	r5, r1, r8, asr pc
     c3c:	5058455f 	subspl	r4, r8, pc, asr r5
     c40:	33205f5f 	teqcc	r0, #380	; 0x17c
     c44:	5f5f0038 	svcpl	0x005f0038
     c48:	5f544e49 	svcpl	0x00544e49
     c4c:	5341454c 	movtpl	r4, #5452	; 0x154c
     c50:	5f363154 	svcpl	0x00363154
     c54:	5f58414d 	svcpl	0x0058414d
     c58:	3233205f 	eorscc	r2, r3, #95	; 0x5f
     c5c:	00373637 	eorseq	r3, r7, r7, lsr r6
     c60:	45445f5f 	strbmi	r5, [r4, #-3935]	; 0xf5f
     c64:	5f323343 	svcpl	0x00323343
     c68:	5f4e494d 	svcpl	0x004e494d
     c6c:	5f505845 	svcpl	0x00505845
     c70:	2d28205f 	stccs	0, cr2, [r8, #-380]!	; 0xfffffe84
     c74:	00293439 	eoreq	r3, r9, r9, lsr r4
     c78:	45445f5f 	strbmi	r5, [r4, #-3935]	; 0xf5f
     c7c:	5f323343 	svcpl	0x00323343
     c80:	5f58414d 	svcpl	0x0058414d
     c84:	5f505845 	svcpl	0x00505845
     c88:	3739205f 			; <UNDEFINED> instruction: 0x3739205f
     c8c:	4c5f5f00 	mrrcmi	15, 0, r5, pc, cr0	; <UNPREDICTABLE>
     c90:	4343414c 	movtmi	r4, #12620	; 0x314c
     c94:	4d5f4d55 	ldclmi	13, cr4, [pc, #-340]	; b48 <_start-0x74b8>
     c98:	5f5f4e49 	svcpl	0x005f4e49
     c9c:	302d2820 	eorcc	r2, sp, r0, lsr #16
     ca0:	33503158 	cmpcc	r0, #88, 2
     ca4:	4b4c4c31 	blmi	1313d70 <multiplylookup+0x130a5c0>
     ca8:	3158302d 	cmpcc	r8, sp, lsr #32
     cac:	4c313350 	ldcmi	3, cr3, [r1], #-320	; 0xfffffec0
     cb0:	00294b4c 	eoreq	r4, r9, ip, asr #22
     cb4:	4e495f5f 	mcrmi	15, 2, r5, cr9, cr15, {2}
     cb8:	435f3854 	cmpmi	pc, #84, 16	; 0x540000
     cbc:	20296328 	eorcs	r6, r9, r8, lsr #6
     cc0:	5f5f0063 	svcpl	0x005f0063
     cc4:	5f4c4244 	svcpl	0x004c4244
     cc8:	4f4e4544 	svcmi	0x004e4544
     ccc:	4d5f4d52 	ldclmi	13, cr4, [pc, #-328]	; b8c <_start-0x7474>
     cd0:	5f5f4e49 	svcpl	0x005f4e49
     cd4:	64282820 	strtvs	r2, [r8], #-2080	; 0x820
     cd8:	6c62756f 	cfstr64vs	mvdx7, [r2], #-444	; 0xfffffe44
     cdc:	2e342965 	cdpcs	9, 3, cr2, cr4, cr5, {3}
     ce0:	36303439 			; <UNDEFINED> instruction: 0x36303439
     ce4:	35343635 	ldrcc	r3, [r4, #-1589]!	; 0x635
     ce8:	32313438 	eorscc	r3, r1, #56, 8	; 0x38000000
     cec:	34353634 	ldrtcc	r3, [r5], #-1588	; 0x634
     cf0:	32332d65 	eorscc	r2, r3, #6464	; 0x1940
     cf4:	00294c34 	eoreq	r4, r9, r4, lsr ip
     cf8:	55505047 	ldrbpl	r5, [r0, #-71]	; 0x47
     cfc:	4b4c4344 	blmi	1311a14 <multiplylookup+0x1308264>
     d00:	78302030 	ldmdavc	r0!, {r4, r5, sp}
     d04:	30323032 	eorscc	r3, r2, r2, lsr r0
     d08:	38393030 	ldmdacc	r9!, {r4, r5, ip, sp}
     d0c:	475f5f00 	ldrbmi	r5, [pc, -r0, lsl #30]
     d10:	5f43554e 	svcpl	0x0043554e
     d14:	4f4e494d 	svcmi	0x004e494d
     d18:	205f5f52 	subscs	r5, pc, r2, asr pc	; <UNPREDICTABLE>
     d1c:	5f5f0037 	svcpl	0x005f0037
     d20:	5f434347 	svcpl	0x00434347
     d24:	4d4f5441 	cfstrdmi	mvd5, [pc, #-260]	; c28 <_start-0x73d8>
     d28:	425f4349 	subsmi	r4, pc, #603979777	; 0x24000001
     d2c:	5f4c4f4f 	svcpl	0x004c4f4f
     d30:	4b434f4c 	blmi	10d4a68 <multiplylookup+0x10cb2b8>
     d34:	4552465f 	ldrbmi	r4, [r2, #-1631]	; 0x65f
     d38:	00312045 	eorseq	r2, r1, r5, asr #32
     d3c:	48555f5f 	ldmdami	r5, {r0, r1, r2, r3, r4, r6, r8, r9, sl, fp, ip, lr}^
     d40:	42495f41 	submi	r5, r9, #260	; 0x104
     d44:	5f5f5449 	svcpl	0x005f5449
     d48:	5f003820 	svcpl	0x00003820
     d4c:	4e49555f 	mcrmi	5, 2, r5, cr9, cr15, {2}
     d50:	435f3854 	cmpmi	pc, #84, 16	; 0x540000
     d54:	20296328 	eorcs	r6, r9, r8, lsr #6
     d58:	5f5f0063 	svcpl	0x005f0063
     d5c:	38544e49 	ldmdacc	r4, {r0, r3, r6, r9, sl, fp, lr}^
     d60:	58414d5f 	stmdapl	r1, {r0, r1, r2, r3, r4, r6, r8, sl, fp, lr}^
     d64:	31205f5f 	teqcc	r0, pc, asr pc
     d68:	75003732 	strvc	r3, [r0, #-1842]	; 0x732
     d6c:	5f747261 	svcpl	0x00747261
     d70:	63656863 	cmnvs	r5, #6488064	; 0x630000
     d74:	5f5f006b 	svcpl	0x005f006b
     d78:	43434155 	movtmi	r4, #12629	; 0x3155
     d7c:	495f4d55 	ldmdbmi	pc, {r0, r2, r4, r6, r8, sl, fp, lr}^	; <UNPREDICTABLE>
     d80:	5f544942 	svcpl	0x00544942
     d84:	3631205f 			; <UNDEFINED> instruction: 0x3631205f
     d88:	555f5f00 	ldrbpl	r5, [pc, #-3840]	; fffffe90 <multiplylookup+0xffff66e0>
     d8c:	36544e49 	ldrbcc	r4, [r4], -r9, asr #28
     d90:	414d5f34 	cmpmi	sp, r4, lsr pc
     d94:	205f5f58 	subscs	r5, pc, r8, asr pc	; <UNPREDICTABLE>
     d98:	34343831 	ldrtcc	r3, [r4], #-2097	; 0x831
     d9c:	34343736 	ldrtcc	r3, [r4], #-1846	; 0x736
     da0:	37333730 			; <UNDEFINED> instruction: 0x37333730
     da4:	35353930 	ldrcc	r3, [r5, #-2352]!	; 0x930
     da8:	35313631 	ldrcc	r3, [r1, #-1585]!	; 0x631
     dac:	004c4c55 	subeq	r4, ip, r5, asr ip
     db0:	4c465f5f 	mcrrmi	15, 5, r5, r6, cr15
     db4:	41485f54 	cmpmi	r8, r4, asr pc
     db8:	55515f53 	ldrbpl	r5, [r1, #-3923]	; 0xf53
     dbc:	5f544549 	svcpl	0x00544549
     dc0:	5f4e414e 	svcpl	0x004e414e
     dc4:	0031205f 	eorseq	r2, r1, pc, asr r0
     dc8:	54535f5f 	ldrbpl	r5, [r3], #-3935	; 0xf5f
     dcc:	485f4344 	ldmdami	pc, {r2, r6, r8, r9, lr}^	; <UNPREDICTABLE>
     dd0:	4554534f 	ldrbmi	r5, [r4, #-847]	; 0x34f
     dd4:	205f5f44 	subscs	r5, pc, r4, asr #30
     dd8:	5f5f0030 	svcpl	0x005f0030
     ddc:	5f544c46 	svcpl	0x00544c46
     de0:	5f4e494d 	svcpl	0x004e494d
     de4:	5f505845 	svcpl	0x00505845
     de8:	2d28205f 	stccs	0, cr2, [r8, #-380]!	; 0xfffffe84
     dec:	29353231 	ldmdbcs	r5!, {r0, r4, r5, r9, ip, sp}
     df0:	495f5f00 	ldmdbmi	pc, {r8, r9, sl, fp, ip, lr}^	; <UNPREDICTABLE>
     df4:	4c5f544e 	cfldrdmi	mvd5, [pc], {78}	; 0x4e
     df8:	54534145 	ldrbpl	r4, [r3], #-325	; 0x145
     dfc:	414d5f38 	cmpmi	sp, r8, lsr pc
     e00:	205f5f58 	subscs	r5, pc, r8, asr pc	; <UNPREDICTABLE>
     e04:	00373231 	eorseq	r3, r7, r1, lsr r2
     e08:	46555f5f 	usaxmi	r5, r5, pc	; <UNPREDICTABLE>
     e0c:	54434152 	strbpl	r4, [r3], #-338	; 0x152
     e10:	58414d5f 	stmdapl	r1, {r0, r1, r2, r3, r4, r6, r8, sl, fp, lr}^
     e14:	30205f5f 	eorcc	r5, r0, pc, asr pc
     e18:	46464658 			; <UNDEFINED> instruction: 0x46464658
     e1c:	312d5046 	teqcc	sp, r6, asr #32
     e20:	00525536 	subseq	r5, r2, r6, lsr r5
     e24:	53555f5f 	cmppl	r5, #380	; 0x17c
     e28:	43415246 	movtmi	r5, #4678	; 0x1246
     e2c:	414d5f54 	cmpmi	sp, r4, asr pc
     e30:	205f5f58 	subscs	r5, pc, r8, asr pc	; <UNPREDICTABLE>
     e34:	46465830 			; <UNDEFINED> instruction: 0x46465830
     e38:	55382d50 	ldrpl	r2, [r8, #-3408]!	; 0xd50
     e3c:	5f005248 	svcpl	0x00005248
     e40:	4c42445f 	cfstrdmi	mvd4, [r2], {95}	; 0x5f
     e44:	4e494d5f 	mcrmi	13, 2, r4, cr9, cr15, {2}
     e48:	5f30315f 	svcpl	0x0030315f
     e4c:	5f505845 	svcpl	0x00505845
     e50:	2d28205f 	stccs	0, cr2, [r8, #-380]!	; 0xfffffe84
     e54:	29373033 	ldmdbcs	r7!, {r0, r1, r4, r5, ip, sp}
     e58:	4f5f5f00 	svcmi	0x005f5f00
     e5c:	52454452 	subpl	r4, r5, #1375731712	; 0x52000000
     e60:	4749425f 	smlsldmi	r4, r9, pc, r2	; <UNPREDICTABLE>
     e64:	444e455f 	strbmi	r4, [lr], #-1375	; 0x55f
     e68:	5f4e4149 	svcpl	0x004e4149
     e6c:	3334205f 	teqcc	r4, #95	; 0x5f
     e70:	5f003132 	svcpl	0x00003132
     e74:	4148435f 	cmpmi	r8, pc, asr r3
     e78:	5f363152 	svcpl	0x00363152
     e7c:	45505954 	ldrbmi	r5, [r0, #-2388]	; 0x954
     e80:	73205f5f 	teqvc	r0, #380	; 0x17c
     e84:	74726f68 	ldrbtvc	r6, [r2], #-3944	; 0xf68
     e88:	736e7520 	cmnvc	lr, #32, 10	; 0x8000000
     e8c:	656e6769 	strbvs	r6, [lr, #-1897]!	; 0x769
     e90:	6e692064 	cdpvs	0, 6, cr2, cr9, cr4, {3}
     e94:	5f5f0074 	svcpl	0x005f0074
     e98:	52465355 	subpl	r5, r6, #1409286145	; 0x54000001
     e9c:	5f544341 	svcpl	0x00544341
     ea0:	5f4e494d 	svcpl	0x004e494d
     ea4:	2e30205f 	mrccs	0, 1, r2, cr0, cr15, {2}
     ea8:	52485530 	subpl	r5, r8, #48, 10	; 0xc000000
     eac:	555f5f00 	ldrbpl	r5, [pc, #-3840]	; ffffffb4 <multiplylookup+0xffff6804>
     eb0:	465f5153 			; <UNDEFINED> instruction: 0x465f5153
     eb4:	5f544942 	svcpl	0x00544942
     eb8:	3233205f 	eorscc	r2, r3, #95	; 0x5f
     ebc:	495f5f00 	ldmdbmi	pc, {r8, r9, sl, fp, ip, lr}^	; <UNPREDICTABLE>
     ec0:	414d544e 	cmpmi	sp, lr, asr #8
     ec4:	59545f58 	ldmdbpl	r4, {r3, r4, r6, r8, r9, sl, fp, ip, lr}^
     ec8:	5f5f4550 	svcpl	0x005f4550
     ecc:	6e6f6c20 	cdpvs	12, 6, cr6, cr15, cr0, {1}
     ed0:	6f6c2067 	svcvs	0x006c2067
     ed4:	6920676e 	stmdbvs	r0!, {r1, r2, r3, r5, r6, r8, r9, sl, sp, lr}
     ed8:	5f00746e 	svcpl	0x0000746e
     edc:	5a49535f 	bpl	1255c60 <multiplylookup+0x124c4b0>
     ee0:	5f464f45 	svcpl	0x00464f45
     ee4:	524f4853 	subpl	r4, pc, #5439488	; 0x530000
     ee8:	205f5f54 	subscs	r5, pc, r4, asr pc	; <UNPREDICTABLE>
     eec:	5f5f0032 	svcpl	0x005f0032
     ef0:	52464c55 	subpl	r4, r6, #21760	; 0x5500
     ef4:	5f544341 	svcpl	0x00544341
     ef8:	54494249 	strbpl	r4, [r9], #-585	; 0x249
     efc:	30205f5f 	eorcc	r5, r0, pc, asr pc
     f00:	535f5f00 	cmppl	pc, #0, 30
     f04:	42465f51 	submi	r5, r6, #324	; 0x144
     f08:	5f5f5449 	svcpl	0x005f5449
     f0c:	00313320 	eorseq	r3, r1, r0, lsr #6
     f10:	41445f5f 	cmpmi	r4, pc, asr pc
     f14:	4942465f 	stmdbmi	r2, {r0, r1, r2, r3, r4, r6, r9, sl, lr}^
     f18:	205f5f54 	subscs	r5, pc, r4, asr pc	; <UNPREDICTABLE>
     f1c:	5f003133 	svcpl	0x00003133
     f20:	5245565f 	subpl	r5, r5, #99614720	; 0x5f00000
     f24:	4e4f4953 	mcrmi	9, 2, r4, cr15, cr3, {2}
     f28:	22205f5f 	eorcs	r5, r0, #380	; 0x17c
     f2c:	2e372e34 	mrccs	14, 1, r2, cr7, cr4, {1}
     f30:	74002232 	strvc	r2, [r0], #-562	; 0x232
     f34:	72656d69 	rsbvc	r6, r5, #6720	; 0x1a40
     f38:	696e695f 	stmdbvs	lr!, {r0, r1, r2, r3, r4, r6, r8, fp, sp, lr}^
     f3c:	5f5f0074 	svcpl	0x005f0074
     f40:	454d5241 	strbmi	r5, [sp, #-577]	; 0x241
     f44:	205f5f4c 	subscs	r5, pc, ip, asr #30
     f48:	5f5f0031 	svcpl	0x005f0031
     f4c:	55434341 	strbpl	r4, [r3, #-833]	; 0x341
     f50:	50455f4d 	subpl	r5, r5, sp, asr #30
     f54:	4f4c4953 	svcmi	0x004c4953
     f58:	205f5f4e 	subscs	r5, pc, lr, asr #30
     f5c:	50317830 	eorspl	r7, r1, r0, lsr r8
     f60:	4b35312d 	blmi	d4d41c <multiplylookup+0xd43c6c>
     f64:	465f5f00 	ldrbmi	r5, [pc], -r0, lsl #30
     f68:	4d5f544c 	cfldrdmi	mvd5, [pc, #-304]	; e40 <_start-0x71c0>
     f6c:	455f5841 	ldrbmi	r5, [pc, #-2113]	; 733 <_start-0x78cd>
     f70:	5f5f5058 	svcpl	0x005f5058
     f74:	38323120 	ldmdacc	r2!, {r5, r8, ip, sp}
     f78:	555f5f00 	ldrbpl	r5, [pc, #-3840]	; 80 <_start-0x7f80>
     f7c:	495f4153 	ldmdbmi	pc, {r0, r1, r4, r6, r8, lr}^	; <UNPREDICTABLE>
     f80:	5f544942 	svcpl	0x00544942
     f84:	3631205f 			; <UNDEFINED> instruction: 0x3631205f
     f88:	445f5f00 	ldrbmi	r5, [pc], #-3840	; f90 <_start-0x7070>
     f8c:	485f4c42 	ldmdami	pc, {r1, r6, sl, fp, lr}^	; <UNPREDICTABLE>
     f90:	445f5341 	ldrbmi	r5, [pc], #-833	; f98 <_start-0x7068>
     f94:	524f4e45 	subpl	r4, pc, #1104	; 0x450
     f98:	205f5f4d 	subscs	r5, pc, sp, asr #30
     f9c:	52410031 	subpl	r0, r1, #49	; 0x31
     fa0:	49545f4d 	ldmdbmi	r4, {r0, r2, r3, r6, r8, r9, sl, fp, ip, lr}^
     fa4:	5f52454d 	svcpl	0x0052454d
     fa8:	20544e43 	subscs	r4, r4, r3, asr #28
     fac:	30327830 	eorscc	r7, r2, r0, lsr r8
     fb0:	34423030 	strbcc	r3, [r2], #-48	; 0x30
     fb4:	5f003032 	svcpl	0x00003032
     fb8:	544c465f 	strbpl	r4, [ip], #-1631	; 0x65f
     fbc:	4e414d5f 	mcrmi	13, 2, r4, cr1, cr15, {2}
     fc0:	49445f54 	stmdbmi	r4, {r2, r4, r6, r8, r9, sl, fp, ip, lr}^
     fc4:	205f5f47 	subscs	r5, pc, r7, asr #30
     fc8:	5f003432 	svcpl	0x00003432
     fcc:	5246555f 	subpl	r5, r6, #398458880	; 0x17c00000
     fd0:	5f544341 	svcpl	0x00544341
     fd4:	54494246 	strbpl	r4, [r9], #-582	; 0x246
     fd8:	31205f5f 	teqcc	r0, pc, asr pc
     fdc:	5f5f0036 	svcpl	0x005f0036
     fe0:	474e4f4c 	strbmi	r4, [lr, -ip, asr #30]
     fe4:	58414d5f 	stmdapl	r1, {r0, r1, r2, r3, r4, r6, r8, sl, fp, lr}^
     fe8:	32205f5f 	eorcc	r5, r0, #380	; 0x17c
     fec:	34373431 	ldrtcc	r3, [r7], #-1073	; 0x431
     ff0:	34363338 	ldrtcc	r3, [r6], #-824	; 0x338
     ff4:	5f004c37 	svcpl	0x00004c37
     ff8:	52464c5f 	subpl	r4, r6, #24320	; 0x5f00
     ffc:	5f544341 	svcpl	0x00544341
    1000:	54494246 	strbpl	r4, [r9], #-582	; 0x246
    1004:	33205f5f 	teqcc	r0, #380	; 0x17c
    1008:	5f5f0031 	svcpl	0x005f0031
    100c:	53435041 	movtpl	r5, #12353	; 0x3041
    1010:	5f32335f 	svcpl	0x0032335f
    1014:	0031205f 	eorseq	r2, r1, pc, asr r0
    1018:	43475f5f 	movtmi	r5, #32607	; 0x7f5f
    101c:	54415f43 	strbpl	r5, [r1], #-3907	; 0xf43
    1020:	43494d4f 	movtmi	r4, #40271	; 0x9d4f
    1024:	4f4c4c5f 	svcmi	0x004c4c5f
    1028:	4c5f474e 	mrrcmi	7, 4, r4, pc, cr14	; <UNPREDICTABLE>
    102c:	5f4b434f 	svcpl	0x004b434f
    1030:	45455246 	strbmi	r5, [r5, #-582]	; 0x246
    1034:	5f003120 	svcpl	0x00003120
    1038:	5f51515f 	svcpl	0x0051515f
    103c:	54494249 	strbpl	r4, [r9], #-585	; 0x249
    1040:	30205f5f 	eorcc	r5, r0, pc, asr pc
    1044:	58554100 	ldmdapl	r5, {r8, lr}^
    1048:	5f554d5f 	svcpl	0x00554d5f
    104c:	5f52534c 	svcpl	0x0052534c
    1050:	20474552 	subcs	r4, r7, r2, asr r5
    1054:	30327830 	eorscc	r7, r2, r0, lsr r8
    1058:	30353132 	eorscc	r3, r5, r2, lsr r1
    105c:	5f003435 	svcpl	0x00003435
    1060:	4345445f 	movtmi	r4, #21599	; 0x545f
    1064:	5f383231 	svcpl	0x00383231
    1068:	5f4e494d 	svcpl	0x004e494d
    106c:	5f505845 	svcpl	0x00505845
    1070:	2d28205f 	stccs	0, cr2, [r8, #-380]!	; 0xfffffe84
    1074:	32343136 	eorscc	r3, r4, #-2147483635	; 0x8000000d
    1078:	5f5f0029 	svcpl	0x005f0029
    107c:	4d4f5441 	cfstrdmi	mvd5, [pc, #-260]	; f80 <_start-0x7080>
    1080:	525f4349 	subspl	r4, pc, #603979777	; 0x24000001
    1084:	41454c45 	cmpmi	r5, r5, asr #24
    1088:	33204553 	teqcc	r0, #348127232	; 0x14c00000
    108c:	475f5f00 	ldrbmi	r5, [pc, -r0, lsl #30]
    1090:	5f43554e 	svcpl	0x0043554e
    1094:	43544150 	cmpmi	r4, #80, 2
    1098:	56454c48 	strbpl	r4, [r5], -r8, asr #24
    109c:	5f5f4c45 	svcpl	0x005f4c45
    10a0:	5f003220 	svcpl	0x00003220
    10a4:	4c4c555f 	cfstr64mi	mvdx5, [ip], {95}	; 0x5f
    10a8:	55434341 	strbpl	r4, [r3, #-833]	; 0x341
    10ac:	42495f4d 	submi	r5, r9, #308	; 0x134
    10b0:	5f5f5449 	svcpl	0x005f5449
    10b4:	00323320 	eorseq	r3, r2, r0, lsr #6
    10b8:	46535f5f 	usaxmi	r5, r3, pc	; <UNPREDICTABLE>
    10bc:	54434152 	strbpl	r4, [r3], #-338	; 0x152
    10c0:	4942465f 	stmdbmi	r2, {r0, r1, r2, r3, r4, r6, r9, sl, lr}^
    10c4:	205f5f54 	subscs	r5, pc, r4, asr pc	; <UNPREDICTABLE>
    10c8:	5f5f0037 	svcpl	0x005f0037
    10cc:	5f4c4244 	svcpl	0x004c4244
    10d0:	49434544 	stmdbmi	r3, {r2, r6, r8, sl, lr}^
    10d4:	5f4c414d 	svcpl	0x004c414d
    10d8:	5f474944 	svcpl	0x00474944
    10dc:	3731205f 			; <UNDEFINED> instruction: 0x3731205f
    10e0:	445f5f00 	ldrbmi	r5, [pc], #-3840	; 10e8 <_start-0x6f18>
    10e4:	445f4c42 	ldrbmi	r4, [pc], #-3138	; 10ec <_start-0x6f14>
    10e8:	5f5f4749 	svcpl	0x005f4749
    10ec:	00353120 	eorseq	r3, r5, r0, lsr #2
    10f0:	49555f5f 	ldmdbmi	r5, {r0, r1, r2, r3, r4, r6, r8, r9, sl, fp, ip, lr}^
    10f4:	4c5f544e 	cfldrdmi	mvd5, [pc], {78}	; 0x4e
    10f8:	54534145 	ldrbpl	r4, [r3], #-325	; 0x145
    10fc:	4d5f3233 	lfmmi	f3, 2, [pc, #-204]	; 1038 <_start-0x6fc8>
    1100:	5f5f5841 	svcpl	0x005f5841
    1104:	39323420 	ldmdbcc	r2!, {r5, sl, ip, sp}
    1108:	37363934 			; <UNDEFINED> instruction: 0x37363934
    110c:	55353932 	ldrpl	r3, [r5, #-2354]!	; 0x932
    1110:	5f5f004c 	svcpl	0x005f004c
    1114:	5f544c46 	svcpl	0x00544c46
    1118:	49434544 	stmdbmi	r3, {r2, r6, r8, sl, lr}^
    111c:	5f4c414d 	svcpl	0x004c414d
    1120:	5f474944 	svcpl	0x00474944
    1124:	0039205f 	eorseq	r2, r9, pc, asr r0
    1128:	4e495f5f 	mcrmi	15, 2, r5, cr9, cr15, {2}
    112c:	5f363154 	svcpl	0x00363154
    1130:	5f58414d 	svcpl	0x0058414d
    1134:	3233205f 	eorscc	r2, r3, #95	; 0x5f
    1138:	00373637 	eorseq	r3, r7, r7, lsr r6
    113c:	74726175 	ldrbtvc	r6, [r2], #-373	; 0x175
    1140:	7475705f 	ldrbtvc	r7, [r5], #-95	; 0x5f
    1144:	5f5f0073 	svcpl	0x005f0073
    1148:	455a4953 	ldrbmi	r4, [sl, #-2387]	; 0x953
    114c:	575f464f 	ldrbpl	r4, [pc, -pc, asr #12]
    1150:	5f544e49 	svcpl	0x00544e49
    1154:	205f5f54 	subscs	r5, pc, r4, asr pc	; <UNPREDICTABLE>
    1158:	5f5f0034 	svcpl	0x005f0034
    115c:	455a4953 	ldrbmi	r4, [sl, #-2387]	; 0x953
    1160:	495f464f 	ldmdbmi	pc, {r0, r1, r2, r3, r6, r9, sl, lr}^	; <UNPREDICTABLE>
    1164:	5f5f544e 	svcpl	0x005f544e
    1168:	5f003420 	svcpl	0x00003420
    116c:	544e495f 	strbpl	r4, [lr], #-2399	; 0x95f
    1170:	545f3436 	ldrbpl	r3, [pc], #-1078	; 1178 <_start-0x6e88>
    1174:	5f455059 	svcpl	0x00455059
    1178:	6f6c205f 	svcvs	0x006c205f
    117c:	6c20676e 	stcvs	7, cr6, [r0], #-440	; 0xfffffe48
    1180:	20676e6f 	rsbcs	r6, r7, pc, ror #28
    1184:	00746e69 	rsbseq	r6, r4, r9, ror #28
    1188:	48435f5f 	stmdami	r3, {r0, r1, r2, r3, r4, r6, r8, r9, sl, fp, ip, lr}^
    118c:	555f5241 	ldrbpl	r5, [pc, #-577]	; f53 <_start-0x70ad>
    1190:	4749534e 	strbmi	r5, [r9, -lr, asr #6]
    1194:	5f44454e 	svcpl	0x0044454e
    1198:	0031205f 	eorseq	r2, r1, pc, asr r0
    119c:	45445f5f 	strbmi	r5, [r4, #-3935]	; 0xf5f
    11a0:	38323143 	ldmdacc	r2!, {r0, r1, r6, r8, ip, sp}
    11a4:	58414d5f 	stmdapl	r1, {r0, r1, r2, r3, r4, r6, r8, sl, fp, lr}^
    11a8:	5058455f 	subspl	r4, r8, pc, asr r5
    11ac:	36205f5f 	qsaxcc	r5, r0, pc	; <UNPREDICTABLE>
    11b0:	00353431 	eorseq	r3, r5, r1, lsr r4
    11b4:	51445f5f 	cmppl	r4, pc, asr pc
    11b8:	4942465f 	stmdbmi	r2, {r0, r1, r2, r3, r4, r6, r9, sl, lr}^
    11bc:	205f5f54 	subscs	r5, pc, r4, asr pc	; <UNPREDICTABLE>
    11c0:	5f003336 	svcpl	0x00003336
    11c4:	4341555f 	movtmi	r5, #5471	; 0x155f
    11c8:	5f4d5543 	svcpl	0x004d5543
    11cc:	54494246 	strbpl	r4, [r9], #-582	; 0x246
    11d0:	31205f5f 	teqcc	r0, pc, asr pc
    11d4:	5f5f0036 	svcpl	0x005f0036
    11d8:	4c42444c 	cfstrdmi	mvd4, [r2], {76}	; 0x4c
    11dc:	4e45445f 	mcrmi	4, 2, r4, cr5, cr15, {2}
    11e0:	5f4d524f 	svcpl	0x004d524f
    11e4:	5f4e494d 	svcpl	0x004e494d
    11e8:	2e34205f 	mrccs	0, 1, r2, cr4, cr15, {2}
    11ec:	36303439 			; <UNDEFINED> instruction: 0x36303439
    11f0:	35343635 	ldrcc	r3, [r4, #-1589]!	; 0x635
    11f4:	32313438 	eorscc	r3, r1, #56, 8	; 0x38000000
    11f8:	34353634 	ldrtcc	r3, [r5], #-1588	; 0x634
    11fc:	32332d65 	eorscc	r2, r3, #6464	; 0x1940
    1200:	5f004c34 	svcpl	0x00004c34
    1204:	44524f5f 	ldrbmi	r4, [r2], #-3935	; 0xf5f
    1208:	505f5245 	subspl	r5, pc, r5, asr #4
    120c:	455f5044 	ldrbmi	r5, [pc, #-68]	; 11d0 <_start-0x6e30>
    1210:	4149444e 	cmpmi	r9, lr, asr #8
    1214:	205f5f4e 	subscs	r5, pc, lr, asr #30
    1218:	32313433 	eorscc	r3, r1, #855638016	; 0x33000000
    121c:	415f5f00 	cmpmi	pc, r0, lsl #30
    1220:	494d4f54 	stmdbmi	sp, {r2, r4, r6, r8, r9, sl, fp, lr}^
    1224:	43415f43 	movtmi	r5, #8003	; 0x1f43
    1228:	45525f51 	ldrbmi	r5, [r2, #-3921]	; 0xf51
    122c:	0034204c 	eorseq	r2, r4, ip, asr #32
    1230:	49555f5f 	ldmdbmi	r5, {r0, r1, r2, r3, r4, r6, r8, r9, sl, fp, ip, lr}^
    1234:	4c5f544e 	cfldrdmi	mvd5, [pc], {78}	; 0x4e
    1238:	54534145 	ldrbpl	r4, [r3], #-325	; 0x145
    123c:	4d5f3631 	ldclmi	6, cr3, [pc, #-196]	; 1180 <_start-0x6e80>
    1240:	5f5f5841 	svcpl	0x005f5841
    1244:	35353620 	ldrcc	r3, [r5, #-1568]!	; 0x620
    1248:	5f003533 	svcpl	0x00003533
    124c:	4749425f 	smlsldmi	r4, r9, pc, r2	; <UNPREDICTABLE>
    1250:	54534547 	ldrbpl	r4, [r3], #-1351	; 0x547
    1254:	494c415f 	stmdbmi	ip, {r0, r1, r2, r3, r4, r6, r8, lr}^
    1258:	454d4e47 	strbmi	r4, [sp, #-3655]	; 0xe47
    125c:	5f5f544e 	svcpl	0x005f544e
    1260:	5f003820 	svcpl	0x00003820
    1264:	4843575f 	stmdami	r3, {r0, r1, r2, r3, r4, r6, r8, r9, sl, ip, lr}^
    1268:	4d5f5241 	lfmmi	f5, 2, [pc, #-260]	; 116c <_start-0x6e94>
    126c:	5f5f5841 	svcpl	0x005f5841
    1270:	39323420 	ldmdbcc	r2!, {r5, sl, ip, sp}
    1274:	37363934 			; <UNDEFINED> instruction: 0x37363934
    1278:	55353932 	ldrpl	r3, [r5, #-2354]!	; 0x932
    127c:	555f5f00 	ldrbpl	r5, [pc, #-3840]	; 384 <_start-0x7c7c>
    1280:	465f5148 	ldrbmi	r5, [pc], -r8, asr #2
    1284:	5f544942 	svcpl	0x00544942
    1288:	3631205f 			; <UNDEFINED> instruction: 0x3631205f
    128c:	53504700 	cmppl	r0, #0, 14
    1290:	20305445 	eorscs	r5, r0, r5, asr #8
    1294:	30327830 	eorscc	r7, r2, r0, lsr r8
    1298:	30303032 	eorscc	r3, r0, r2, lsr r0
    129c:	5f004331 	svcpl	0x00004331
    12a0:	5151555f 	cmppl	r1, pc, asr r5
    12a4:	4942465f 	stmdbmi	r2, {r0, r1, r2, r3, r4, r6, r9, sl, lr}^
    12a8:	205f5f54 	subscs	r5, pc, r4, asr pc	; <UNPREDICTABLE>
    12ac:	5f5f0038 	svcpl	0x005f0038
    12b0:	31434544 	cmpcc	r3, r4, asr #10
    12b4:	4d5f3832 	ldclmi	8, cr3, [pc, #-200]	; 11f4 <_start-0x6e0c>
    12b8:	5f5f5841 	svcpl	0x005f5841
    12bc:	392e3920 	stmdbcc	lr!, {r5, r8, fp, ip, sp}
    12c0:	39393939 	ldmdbcc	r9!, {r0, r3, r4, r5, r8, fp, ip, sp}
    12c4:	39393939 	ldmdbcc	r9!, {r0, r3, r4, r5, r8, fp, ip, sp}
    12c8:	39393939 	ldmdbcc	r9!, {r0, r3, r4, r5, r8, fp, ip, sp}
    12cc:	39393939 	ldmdbcc	r9!, {r0, r3, r4, r5, r8, fp, ip, sp}
    12d0:	39393939 	ldmdbcc	r9!, {r0, r3, r4, r5, r8, fp, ip, sp}
    12d4:	39393939 	ldmdbcc	r9!, {r0, r3, r4, r5, r8, fp, ip, sp}
    12d8:	39393939 	ldmdbcc	r9!, {r0, r3, r4, r5, r8, fp, ip, sp}
    12dc:	39393939 	ldmdbcc	r9!, {r0, r3, r4, r5, r8, fp, ip, sp}
    12e0:	34313645 	ldrtcc	r3, [r1], #-1605	; 0x645
    12e4:	004c4434 	subeq	r4, ip, r4, lsr r4
    12e8:	4e495f5f 	mcrmi	15, 2, r5, cr9, cr15, {2}
    12ec:	41465f54 	cmpmi	r6, r4, asr pc
    12f0:	36315453 			; <UNDEFINED> instruction: 0x36315453
    12f4:	58414d5f 	stmdapl	r1, {r0, r1, r2, r3, r4, r6, r8, sl, fp, lr}^
    12f8:	32205f5f 	eorcc	r5, r0, #380	; 0x17c
    12fc:	34373431 	ldrtcc	r3, [r7], #-1073	; 0x431
    1300:	34363338 	ldrtcc	r3, [r6], #-824	; 0x338
    1304:	5f5f0037 	svcpl	0x005f0037
    1308:	544e4955 	strbpl	r4, [lr], #-2389	; 0x955
    130c:	41454c5f 	cmpmi	r5, pc, asr ip
    1310:	36315453 			; <UNDEFINED> instruction: 0x36315453
    1314:	5059545f 	subspl	r5, r9, pc, asr r4
    1318:	205f5f45 	subscs	r5, pc, r5, asr #30
    131c:	726f6873 	rsbvc	r6, pc, #7536640	; 0x730000
    1320:	6e752074 	mrcvs	0, 3, r2, cr5, cr4, {3}
    1324:	6e676973 	mcrvs	9, 3, r6, cr7, cr3, {3}
    1328:	69206465 	stmdbvs	r0!, {r0, r2, r5, r6, sl, sp, lr}
    132c:	5f00746e 	svcpl	0x0000746e
    1330:	5154555f 	cmppl	r4, pc, asr r5
    1334:	4942465f 	stmdbmi	r2, {r0, r1, r2, r3, r4, r6, r9, sl, lr}^
    1338:	205f5f54 	subscs	r5, pc, r4, asr pc	; <UNPREDICTABLE>
    133c:	00383231 	eorseq	r3, r8, r1, lsr r2
    1340:	42445f5f 	submi	r5, r4, #380	; 0x17c
    1344:	414d5f4c 	cmpmi	sp, ip, asr #30
    1348:	58455f58 	stmdapl	r5, {r3, r4, r6, r8, r9, sl, fp, ip, lr}^
    134c:	205f5f50 	subscs	r5, pc, r0, asr pc	; <UNPREDICTABLE>
    1350:	34323031 	ldrtcc	r3, [r2], #-49	; 0x31
    1354:	535f5f00 	cmppl	pc, #0, 30
    1358:	5f434454 	svcpl	0x00434454
    135c:	0031205f 	eorseq	r2, r1, pc, asr r0
    1360:	43475f5f 	movtmi	r5, #32607	; 0x7f5f
    1364:	54415f43 	strbpl	r5, [r1], #-3907	; 0xf43
    1368:	43494d4f 	movtmi	r4, #40271	; 0x9d4f
    136c:	4148435f 	cmpmi	r8, pc, asr r3
    1370:	4f4c5f52 	svcmi	0x004c5f52
    1374:	465f4b43 	ldrbmi	r4, [pc], -r3, asr #22
    1378:	20454552 	subcs	r4, r5, r2, asr r5
    137c:	50470031 	subpl	r0, r7, r1, lsr r0
    1380:	20445550 	subcs	r5, r4, r0, asr r5
    1384:	30327830 	eorscc	r7, r2, r0, lsr r8
    1388:	30303032 	eorscc	r3, r0, r2, lsr r0
    138c:	5f003439 	svcpl	0x00003439
    1390:	544c465f 	strbpl	r4, [ip], #-1631	; 0x65f
    1394:	4156455f 	cmpmi	r6, pc, asr r5
    1398:	454d5f4c 	strbmi	r5, [sp, #-3916]	; 0xf4c
    139c:	444f4854 	strbmi	r4, [pc], #-2132	; 13a4 <_start-0x6c5c>
    13a0:	30205f5f 	eorcc	r5, r0, pc, asr pc
    13a4:	555f5f00 	ldrbpl	r5, [pc, #-3840]	; 4ac <_start-0x7b54>
    13a8:	495f4154 	ldmdbmi	pc, {r2, r4, r6, r8, lr}^	; <UNPREDICTABLE>
    13ac:	5f544942 	svcpl	0x00544942
    13b0:	3436205f 	ldrtcc	r2, [r6], #-95	; 0x5f
    13b4:	415f5f00 	cmpmi	pc, r0, lsl #30
    13b8:	494d4f54 	stmdbmi	sp, {r2, r4, r6, r8, r9, sl, fp, lr}^
    13bc:	43415f43 	movtmi	r5, #8003	; 0x1f43
    13c0:	52495551 	subpl	r5, r9, #339738624	; 0x14400000
    13c4:	00322045 	eorseq	r2, r2, r5, asr #32
    13c8:	45445f5f 	strbmi	r5, [r4, #-3935]	; 0xf5f
    13cc:	5f343643 	svcpl	0x00343643
    13d0:	49535045 	ldmdbmi	r3, {r0, r2, r6, ip, lr}^
    13d4:	5f4e4f4c 	svcpl	0x004e4f4c
    13d8:	4531205f 	ldrmi	r2, [r1, #-95]!	; 0x5f
    13dc:	4435312d 	ldrtmi	r3, [r5], #-301	; 0x12d
    13e0:	5f5f0044 	svcpl	0x005f0044
    13e4:	43414c55 	movtmi	r4, #7253	; 0x1c55
    13e8:	5f4d5543 	svcpl	0x004d5543
    13ec:	49535045 	ldmdbmi	r3, {r0, r2, r6, ip, lr}^
    13f0:	5f4e4f4c 	svcpl	0x004e4f4c
    13f4:	7830205f 	ldmdavc	r0!, {r0, r1, r2, r3, r4, r6, sp}
    13f8:	332d5031 	teqcc	sp, #49	; 0x31
    13fc:	4b4c5532 	blmi	13168cc <multiplylookup+0x130d11c>
    1400:	554e4700 	strbpl	r4, [lr, #-1792]	; 0x700
    1404:	34204320 	strtcc	r4, [r0], #-800	; 0x320
    1408:	322e372e 	eorcc	r3, lr, #12058624	; 0xb80000
    140c:	475f5f00 	ldrbmi	r5, [pc, -r0, lsl #30]
    1410:	415f4343 	cmpmi	pc, r3, asr #6
    1414:	494d4f54 	stmdbmi	sp, {r2, r4, r6, r8, r9, sl, fp, lr}^
    1418:	4e495f43 	cdpmi	15, 4, cr5, cr9, cr3, {2}
    141c:	4f4c5f54 	svcmi	0x004c5f54
    1420:	465f4b43 	ldrbmi	r4, [pc], -r3, asr #22
    1424:	20454552 	subcs	r4, r5, r2, asr r5
    1428:	5f5f0031 	svcpl	0x005f0031
    142c:	43415355 	movtmi	r5, #4949	; 0x1355
    1430:	5f4d5543 	svcpl	0x004d5543
    1434:	54494246 	strbpl	r4, [r9], #-582	; 0x246
    1438:	38205f5f 	stmdacc	r0!, {r0, r1, r2, r3, r4, r6, r8, r9, sl, fp, ip, lr}
    143c:	555f5f00 	ldrbpl	r5, [pc, #-3840]	; 544 <_start-0x7abc>
    1440:	495f5144 	ldmdbmi	pc, {r2, r6, r8, ip, lr}^	; <UNPREDICTABLE>
    1444:	5f544942 	svcpl	0x00544942
    1448:	0030205f 	eorseq	r2, r0, pc, asr r0
    144c:	49535f5f 	ldmdbmi	r3, {r0, r1, r2, r3, r4, r6, r8, r9, sl, fp, ip, lr}^
    1450:	464f455a 			; <UNDEFINED> instruction: 0x464f455a
    1454:	4843575f 	stmdami	r3, {r0, r1, r2, r3, r4, r6, r8, r9, sl, ip, lr}^
    1458:	545f5241 	ldrbpl	r5, [pc], #-577	; 1460 <_start-0x6ba0>
    145c:	34205f5f 	strtcc	r5, [r0], #-3935	; 0xf5f
    1460:	555f5f00 	ldrbpl	r5, [pc, #-3840]	; 568 <_start-0x7a98>
    1464:	43434153 	movtmi	r4, #12627	; 0x3153
    1468:	4d5f4d55 	ldclmi	13, cr4, [pc, #-340]	; 131c <_start-0x6ce4>
    146c:	5f5f5841 	svcpl	0x005f5841
    1470:	46583020 	ldrbmi	r3, [r8], -r0, lsr #32
    1474:	50464646 	subpl	r4, r6, r6, asr #12
    1478:	4855382d 	ldmdami	r5, {r0, r2, r3, r5, fp, ip, sp}^
    147c:	5f5f004b 	svcpl	0x005f004b
    1480:	544e4955 	strbpl	r4, [lr], #-2389	; 0x955
    1484:	4d5f3233 	lfmmi	f3, 2, [pc, #-204]	; 13c0 <_start-0x6c40>
    1488:	5f5f5841 	svcpl	0x005f5841
    148c:	39323420 	ldmdbcc	r2!, {r5, sl, ip, sp}
    1490:	37363934 			; <UNDEFINED> instruction: 0x37363934
    1494:	55353932 	ldrpl	r3, [r5, #-2354]!	; 0x932
    1498:	5f5f004c 	svcpl	0x005f004c
    149c:	544e4955 	strbpl	r4, [lr], #-2389	; 0x955
    14a0:	5341465f 	movtpl	r4, #5727	; 0x165f
    14a4:	5f323354 	svcpl	0x00323354
    14a8:	45505954 	ldrbmi	r5, [r0, #-2388]	; 0x954
    14ac:	75205f5f 	strvc	r5, [r0, #-3935]!	; 0xf5f
    14b0:	6769736e 	strbvs	r7, [r9, -lr, ror #6]!
    14b4:	2064656e 	rsbcs	r6, r4, lr, ror #10
    14b8:	00746e69 	rsbseq	r6, r4, r9, ror #28
    14bc:	444c5f5f 	strbmi	r5, [ip], #-3935	; 0xf5f
    14c0:	445f4c42 	ldrbmi	r4, [pc], #-3138	; 14c8 <_start-0x6b38>
    14c4:	5f5f4749 	svcpl	0x005f4749
    14c8:	00353120 	eorseq	r3, r5, r0, lsr #2
    14cc:	4c455f5f 	mcrrmi	15, 5, r5, r5, cr15
    14d0:	205f5f46 	subscs	r5, pc, r6, asr #30
    14d4:	5f5f0031 	svcpl	0x005f0031
    14d8:	4c42444c 	cfstrdmi	mvd4, [r2], {76}	; 0x4c
    14dc:	5350455f 	cmppl	r0, #398458880	; 0x17c00000
    14e0:	4e4f4c49 	cdpmi	12, 4, cr4, cr15, cr9, {2}
    14e4:	32205f5f 	eorcc	r5, r0, #380	; 0x17c
    14e8:	3032322e 	eorscc	r3, r2, lr, lsr #4
    14ec:	30363434 	eorscc	r3, r6, r4, lsr r4
    14f0:	35323934 	ldrcc	r3, [r2, #-2356]!	; 0x934
    14f4:	33313330 	teqcc	r1, #48, 6	; 0xc0000000
    14f8:	312d6531 	teqcc	sp, r1, lsr r5
    14fc:	5f004c36 	svcpl	0x00004c36
    1500:	6d72615f 	ldfvse	f6, [r2, #-380]!	; 0xfffffe84
    1504:	31205f5f 	teqcc	r0, pc, asr pc
    1508:	485f5f00 	ldmdami	pc, {r8, r9, sl, fp, ip, lr}^	; <UNPREDICTABLE>
    150c:	42465f41 	submi	r5, r6, #260	; 0x104
    1510:	5f5f5449 	svcpl	0x005f5449
    1514:	5f003720 	svcpl	0x00003720
    1518:	5151555f 	cmppl	r1, pc, asr r5
    151c:	4942495f 	stmdbmi	r2, {r0, r1, r2, r3, r4, r6, r8, fp, lr}^
    1520:	205f5f54 	subscs	r5, pc, r4, asr pc	; <UNPREDICTABLE>
    1524:	5f5f0030 	svcpl	0x005f0030
    1528:	465f5151 			; <UNDEFINED> instruction: 0x465f5151
    152c:	5f544942 	svcpl	0x00544942
    1530:	0037205f 	eorseq	r2, r7, pc, asr r0
    1534:	41485f5f 	cmpmi	r8, pc, asr pc
    1538:	4942495f 	stmdbmi	r2, {r0, r1, r2, r3, r4, r6, r8, fp, lr}^
    153c:	205f5f54 	subscs	r5, pc, r4, asr pc	; <UNPREDICTABLE>
    1540:	5f5f0038 	svcpl	0x005f0038
    1544:	544e4955 	strbpl	r4, [lr], #-2389	; 0x955
    1548:	545f3233 	ldrbpl	r3, [pc], #-563	; 1550 <_start-0x6ab0>
    154c:	5f455059 	svcpl	0x00455059
    1550:	6f6c205f 	svcvs	0x006c205f
    1554:	7520676e 	strvc	r6, [r0, #-1902]!	; 0x76e
    1558:	6769736e 	strbvs	r7, [r9, -lr, ror #6]!
    155c:	2064656e 	rsbcs	r6, r4, lr, ror #10
    1560:	00746e69 	rsbseq	r6, r4, r9, ror #28
    1564:	42445f5f 	submi	r5, r4, #380	; 0x17c
    1568:	494d5f4c 	stmdbmi	sp, {r2, r3, r6, r8, r9, sl, fp, ip, lr}^
    156c:	205f5f4e 	subscs	r5, pc, lr, asr #30
    1570:	6f642828 	svcvs	0x00642828
    1574:	656c6275 	strbvs	r6, [ip, #-629]!	; 0x275
    1578:	322e3229 	eorcc	r3, lr, #-1879048190	; 0x90000002
    157c:	37303532 			; <UNDEFINED> instruction: 0x37303532
    1580:	38353833 	ldmdacc	r5!, {r0, r1, r4, r5, fp, ip, sp}
    1584:	32373035 	eorscc	r3, r7, #53	; 0x35
    1588:	65343130 	ldrvs	r3, [r4, #-304]!	; 0x130
    158c:	3830332d 	ldmdacc	r0!, {r0, r2, r3, r5, r8, r9, ip, sp}
    1590:	5f00294c 	svcpl	0x0000294c
    1594:	544e495f 	strbpl	r4, [lr], #-2399	; 0x95f
    1598:	5341465f 	movtpl	r4, #5727	; 0x165f
    159c:	5f343654 	svcpl	0x00343654
    15a0:	5f58414d 	svcpl	0x0058414d
    15a4:	3239205f 	eorscc	r2, r9, #95	; 0x5f
    15a8:	37333332 			; <UNDEFINED> instruction: 0x37333332
    15ac:	36333032 			; <UNDEFINED> instruction: 0x36333032
    15b0:	37343538 			; <UNDEFINED> instruction: 0x37343538
    15b4:	30383537 	eorscc	r3, r8, r7, lsr r5
    15b8:	004c4c37 	subeq	r4, ip, r7, lsr ip
    15bc:	44555f5f 	ldrbmi	r5, [r5], #-3935	; 0xf5f
    15c0:	42465f51 	submi	r5, r6, #324	; 0x144
    15c4:	5f5f5449 	svcpl	0x005f5449
    15c8:	00343620 	eorseq	r3, r4, r0, lsr #12
    15cc:	42445f5f 	submi	r5, r4, #380	; 0x17c
    15d0:	494d5f4c 	stmdbmi	sp, {r2, r3, r6, r8, r9, sl, fp, ip, lr}^
    15d4:	58455f4e 	stmdapl	r5, {r1, r2, r3, r6, r8, r9, sl, fp, ip, lr}^
    15d8:	205f5f50 	subscs	r5, pc, r0, asr pc	; <UNPREDICTABLE>
    15dc:	30312d28 	eorscc	r2, r1, r8, lsr #26
    15e0:	00293132 	eoreq	r3, r9, r2, lsr r1
    15e4:	49555f5f 	ldmdbmi	r5, {r0, r1, r2, r3, r4, r6, r8, r9, sl, fp, ip, lr}^
    15e8:	3631544e 	ldrtcc	r5, [r1], -lr, asr #8
    15ec:	58414d5f 	stmdapl	r1, {r0, r1, r2, r3, r4, r6, r8, sl, fp, lr}^
    15f0:	36205f5f 	qsaxcc	r5, r0, pc	; <UNPREDICTABLE>
    15f4:	35333535 	ldrcc	r3, [r3, #-1333]!	; 0x535
    15f8:	445f5f00 	ldrbmi	r5, [pc], #-3840	; 1600 <_start-0x6a00>
    15fc:	32314345 	eorscc	r4, r1, #335544321	; 0x14000001
    1600:	414d5f38 	cmpmi	sp, r8, lsr pc
    1604:	445f544e 	ldrbmi	r5, [pc], #-1102	; 160c <_start-0x69f4>
    1608:	5f5f4749 	svcpl	0x005f4749
    160c:	00343320 	eorseq	r3, r4, r0, lsr #6
    1610:	4f4c5f5f 	svcmi	0x004c5f5f
    1614:	4c5f474e 	mrrcmi	7, 4, r4, pc, cr14	; <UNPREDICTABLE>
    1618:	5f474e4f 	svcpl	0x00474e4f
    161c:	5f58414d 	svcpl	0x0058414d
    1620:	3239205f 	eorscc	r2, r9, #95	; 0x5f
    1624:	37333332 			; <UNDEFINED> instruction: 0x37333332
    1628:	36333032 			; <UNDEFINED> instruction: 0x36333032
    162c:	37343538 			; <UNDEFINED> instruction: 0x37343538
    1630:	30383537 	eorscc	r3, r8, r7, lsr r5
    1634:	004c4c37 	subeq	r4, ip, r7, lsr ip
    1638:	51445f5f 	cmppl	r4, pc, asr pc
    163c:	4942495f 	stmdbmi	r2, {r0, r1, r2, r3, r4, r6, r8, fp, lr}^
    1640:	205f5f54 	subscs	r5, pc, r4, asr pc	; <UNPREDICTABLE>
    1644:	65680030 	strbvs	r0, [r8, #-48]!	; 0x30
    1648:	72747378 	rsbsvc	r7, r4, #120, 6	; 0xe0000001
    164c:	00676e69 	rsbeq	r6, r7, r9, ror #28
    1650:	43475f5f 	movtmi	r5, #32607	; 0x7f5f
    1654:	54415f43 	strbpl	r5, [r1], #-3907	; 0xf43
    1658:	43494d4f 	movtmi	r4, #40271	; 0x9d4f
    165c:	4148435f 	cmpmi	r8, pc, asr r3
    1660:	5f363152 	svcpl	0x00363152
    1664:	4f4c5f54 	svcmi	0x004c5f54
    1668:	465f4b43 	ldrbmi	r4, [pc], -r3, asr #22
    166c:	20454552 	subcs	r4, r5, r2, asr r5
    1670:	5f5f0031 	svcpl	0x005f0031
    1674:	44525450 	ldrbmi	r5, [r2], #-1104	; 0x450
    1678:	5f464649 	svcpl	0x00464649
    167c:	5f58414d 	svcpl	0x0058414d
    1680:	3132205f 	teqcc	r2, pc, asr r0
    1684:	38343734 	ldmdacc	r4!, {r2, r4, r5, r8, r9, sl, ip, sp}
    1688:	37343633 			; <UNDEFINED> instruction: 0x37343633
    168c:	58554100 	ldmdapl	r5, {r8, lr}^
    1690:	5f554d5f 	svcpl	0x00554d5f
    1694:	5f52434c 	svcpl	0x0052434c
    1698:	20474552 	subcs	r4, r7, r2, asr r5
    169c:	30327830 	eorscc	r7, r2, r0, lsr r8
    16a0:	30353132 	eorscc	r3, r5, r2, lsr r1
    16a4:	5f004334 	svcpl	0x00004334
    16a8:	544c465f 	strbpl	r4, [ip], #-1631	; 0x65f
    16ac:	4749445f 	smlsldmi	r4, r9, pc, r4	; <UNPREDICTABLE>
    16b0:	36205f5f 	qsaxcc	r5, r0, pc	; <UNPREDICTABLE>
    16b4:	495f5f00 	ldmdbmi	pc, {r8, r9, sl, fp, ip, lr}^	; <UNPREDICTABLE>
    16b8:	3233544e 	eorscc	r5, r3, #1308622848	; 0x4e000000
    16bc:	5059545f 	subspl	r5, r9, pc, asr r4
    16c0:	205f5f45 	subscs	r5, pc, r5, asr #30
    16c4:	676e6f6c 	strbvs	r6, [lr, -ip, ror #30]!
    16c8:	746e6920 	strbtvc	r6, [lr], #-2336	; 0x920
    16cc:	555f5f00 	ldrbpl	r5, [pc, #-3840]	; 7d4 <_start-0x782c>
    16d0:	43434153 	movtmi	r4, #12627	; 0x3153
    16d4:	4d5f4d55 	ldclmi	13, cr4, [pc, #-340]	; 1588 <_start-0x6a78>
    16d8:	5f5f4e49 	svcpl	0x005f4e49
    16dc:	302e3020 	eorcc	r3, lr, r0, lsr #32
    16e0:	004b4855 	subeq	r4, fp, r5, asr r8
    16e4:	4e495f5f 	mcrmi	15, 2, r5, cr9, cr15, {2}
    16e8:	58414d54 	stmdapl	r1, {r2, r4, r6, r8, sl, fp, lr}^
    16ec:	6328435f 	teqvs	r8, #2080374785	; 0x7c000001
    16f0:	20632029 	rsbcs	r2, r3, r9, lsr #32
    16f4:	4c202323 	stcmi	3, cr2, [r0], #-140	; 0xffffff74
    16f8:	5f5f004c 	svcpl	0x005f004c
    16fc:	544e4955 	strbpl	r4, [lr], #-2389	; 0x955
    1700:	41454c5f 	cmpmi	r5, pc, asr ip
    1704:	32335453 	eorscc	r5, r3, #1392508928	; 0x53000000
    1708:	5059545f 	subspl	r5, r9, pc, asr r4
    170c:	205f5f45 	subscs	r5, pc, r5, asr #30
    1710:	676e6f6c 	strbvs	r6, [lr, -ip, ror #30]!
    1714:	736e7520 	cmnvc	lr, #32, 10	; 0x8000000
    1718:	656e6769 	strbvs	r6, [lr, #-1897]!	; 0x769
    171c:	6e692064 	cdpvs	0, 6, cr2, cr9, cr4, {3}
    1720:	5f5f0074 	svcpl	0x005f0074
    1724:	36544e49 	ldrbcc	r4, [r4], -r9, asr #28
    1728:	28435f34 	stmdacs	r3, {r2, r4, r5, r8, r9, sl, fp, ip, lr}^
    172c:	63202963 	teqvs	r0, #1622016	; 0x18c000
    1730:	20232320 	eorcs	r2, r3, r0, lsr #6
    1734:	5f004c4c 	svcpl	0x00004c4c
    1738:	544e495f 	strbpl	r4, [lr], #-2399	; 0x95f
    173c:	41454c5f 	cmpmi	r5, pc, asr ip
    1740:	5f385453 	svcpl	0x00385453
    1744:	45505954 	ldrbmi	r5, [r0, #-2388]	; 0x954
    1748:	73205f5f 	teqvc	r0, #380	; 0x17c
    174c:	656e6769 	strbvs	r6, [lr, #-1897]!	; 0x769
    1750:	68632064 	stmdavs	r3!, {r2, r5, r6, sp}^
    1754:	5f007261 	svcpl	0x00007261
    1758:	4e49555f 	mcrmi	5, 2, r5, cr9, cr15, {2}
    175c:	5f363154 	svcpl	0x00363154
    1760:	29632843 	stmdbcs	r3!, {r0, r1, r6, fp, sp}^
    1764:	5f006320 	svcpl	0x00006320
    1768:	5a49535f 	bpl	12564ec <multiplylookup+0x124cd3c>
    176c:	5f464f45 	svcpl	0x00464f45
    1770:	414f4c46 	cmpmi	pc, r6, asr #24
    1774:	205f5f54 	subscs	r5, pc, r4, asr pc	; <UNPREDICTABLE>
    1778:	5f5f0034 	svcpl	0x005f0034
    177c:	5f4c4244 	svcpl	0x004c4244
    1780:	5f58414d 	svcpl	0x0058414d
    1784:	455f3031 	ldrbmi	r3, [pc, #-49]	; 175b <_start-0x68a5>
    1788:	5f5f5058 	svcpl	0x005f5058
    178c:	38303320 	ldmdacc	r0!, {r5, r8, r9, ip, sp}
    1790:	465f5f00 	ldrbmi	r5, [pc], -r0, lsl #30
    1794:	445f544c 	ldrbmi	r5, [pc], #-1100	; 179c <_start-0x6864>
    1798:	524f4e45 	subpl	r4, pc, #1104	; 0x450
    179c:	494d5f4d 	stmdbmi	sp, {r0, r2, r3, r6, r8, r9, sl, fp, ip, lr}^
    17a0:	205f5f4e 	subscs	r5, pc, lr, asr #30
    17a4:	30342e31 	eorscc	r2, r4, r1, lsr lr
    17a8:	38393231 	ldmdacc	r9!, {r0, r4, r5, r9, ip, sp}
    17ac:	33343634 	teqcc	r4, #52, 12	; 0x3400000
    17b0:	31383432 	teqcc	r8, r2, lsr r4
    17b4:	2d653137 	stfcse	f3, [r5, #-220]!	; 0xffffff24
    17b8:	00463534 	subeq	r3, r6, r4, lsr r5
    17bc:	4c465f5f 	mcrrmi	15, 5, r5, r6, cr15
    17c0:	50455f54 	subpl	r5, r5, r4, asr pc
    17c4:	4f4c4953 	svcmi	0x004c4953
    17c8:	205f5f4e 	subscs	r5, pc, lr, asr #30
    17cc:	39312e31 	ldmdbcc	r1!, {r0, r4, r5, r9, sl, fp, sp}
    17d0:	32393032 	eorscc	r3, r9, #50	; 0x32
    17d4:	35353938 	ldrcc	r3, [r5, #-2360]!	; 0x938
    17d8:	31383730 	teqcc	r8, r0, lsr r7
    17dc:	2d653532 	cfstr64cs	mvdx3, [r5, #-200]!	; 0xffffff38
    17e0:	5f004637 	svcpl	0x00004637
    17e4:	544e495f 	strbpl	r4, [lr], #-2399	; 0x95f
    17e8:	41454c5f 	cmpmi	r5, pc, asr ip
    17ec:	32335453 	eorscc	r5, r3, #1392508928	; 0x53000000
    17f0:	58414d5f 	stmdapl	r1, {r0, r1, r2, r3, r4, r6, r8, sl, fp, lr}^
    17f4:	32205f5f 	eorcc	r5, r0, #380	; 0x17c
    17f8:	34373431 	ldrtcc	r3, [r7], #-1073	; 0x431
    17fc:	34363338 	ldrtcc	r3, [r6], #-824	; 0x338
    1800:	5f004c37 	svcpl	0x00004c37
    1804:	4d52415f 	ldfmie	f4, [r2, #-380]	; 0xfffffe84
    1808:	4352415f 	cmpmi	r2, #-1073741801	; 0xc0000017
    180c:	54345f48 	ldrtpl	r5, [r4], #-3912	; 0xf48
    1810:	31205f5f 	teqcc	r0, pc, asr pc
    1814:	555f5f00 	ldrbpl	r5, [pc, #-3840]	; 91c <_start-0x76e4>
    1818:	43434153 	movtmi	r4, #12627	; 0x3153
    181c:	495f4d55 	ldmdbmi	pc, {r0, r2, r4, r6, r8, sl, fp, lr}^	; <UNPREDICTABLE>
    1820:	5f544942 	svcpl	0x00544942
    1824:	0038205f 	eorseq	r2, r8, pc, asr r0
    1828:	524f5f5f 	subpl	r5, pc, #380	; 0x17c
    182c:	5f524544 	svcpl	0x00524544
    1830:	5454494c 	ldrbpl	r4, [r4], #-2380	; 0x94c
    1834:	455f454c 	ldrbmi	r4, [pc, #-1356]	; 12f0 <_start-0x6d10>
    1838:	4149444e 	cmpmi	r9, lr, asr #8
    183c:	205f5f4e 	subscs	r5, pc, lr, asr #30
    1840:	34333231 	ldrtcc	r3, [r3], #-561	; 0x231
    1844:	575f5f00 	ldrbpl	r5, [pc, -r0, lsl #30]
    1848:	5f544e49 	svcpl	0x00544e49
    184c:	45505954 	ldrbmi	r5, [r0, #-2388]	; 0x954
    1850:	75205f5f 	strvc	r5, [r0, #-3935]!	; 0xf5f
    1854:	6769736e 	strbvs	r7, [r9, -lr, ror #6]!
    1858:	2064656e 	rsbcs	r6, r4, lr, ror #10
    185c:	00746e69 	rsbseq	r6, r4, r9, ror #28
    1860:	5f4d5241 	svcpl	0x004d5241
    1864:	454d4954 	strbmi	r4, [sp, #-2388]	; 0x954
    1868:	54435f52 	strbpl	r5, [r3], #-3922	; 0xf52
    186c:	7830204c 	ldmdavc	r0!, {r2, r3, r6, sp}
    1870:	30303032 	eorscc	r3, r0, r2, lsr r0
    1874:	38303442 	ldmdacc	r0!, {r1, r6, sl, ip, sp}
    1878:	495f5f00 	ldmdbmi	pc, {r8, r9, sl, fp, ip, lr}^	; <UNPREDICTABLE>
    187c:	4c5f544e 	cfldrdmi	mvd5, [pc], {78}	; 0x4e
    1880:	54534145 	ldrbpl	r4, [r3], #-325	; 0x145
    1884:	545f3436 	ldrbpl	r3, [pc], #-1078	; 188c <_start-0x6774>
    1888:	5f455059 	svcpl	0x00455059
    188c:	6f6c205f 	svcvs	0x006c205f
    1890:	6c20676e 	stcvs	7, cr6, [r0], #-440	; 0xfffffe48
    1894:	20676e6f 	rsbcs	r6, r7, pc, ror #28
    1898:	00746e69 	rsbseq	r6, r4, r9, ror #28
    189c:	54415f5f 	strbpl	r5, [r1], #-3935	; 0xf5f
    18a0:	43494d4f 	movtmi	r4, #40271	; 0x9d4f
    18a4:	4c45525f 	sfmmi	f5, 2, [r5], {95}	; 0x5f
    18a8:	44455841 	strbmi	r5, [r5], #-2113	; 0x841
    18ac:	5f003020 	svcpl	0x00003020
    18b0:	5f41445f 	svcpl	0x0041445f
    18b4:	54494249 	strbpl	r4, [r9], #-585	; 0x249
    18b8:	33205f5f 	teqcc	r0, #380	; 0x17c
    18bc:	5f5f0032 	svcpl	0x005f0032
    18c0:	4343414c 	movtmi	r4, #12620	; 0x314c
    18c4:	4d5f4d55 	ldclmi	13, cr4, [pc, #-340]	; 1778 <_start-0x6888>
    18c8:	5f5f5841 	svcpl	0x005f5841
    18cc:	37583020 	ldrbcc	r3, [r8, -r0, lsr #32]
    18d0:	46464646 	strbmi	r4, [r6], -r6, asr #12
    18d4:	46464646 	strbmi	r4, [r6], -r6, asr #12
    18d8:	46464646 	strbmi	r4, [r6], -r6, asr #12
    18dc:	50464646 	subpl	r4, r6, r6, asr #12
    18e0:	4c31332d 	ldcmi	3, cr3, [r1], #-180	; 0xffffff4c
    18e4:	5f5f004b 	svcpl	0x005f004b
    18e8:	414c4c55 	cmpmi	ip, r5, asr ip
    18ec:	4d554343 	ldclmi	3, cr4, [r5, #-268]	; 0xfffffef4
    18f0:	4e494d5f 	mcrmi	13, 2, r4, cr9, cr15, {2}
    18f4:	30205f5f 	eorcc	r5, r0, pc, asr pc
    18f8:	4c55302e 	mrrcmi	0, 2, r3, r5, cr14
    18fc:	5f004b4c 	svcpl	0x00004b4c
    1900:	4345445f 	movtmi	r4, #21599	; 0x545f
    1904:	5f383231 	svcpl	0x00383231
    1908:	5f4e494d 	svcpl	0x004e494d
    190c:	4531205f 	ldrmi	r2, [r1, #-95]!	; 0x5f
    1910:	3431362d 	ldrtcc	r3, [r1], #-1581	; 0x62d
    1914:	004c4433 	subeq	r4, ip, r3, lsr r4
    1918:	45445f5f 	strbmi	r5, [r4, #-3935]	; 0xf5f
    191c:	5f323343 	svcpl	0x00323343
    1920:	544e414d 	strbpl	r4, [lr], #-333	; 0x14d
    1924:	4749445f 	smlsldmi	r4, r9, pc, r4	; <UNPREDICTABLE>
    1928:	37205f5f 			; <UNDEFINED> instruction: 0x37205f5f
    192c:	72617500 	rsbvc	r7, r1, #0, 10
    1930:	65735f74 	ldrbvs	r5, [r3, #-3956]!	; 0xf74
    1934:	5f00646e 	svcpl	0x0000646e
    1938:	4749535f 	smlsldmi	r5, r9, pc, r3	; <UNPREDICTABLE>
    193c:	4f54415f 	svcmi	0x0054415f
    1940:	5f43494d 	svcpl	0x0043494d
    1944:	5f58414d 	svcpl	0x0058414d
    1948:	3132205f 	teqcc	r2, pc, asr r0
    194c:	38343734 	ldmdacc	r4!, {r2, r4, r5, r8, r9, sl, ip, sp}
    1950:	37343633 			; <UNDEFINED> instruction: 0x37343633
    1954:	495f5f00 	ldmdbmi	pc, {r8, r9, sl, fp, ip, lr}^	; <UNPREDICTABLE>
    1958:	4c5f544e 	cfldrdmi	mvd5, [pc], {78}	; 0x4e
    195c:	54534145 	ldrbpl	r4, [r3], #-325	; 0x145
    1960:	545f3233 	ldrbpl	r3, [pc], #-563	; 1968 <_start-0x6698>
    1964:	5f455059 	svcpl	0x00455059
    1968:	6f6c205f 	svcvs	0x006c205f
    196c:	6920676e 	stmdbvs	r0!, {r1, r2, r3, r5, r6, r8, r9, sl, sp, lr}
    1970:	5f00746e 	svcpl	0x0000746e
    1974:	4341535f 	movtmi	r5, #4959	; 0x135f
    1978:	5f4d5543 	svcpl	0x004d5543
    197c:	5f58414d 	svcpl	0x0058414d
    1980:	5830205f 	ldmdapl	r0!, {r0, r1, r2, r3, r4, r6, sp}
    1984:	46464637 			; <UNDEFINED> instruction: 0x46464637
    1988:	48372d50 	ldmdami	r7!, {r4, r6, r8, sl, fp, sp}
    198c:	5f5f004b 	svcpl	0x005f004b
    1990:	4d544e49 	ldclmi	14, cr4, [r4, #-292]	; 0xfffffedc
    1994:	4d5f5841 	ldclmi	8, cr5, [pc, #-260]	; 1898 <_start-0x6768>
    1998:	5f5f5841 	svcpl	0x005f5841
    199c:	32323920 	eorscc	r3, r2, #32, 18	; 0x80000
    19a0:	32373333 	eorscc	r3, r7, #-872415232	; 0xcc000000
    19a4:	38363330 	ldmdacc	r6!, {r4, r5, r8, r9, ip, sp}
    19a8:	37373435 			; <UNDEFINED> instruction: 0x37373435
    19ac:	37303835 			; <UNDEFINED> instruction: 0x37303835
    19b0:	5f004c4c 	svcpl	0x00004c4c
    19b4:	5858475f 	ldmdapl	r8, {r0, r1, r2, r3, r4, r6, r8, r9, sl, lr}^
    19b8:	4942415f 	stmdbmi	r2, {r0, r1, r2, r3, r4, r6, r8, lr}^
    19bc:	5245565f 	subpl	r5, r5, #99614720	; 0x5f00000
    19c0:	4e4f4953 	mcrmi	9, 2, r4, cr15, cr3, {2}
    19c4:	30303120 	eorscc	r3, r0, r0, lsr #2
    19c8:	5f5f0032 	svcpl	0x005f0032
    19cc:	41524655 	cmpmi	r2, r5, asr r6
    19d0:	495f5443 	ldmdbmi	pc, {r0, r1, r6, sl, ip, lr}^	; <UNPREDICTABLE>
    19d4:	5f544942 	svcpl	0x00544942
    19d8:	0030205f 	eorseq	r2, r0, pc, asr r0
    19dc:	53555f5f 	cmppl	r5, #380	; 0x17c
    19e0:	43415246 	movtmi	r5, #4678	; 0x1246
    19e4:	42495f54 	submi	r5, r9, #84, 30	; 0x150
    19e8:	5f5f5449 	svcpl	0x005f5449
    19ec:	5f003020 	svcpl	0x00003020
    19f0:	5f41535f 	svcpl	0x0041535f
    19f4:	54494246 	strbpl	r4, [r9], #-582	; 0x246
    19f8:	31205f5f 	teqcc	r0, pc, asr pc
    19fc:	5f5f0035 	svcpl	0x005f0035
    1a00:	43414c55 	movtmi	r4, #7253	; 0x1c55
    1a04:	5f4d5543 	svcpl	0x004d5543
    1a08:	54494249 	strbpl	r4, [r9], #-585	; 0x249
    1a0c:	33205f5f 	teqcc	r0, #380	; 0x17c
    1a10:	5f5f0032 	svcpl	0x005f0032
    1a14:	4152464c 	cmpmi	r2, ip, asr #12
    1a18:	495f5443 	ldmdbmi	pc, {r0, r1, r6, sl, ip, lr}^	; <UNPREDICTABLE>
    1a1c:	5f544942 	svcpl	0x00544942
    1a20:	0030205f 	eorseq	r2, r0, pc, asr r0
    1a24:	51485f5f 	cmppl	r8, pc, asr pc
    1a28:	4942495f 	stmdbmi	r2, {r0, r1, r2, r3, r4, r6, r8, fp, lr}^
    1a2c:	205f5f54 	subscs	r5, pc, r4, asr pc	; <UNPREDICTABLE>
    1a30:	55410030 	strbpl	r0, [r1, #-48]	; 0x30
    1a34:	554d5f58 	strbpl	r5, [sp, #-3928]	; 0xf58
    1a38:	5541425f 	strbpl	r4, [r1, #-607]	; 0x25f
    1a3c:	45525f44 	ldrbmi	r5, [r2, #-3908]	; 0xf44
    1a40:	78302047 	ldmdavc	r0!, {r0, r1, r2, r6, sp}
    1a44:	31323032 	teqcc	r2, r2, lsr r0
    1a48:	38363035 	ldmdacc	r6!, {r0, r2, r4, r5, ip, sp}
    1a4c:	58554100 	ldmdapl	r5, {r8, lr}^
    1a50:	5f554d5f 	svcpl	0x00554d5f
    1a54:	5f524949 	svcpl	0x00524949
    1a58:	20474552 	subcs	r4, r7, r2, asr r5
    1a5c:	30327830 	eorscc	r7, r2, r0, lsr r8
    1a60:	30353132 	eorscc	r3, r5, r2, lsr r1
    1a64:	5f003834 	svcpl	0x00003834
    1a68:	5246555f 	subpl	r5, r6, #398458880	; 0x17c00000
    1a6c:	5f544341 	svcpl	0x00544341
    1a70:	49535045 	ldmdbmi	r3, {r0, r2, r6, ip, lr}^
    1a74:	5f4e4f4c 	svcpl	0x004e4f4c
    1a78:	7830205f 	ldmdavc	r0!, {r0, r1, r2, r3, r4, r6, sp}
    1a7c:	312d5031 	teqcc	sp, r1, lsr r0
    1a80:	00525536 	subseq	r5, r2, r6, lsr r5
    1a84:	49555f5f 	ldmdbmi	r5, {r0, r1, r2, r3, r4, r6, r8, r9, sl, fp, ip, lr}^
    1a88:	5450544e 	ldrbpl	r5, [r0], #-1102	; 0x44e
    1a8c:	59545f52 	ldmdbpl	r4, {r1, r4, r6, r8, r9, sl, fp, ip, lr}^
    1a90:	5f5f4550 	svcpl	0x005f4550
    1a94:	736e7520 	cmnvc	lr, #32, 10	; 0x8000000
    1a98:	656e6769 	strbvs	r6, [lr, #-1897]!	; 0x769
    1a9c:	6e692064 	cdpvs	0, 6, cr2, cr9, cr4, {3}
    1aa0:	5f5f0074 	svcpl	0x005f0074
    1aa4:	4c42444c 	cfstrdmi	mvd4, [r2], {76}	; 0x4c
    1aa8:	4e494d5f 	mcrmi	13, 2, r4, cr9, cr15, {2}
    1aac:	5058455f 	subspl	r4, r8, pc, asr r5
    1ab0:	28205f5f 	stmdacs	r0!, {r0, r1, r2, r3, r4, r6, r8, r9, sl, fp, ip, lr}
    1ab4:	3230312d 	eorscc	r3, r0, #1073741835	; 0x4000000b
    1ab8:	5f002931 	svcpl	0x00002931
    1abc:	544c465f 	strbpl	r4, [ip], #-1631	; 0x65f
    1ac0:	4441525f 	strbmi	r5, [r1], #-607	; 0x25f
    1ac4:	5f5f5849 	svcpl	0x005f5849
    1ac8:	5f003220 	svcpl	0x00003220
    1acc:	4e49575f 	mcrmi	7, 2, r5, cr9, cr15, {2}
    1ad0:	414d5f54 	cmpmi	sp, r4, asr pc
    1ad4:	205f5f58 	subscs	r5, pc, r8, asr pc	; <UNPREDICTABLE>
    1ad8:	34393234 	ldrtcc	r3, [r9], #-564	; 0x234
    1adc:	32373639 	eorscc	r3, r7, #59768832	; 0x3900000
    1ae0:	00553539 	subseq	r3, r5, r9, lsr r5
    1ae4:	41535f5f 	cmpmi	r3, pc, asr pc
    1ae8:	4d554343 	ldclmi	3, cr4, [r5, #-268]	; 0xfffffef4
    1aec:	4e494d5f 	mcrmi	13, 2, r4, cr9, cr15, {2}
    1af0:	28205f5f 	stmdacs	r0!, {r0, r1, r2, r3, r4, r6, r8, r9, sl, fp, ip, lr}
    1af4:	3158302d 	cmpcc	r8, sp, lsr #32
    1af8:	4b483750 	blmi	120f840 <multiplylookup+0x1206090>
    1afc:	3158302d 	cmpcc	r8, sp, lsr #32
    1b00:	4b483750 	blmi	120f848 <multiplylookup+0x1206098>
    1b04:	5f5f0029 	svcpl	0x005f0029
    1b08:	5f544c46 	svcpl	0x00544c46
    1b0c:	5f534148 	svcpl	0x00534148
    1b10:	49464e49 	stmdbmi	r6, {r0, r3, r6, r9, sl, fp, lr}^
    1b14:	5954494e 	ldmdbpl	r4, {r1, r2, r3, r6, r8, fp, lr}^
    1b18:	31205f5f 	teqcc	r0, pc, asr pc
    1b1c:	575f5f00 	ldrbpl	r5, [pc, -r0, lsl #30]
    1b20:	52414843 	subpl	r4, r1, #4390912	; 0x430000
    1b24:	4e494d5f 	mcrmi	13, 2, r4, cr9, cr15, {2}
    1b28:	30205f5f 	eorcc	r5, r0, pc, asr pc
    1b2c:	5f5f0055 	svcpl	0x005f0055
    1b30:	54524853 	ldrbpl	r4, [r2], #-2131	; 0x853
    1b34:	58414d5f 	stmdapl	r1, {r0, r1, r2, r3, r4, r6, r8, sl, fp, lr}^
    1b38:	33205f5f 	teqcc	r0, #380	; 0x17c
    1b3c:	37363732 			; <UNDEFINED> instruction: 0x37363732
    1b40:	555f5f00 	ldrbpl	r5, [pc, #-3840]	; c48 <_start-0x73b8>
    1b44:	5f544e49 	svcpl	0x00544e49
    1b48:	5341454c 	movtpl	r4, #5452	; 0x154c
    1b4c:	5f343654 	svcpl	0x00343654
    1b50:	5f58414d 	svcpl	0x0058414d
    1b54:	3831205f 	ldmdacc	r1!, {r0, r1, r2, r3, r4, r6, sp}
    1b58:	37363434 			; <UNDEFINED> instruction: 0x37363434
    1b5c:	37303434 			; <UNDEFINED> instruction: 0x37303434
    1b60:	39303733 	ldmdbcc	r0!, {r0, r1, r4, r5, r8, r9, sl, ip, sp}
    1b64:	36313535 			; <UNDEFINED> instruction: 0x36313535
    1b68:	4c553531 	cfldr64mi	mvdx3, [r5], {49}	; 0x31
    1b6c:	5f5f004c 	svcpl	0x005f004c
    1b70:	4c42444c 	cfstrdmi	mvd4, [r2], {76}	; 0x4c
    1b74:	58414d5f 	stmdapl	r1, {r0, r1, r2, r3, r4, r6, r8, sl, fp, lr}^
    1b78:	5f30315f 	svcpl	0x0030315f
    1b7c:	5f505845 	svcpl	0x00505845
    1b80:	3033205f 	eorscc	r2, r3, pc, asr r0
    1b84:	55410038 	strbpl	r0, [r1, #-56]	; 0x38
    1b88:	554d5f58 	strbpl	r5, [sp, #-3928]	; 0xf58
    1b8c:	5245495f 	subpl	r4, r5, #1556480	; 0x17c000
    1b90:	4745525f 	smlsldmi	r5, r5, pc, r2	; <UNPREDICTABLE>
    1b94:	32783020 	rsbscc	r3, r8, #32
    1b98:	35313230 	ldrcc	r3, [r1, #-560]!	; 0x230
    1b9c:	00343430 	eorseq	r3, r4, r0, lsr r4
    1ba0:	73786568 	cmnvc	r8, #104, 10	; 0x1a000000
    1ba4:	6e697274 	mcrvs	2, 3, r7, cr9, cr4, {3}
    1ba8:	5f007367 	svcpl	0x00007367
    1bac:	4c4c555f 	cfstr64mi	mvdx5, [ip], {95}	; 0x5f
    1bb0:	43415246 	movtmi	r5, #4678	; 0x1246
    1bb4:	50455f54 	subpl	r5, r5, r4, asr pc
    1bb8:	4f4c4953 	svcmi	0x004c4953
    1bbc:	205f5f4e 	subscs	r5, pc, lr, asr #30
    1bc0:	50317830 	eorspl	r7, r1, r0, lsr r8
    1bc4:	5534362d 	ldrpl	r3, [r4, #-1581]!	; 0x62d
    1bc8:	00524c4c 	subseq	r4, r2, ip, asr #24
    1bcc:	4e495f5f 	mcrmi	15, 2, r5, cr9, cr15, {2}
    1bd0:	41465f54 	cmpmi	r6, r4, asr pc
    1bd4:	32335453 	eorscc	r5, r3, #1392508928	; 0x53000000
    1bd8:	58414d5f 	stmdapl	r1, {r0, r1, r2, r3, r4, r6, r8, sl, fp, lr}^
    1bdc:	32205f5f 	eorcc	r5, r0, #380	; 0x17c
    1be0:	34373431 	ldrtcc	r3, [r7], #-1073	; 0x431
    1be4:	34363338 	ldrtcc	r3, [r6], #-824	; 0x338
    1be8:	65700037 	ldrbvs	r0, [r0, #-55]!	; 0x37
    1bec:	68706972 	ldmdavs	r0!, {r1, r4, r5, r6, r8, fp, sp, lr}^
    1bf0:	5f00632e 	svcpl	0x0000632e
    1bf4:	5153555f 	cmppl	r3, pc, asr r5
    1bf8:	4942495f 	stmdbmi	r2, {r0, r1, r2, r3, r4, r6, r8, fp, lr}^
    1bfc:	205f5f54 	subscs	r5, pc, r4, asr pc	; <UNPREDICTABLE>
    1c00:	5f5f0030 	svcpl	0x005f0030
    1c04:	544e4955 	strbpl	r4, [lr], #-2389	; 0x955
    1c08:	5341465f 	movtpl	r4, #5727	; 0x165f
    1c0c:	545f3854 	ldrbpl	r3, [pc], #-2132	; 1c14 <_start-0x63ec>
    1c10:	5f455059 	svcpl	0x00455059
    1c14:	6e75205f 	mrcvs	0, 3, r2, cr5, cr15, {2}
    1c18:	6e676973 	mcrvs	9, 3, r6, cr7, cr3, {3}
    1c1c:	69206465 	stmdbvs	r0!, {r0, r2, r5, r6, sl, sp, lr}
    1c20:	5f00746e 	svcpl	0x0000746e
    1c24:	5254505f 	subspl	r5, r4, #95	; 0x5f
    1c28:	46464944 	strbmi	r4, [r6], -r4, asr #18
    1c2c:	5059545f 	subspl	r5, r9, pc, asr r4
    1c30:	205f5f45 	subscs	r5, pc, r5, asr #30
    1c34:	00746e69 	rsbseq	r6, r4, r9, ror #28
    1c38:	444c5f5f 	strbmi	r5, [ip], #-3935	; 0xf5f
    1c3c:	485f4c42 	ldmdami	pc, {r1, r6, sl, fp, lr}^	; <UNPREDICTABLE>
    1c40:	445f5341 	ldrbmi	r5, [pc], #-833	; 1c48 <_start-0x63b8>
    1c44:	524f4e45 	subpl	r4, pc, #1104	; 0x450
    1c48:	205f5f4d 	subscs	r5, pc, sp, asr #30
    1c4c:	5f5f0031 	svcpl	0x005f0031
    1c50:	4343414c 	movtmi	r4, #12620	; 0x314c
    1c54:	465f4d55 			; <UNDEFINED> instruction: 0x465f4d55
    1c58:	5f544942 	svcpl	0x00544942
    1c5c:	3133205f 	teqcc	r3, pc, asr r0
    1c60:	575f5f00 	ldrbpl	r5, [pc, -r0, lsl #30]
    1c64:	52414843 	subpl	r4, r1, #4390912	; 0x430000
    1c68:	5059545f 	subspl	r5, r9, pc, asr r4
    1c6c:	205f5f45 	subscs	r5, pc, r5, asr #30
    1c70:	69736e75 	ldmdbvs	r3!, {r0, r2, r4, r5, r6, r9, sl, fp, sp, lr}^
    1c74:	64656e67 	strbtvs	r6, [r5], #-3687	; 0xe67
    1c78:	746e6920 	strbtvc	r6, [lr], #-2336	; 0x920
    1c7c:	445f5f00 	ldrbmi	r5, [pc], #-3840	; 1c84 <_start-0x637c>
    1c80:	455f4c42 	ldrbmi	r4, [pc, #-3138]	; 1046 <_start-0x6fba>
    1c84:	4c495350 	mcrrmi	3, 5, r5, r9, cr0
    1c88:	5f5f4e4f 	svcpl	0x005f4e4f
    1c8c:	64282820 	strtvs	r2, [r8], #-2080	; 0x820
    1c90:	6c62756f 	cfstr64vs	mvdx7, [r2], #-444	; 0xfffffe44
    1c94:	2e322965 	cdpcs	9, 3, cr2, cr2, cr5, {3}
    1c98:	34303232 	ldrtcc	r3, [r0], #-562	; 0x232
    1c9c:	34303634 	ldrtcc	r3, [r0], #-1588	; 0x634
    1ca0:	30353239 	eorscc	r3, r5, r9, lsr r2
    1ca4:	31333133 	teqcc	r3, r3, lsr r1
    1ca8:	36312d65 	ldrtcc	r2, [r1], -r5, ror #26
    1cac:	5f00294c 	svcpl	0x0000294c
    1cb0:	4e49555f 	mcrmi	5, 2, r5, cr9, cr15, {2}
    1cb4:	5f323354 	svcpl	0x00323354
    1cb8:	29632843 	stmdbcs	r3!, {r0, r1, r6, fp, sp}^
    1cbc:	23206320 	teqcs	r0, #32, 6	; 0x80000000
    1cc0:	4c552023 	mrrcmi	0, 2, r2, r5, cr3
    1cc4:	555f5f00 	ldrbpl	r5, [pc, #-3840]	; dcc <_start-0x7234>
    1cc8:	465f4148 	ldrbmi	r4, [pc], -r8, asr #2
    1ccc:	5f544942 	svcpl	0x00544942
    1cd0:	0038205f 	eorseq	r2, r8, pc, asr r0
    1cd4:	54415f5f 	strbpl	r5, [r1], #-3935	; 0xf5f
    1cd8:	43494d4f 	movtmi	r4, #40271	; 0x9d4f
    1cdc:	4e4f435f 	mcrmi	3, 2, r4, cr15, cr15, {2}
    1ce0:	454d5553 	strbmi	r5, [sp, #-1363]	; 0x553
    1ce4:	5f003120 	svcpl	0x00003120
    1ce8:	5246555f 	subpl	r5, r6, #398458880	; 0x17c00000
    1cec:	5f544341 	svcpl	0x00544341
    1cf0:	5f4e494d 	svcpl	0x004e494d
    1cf4:	2e30205f 	mrccs	0, 1, r2, cr0, cr15, {2}
    1cf8:	00525530 	subseq	r5, r2, r0, lsr r5
    1cfc:	45445f5f 	strbmi	r5, [r4, #-3935]	; 0xf5f
    1d00:	38323143 	ldmdacc	r2!, {r0, r1, r6, r8, ip, sp}
    1d04:	4255535f 	subsmi	r5, r5, #2080374785	; 0x7c000001
    1d08:	4d524f4e 	ldclmi	15, cr4, [r2, #-312]	; 0xfffffec8
    1d0c:	4d5f4c41 	ldclmi	12, cr4, [pc, #-260]	; 1c10 <_start-0x63f0>
    1d10:	5f5f4e49 	svcpl	0x005f4e49
    1d14:	302e3020 	eorcc	r3, lr, r0, lsr #32
    1d18:	30303030 	eorscc	r3, r0, r0, lsr r0
    1d1c:	30303030 	eorscc	r3, r0, r0, lsr r0
    1d20:	30303030 	eorscc	r3, r0, r0, lsr r0
    1d24:	30303030 	eorscc	r3, r0, r0, lsr r0
    1d28:	30303030 	eorscc	r3, r0, r0, lsr r0
    1d2c:	30303030 	eorscc	r3, r0, r0, lsr r0
    1d30:	30303030 	eorscc	r3, r0, r0, lsr r0
    1d34:	31303030 	teqcc	r0, r0, lsr r0
    1d38:	31362d45 	teqcc	r6, r5, asr #26
    1d3c:	4c443334 	mcrrmi	3, 3, r3, r4, cr4
    1d40:	415f5f00 	cmpmi	pc, r0, lsl #30
    1d44:	455f4d52 	ldrbmi	r4, [pc, #-3410]	; ffa <_start-0x7006>
    1d48:	5f494241 	svcpl	0x00494241
    1d4c:	0031205f 	eorseq	r2, r1, pc, asr r0
    1d50:	45445f5f 	strbmi	r5, [r4, #-3935]	; 0xf5f
    1d54:	38323143 	ldmdacc	r2!, {r0, r1, r6, r8, ip, sp}
    1d58:	5350455f 	cmppl	r0, #398458880	; 0x17c00000
    1d5c:	4e4f4c49 	cdpmi	12, 4, cr4, cr15, cr9, {2}
    1d60:	31205f5f 	teqcc	r0, pc, asr pc
    1d64:	33332d45 	teqcc	r3, #4416	; 0x1140
    1d68:	5f004c44 	svcpl	0x00004c44
    1d6c:	4e49555f 	mcrmi	5, 2, r5, cr9, cr15, {2}
    1d70:	5f363154 	svcpl	0x00363154
    1d74:	45505954 	ldrbmi	r5, [r0, #-2388]	; 0x954
    1d78:	73205f5f 	teqvc	r0, #380	; 0x17c
    1d7c:	74726f68 	ldrbtvc	r6, [r2], #-3944	; 0xf68
    1d80:	736e7520 	cmnvc	lr, #32, 10	; 0x8000000
    1d84:	656e6769 	strbvs	r6, [lr, #-1897]!	; 0x769
    1d88:	6e692064 	cdpvs	0, 6, cr2, cr9, cr4, {3}
    1d8c:	5f5f0074 	svcpl	0x005f0074
    1d90:	544e4955 	strbpl	r4, [lr], #-2389	; 0x955
    1d94:	5341465f 	movtpl	r4, #5727	; 0x165f
    1d98:	5f363154 	svcpl	0x00363154
    1d9c:	5f58414d 	svcpl	0x0058414d
    1da0:	3234205f 	eorscc	r2, r4, #95	; 0x5f
    1da4:	36393439 			; <UNDEFINED> instruction: 0x36393439
    1da8:	35393237 	ldrcc	r3, [r9, #-567]!	; 0x237
    1dac:	5f5f0055 	svcpl	0x005f0055
    1db0:	4954504f 	ldmdbmi	r4, {r0, r1, r2, r3, r6, ip, lr}^
    1db4:	455a494d 	ldrbmi	r4, [sl, #-2381]	; 0x94d
    1db8:	31205f5f 	teqcc	r0, pc, asr pc
    1dbc:	555f5f00 	ldrbpl	r5, [pc, #-3840]	; ec4 <_start-0x713c>
    1dc0:	465f4144 	ldrbmi	r4, [pc], -r4, asr #2
    1dc4:	5f544942 	svcpl	0x00544942
    1dc8:	3233205f 	eorscc	r2, r3, #95	; 0x5f
    1dcc:	58554100 	ldmdapl	r5, {r8, lr}^
    1dd0:	5f554d5f 	svcpl	0x00554d5f
    1dd4:	41524353 	cmpmi	r2, r3, asr r3
    1dd8:	20484354 	subcs	r4, r8, r4, asr r3
    1ddc:	30327830 	eorscc	r7, r2, r0, lsr r8
    1de0:	30353132 	eorscc	r3, r5, r2, lsr r1
    1de4:	5f004335 	svcpl	0x00004335
    1de8:	4c4c555f 	cfstr64mi	mvdx5, [ip], {95}	; 0x5f
    1dec:	43415246 	movtmi	r5, #4678	; 0x1246
    1df0:	414d5f54 	cmpmi	sp, r4, asr pc
    1df4:	205f5f58 	subscs	r5, pc, r8, asr pc	; <UNPREDICTABLE>
    1df8:	46465830 			; <UNDEFINED> instruction: 0x46465830
    1dfc:	46464646 	strbmi	r4, [r6], -r6, asr #12
    1e00:	46464646 	strbmi	r4, [r6], -r6, asr #12
    1e04:	46464646 	strbmi	r4, [r6], -r6, asr #12
    1e08:	2d504646 	ldclcs	6, cr4, [r0, #-280]	; 0xfffffee8
    1e0c:	4c553436 	cfldrdmi	mvd3, [r5], {54}	; 0x36
    1e10:	5f00524c 	svcpl	0x0000524c
    1e14:	5858475f 	ldmdapl	r8, {r0, r1, r2, r3, r4, r6, r8, r9, sl, lr}^
    1e18:	5059545f 	subspl	r5, r9, pc, asr r4
    1e1c:	464e4945 	strbmi	r4, [lr], -r5, asr #18
    1e20:	51455f4f 	cmppl	r5, pc, asr #30
    1e24:	494c4155 	stmdbmi	ip, {r0, r2, r4, r6, r8, lr}^
    1e28:	495f5954 	ldmdbmi	pc, {r2, r4, r6, r8, fp, ip, lr}^	; <UNPREDICTABLE>
    1e2c:	4e494c4e 	cdpmi	12, 4, cr4, cr9, cr14, {2}
    1e30:	00302045 	eorseq	r2, r0, r5, asr #32
    1e34:	4c465f5f 	mcrrmi	15, 5, r5, r6, cr15
    1e38:	414d5f54 	cmpmi	sp, r4, asr pc
    1e3c:	205f5f58 	subscs	r5, pc, r8, asr pc	; <UNPREDICTABLE>
    1e40:	30342e33 	eorscc	r2, r4, r3, lsr lr
    1e44:	33323832 	teqcc	r2, #3276800	; 0x320000
    1e48:	33363634 	teqcc	r6, #52, 12	; 0x3400000
    1e4c:	38323538 	ldmdacc	r2!, {r3, r4, r5, r8, sl, ip, sp}
    1e50:	2b653638 	blcs	194f738 <multiplylookup+0x1945f88>
    1e54:	00463833 	subeq	r3, r6, r3, lsr r8
    1e58:	414c5f5f 	cmpmi	ip, pc, asr pc
    1e5c:	4d554343 	ldclmi	3, cr4, [r5, #-268]	; 0xfffffef4
    1e60:	4e494d5f 	mcrmi	13, 2, r4, cr9, cr15, {2}
    1e64:	28205f5f 	stmdacs	r0!, {r0, r1, r2, r3, r4, r6, r8, r9, sl, fp, ip, lr}
    1e68:	3158302d 	cmpcc	r8, sp, lsr #32
    1e6c:	4c313350 	ldcmi	3, cr3, [r1], #-320	; 0xfffffec0
    1e70:	58302d4b 	ldmdapl	r0!, {r0, r1, r3, r6, r8, sl, fp, sp}
    1e74:	31335031 	teqcc	r3, r1, lsr r0
    1e78:	00294b4c 	eoreq	r4, r9, ip, asr #22
    1e7c:	48435f5f 	stmdami	r3, {r0, r1, r2, r3, r4, r6, r8, r9, sl, fp, ip, lr}^
    1e80:	425f5241 	subsmi	r5, pc, #268435460	; 0x10000004
    1e84:	5f5f5449 	svcpl	0x005f5449
    1e88:	5f003820 	svcpl	0x00003820
    1e8c:	4749535f 	smlsldmi	r5, r9, pc, r3	; <UNPREDICTABLE>
    1e90:	4f54415f 	svcmi	0x0054415f
    1e94:	5f43494d 	svcpl	0x0043494d
    1e98:	5f4e494d 	svcpl	0x004e494d
    1e9c:	2d28205f 	stccs	0, cr2, [r8, #-380]!	; 0xfffffe84
    1ea0:	49535f5f 	ldmdbmi	r3, {r0, r1, r2, r3, r4, r6, r8, r9, sl, fp, ip, lr}^
    1ea4:	54415f47 	strbpl	r5, [r1], #-3911	; 0xf47
    1ea8:	43494d4f 	movtmi	r4, #40271	; 0x9d4f
    1eac:	58414d5f 	stmdapl	r1, {r0, r1, r2, r3, r4, r6, r8, sl, fp, lr}^
    1eb0:	2d205f5f 	stccs	15, cr5, [r0, #-380]!	; 0xfffffe84
    1eb4:	00293120 	eoreq	r3, r9, r0, lsr #2
    1eb8:	4c555f5f 	mrrcmi	15, 5, r5, r5, cr15	; <UNPREDICTABLE>
    1ebc:	55434341 	strbpl	r4, [r3, #-833]	; 0x341
    1ec0:	494d5f4d 	stmdbmi	sp, {r0, r2, r3, r6, r8, r9, sl, fp, ip, lr}^
    1ec4:	205f5f4e 	subscs	r5, pc, lr, asr #30
    1ec8:	55302e30 	ldrpl	r2, [r0, #-3632]!	; 0xe30
    1ecc:	5f004b4c 	svcpl	0x00004b4c
    1ed0:	5f41545f 	svcpl	0x0041545f
    1ed4:	54494246 	strbpl	r4, [r9], #-582	; 0x246
    1ed8:	36205f5f 	qsaxcc	r5, r0, pc	; <UNPREDICTABLE>
    1edc:	5f5f0033 	svcpl	0x005f0033
    1ee0:	33434544 	movtcc	r4, #13636	; 0x3544
    1ee4:	50455f32 	subpl	r5, r5, r2, lsr pc
    1ee8:	4f4c4953 	svcmi	0x004c4953
    1eec:	205f5f4e 	subscs	r5, pc, lr, asr #30
    1ef0:	362d4531 			; <UNDEFINED> instruction: 0x362d4531
    1ef4:	5f004644 	svcpl	0x00004644
    1ef8:	4152465f 	cmpmi	r2, pc, asr r6
    1efc:	4d5f5443 	cfldrdmi	mvd5, [pc, #-268]	; 1df8 <_start-0x6208>
    1f00:	5f5f4e49 	svcpl	0x005f4e49
    1f04:	302d2820 	eorcc	r2, sp, r0, lsr #16
    1f08:	2d52352e 	cfldr64cs	mvdx3, [r2, #-184]	; 0xffffff48
    1f0c:	52352e30 	eorspl	r2, r5, #48, 28	; 0x300
    1f10:	5f5f0029 	svcpl	0x005f0029
    1f14:	5f544e49 	svcpl	0x00544e49
    1f18:	54534146 	ldrbpl	r4, [r3], #-326	; 0x146
    1f1c:	545f3233 	ldrbpl	r3, [pc], #-563	; 1f24 <_start-0x60dc>
    1f20:	5f455059 	svcpl	0x00455059
    1f24:	6e69205f 	mcrvs	0, 3, r2, cr9, cr15, {2}
    1f28:	5f5f0074 	svcpl	0x005f0074
    1f2c:	544e4955 	strbpl	r4, [lr], #-2389	; 0x955
    1f30:	5341465f 	movtpl	r4, #5727	; 0x165f
    1f34:	5f363154 	svcpl	0x00363154
    1f38:	45505954 	ldrbmi	r5, [r0, #-2388]	; 0x954
    1f3c:	75205f5f 	strvc	r5, [r0, #-3935]!	; 0xf5f
    1f40:	6769736e 	strbvs	r7, [r9, -lr, ror #6]!
    1f44:	2064656e 	rsbcs	r6, r4, lr, ror #10
    1f48:	00746e69 	rsbseq	r6, r4, r9, ror #28
    1f4c:	52465f5f 	subpl	r5, r6, #380	; 0x17c
    1f50:	5f544341 	svcpl	0x00544341
    1f54:	54494249 	strbpl	r4, [r9], #-585	; 0x249
    1f58:	30205f5f 	eorcc	r5, r0, pc, asr pc
    1f5c:	495f5f00 	ldmdbmi	pc, {r8, r9, sl, fp, ip, lr}^	; <UNPREDICTABLE>
    1f60:	5450544e 	ldrbpl	r5, [r0], #-1102	; 0x44e
    1f64:	414d5f52 	cmpmi	sp, r2, asr pc
    1f68:	205f5f58 	subscs	r5, pc, r8, asr pc	; <UNPREDICTABLE>
    1f6c:	37343132 			; <UNDEFINED> instruction: 0x37343132
    1f70:	36333834 			; <UNDEFINED> instruction: 0x36333834
    1f74:	5f003734 	svcpl	0x00003734
    1f78:	4152465f 	cmpmi	r2, pc, asr r6
    1f7c:	4d5f5443 	cfldrdmi	mvd5, [pc, #-268]	; 1e78 <_start-0x6188>
    1f80:	5f5f5841 	svcpl	0x005f5841
    1f84:	37583020 	ldrbcc	r3, [r8, -r0, lsr #32]
    1f88:	50464646 	subpl	r4, r6, r6, asr #12
    1f8c:	5235312d 	eorspl	r3, r5, #1073741835	; 0x4000000b
    1f90:	475f5f00 	ldrbmi	r5, [pc, -r0, lsl #30]
    1f94:	415f4343 	cmpmi	pc, r3, asr #6
    1f98:	494d4f54 	stmdbmi	sp, {r2, r4, r6, r8, r9, sl, fp, lr}^
    1f9c:	43575f43 	cmpmi	r7, #268	; 0x10c
    1fa0:	5f524148 	svcpl	0x00524148
    1fa4:	4f4c5f54 	svcmi	0x004c5f54
    1fa8:	465f4b43 	ldrbmi	r4, [pc], -r3, asr #22
    1fac:	20454552 	subcs	r4, r5, r2, asr r5
    1fb0:	5f5f0031 	svcpl	0x005f0031
    1fb4:	36434544 	strbcc	r4, [r3], -r4, asr #10
    1fb8:	414d5f34 	cmpmi	sp, r4, lsr pc
    1fbc:	205f5f58 	subscs	r5, pc, r8, asr pc	; <UNPREDICTABLE>
    1fc0:	39392e39 	ldmdbcc	r9!, {r0, r3, r4, r5, r9, sl, fp, sp}
    1fc4:	39393939 	ldmdbcc	r9!, {r0, r3, r4, r5, r8, fp, ip, sp}
    1fc8:	39393939 	ldmdbcc	r9!, {r0, r3, r4, r5, r8, fp, ip, sp}
    1fcc:	39393939 	ldmdbcc	r9!, {r0, r3, r4, r5, r8, fp, ip, sp}
    1fd0:	38334539 	ldmdacc	r3!, {r0, r3, r4, r5, r8, sl, lr}
    1fd4:	00444434 	subeq	r4, r4, r4, lsr r4
    1fd8:	4c4c5f5f 	mcrrmi	15, 5, r5, ip, cr15
    1fdc:	43415246 	movtmi	r5, #4678	; 0x1246
    1fe0:	42465f54 	submi	r5, r6, #84, 30	; 0x150
    1fe4:	5f5f5449 	svcpl	0x005f5449
    1fe8:	00333620 	eorseq	r3, r3, r0, lsr #12
    1fec:	4c4c5f5f 	mcrrmi	15, 5, r5, ip, cr15
    1ff0:	55434341 	strbpl	r4, [r3, #-833]	; 0x341
    1ff4:	42465f4d 	submi	r5, r6, #308	; 0x134
    1ff8:	5f5f5449 	svcpl	0x005f5449
    1ffc:	00313320 	eorseq	r3, r1, r0, lsr #6
    2000:	49535f5f 	ldmdbmi	r3, {r0, r1, r2, r3, r4, r6, r8, r9, sl, fp, ip, lr}^
    2004:	4d5f455a 	cfldr64mi	mvdx4, [pc, #-360]	; 1ea4 <_start-0x615c>
    2008:	5f5f5841 	svcpl	0x005f5841
    200c:	39323420 	ldmdbcc	r2!, {r5, sl, ip, sp}
    2010:	37363934 			; <UNDEFINED> instruction: 0x37363934
    2014:	55353932 	ldrpl	r3, [r5, #-2354]!	; 0x932
    2018:	465f5f00 	ldrbmi	r5, [pc], -r0, lsl #30
    201c:	4d5f544c 	cfldrdmi	mvd5, [pc, #-304]	; 1ef4 <_start-0x610c>
    2020:	315f4e49 	cmpcc	pc, r9, asr #28
    2024:	58455f30 	stmdapl	r5, {r4, r5, r8, r9, sl, fp, ip, lr}^
    2028:	205f5f50 	subscs	r5, pc, r0, asr pc	; <UNPREDICTABLE>
    202c:	37332d28 	ldrcc	r2, [r3, -r8, lsr #26]!
    2030:	5f5f0029 	svcpl	0x005f0029
    2034:	464c4c55 			; <UNDEFINED> instruction: 0x464c4c55
    2038:	54434152 	strbpl	r4, [r3], #-338	; 0x152
    203c:	4942465f 	stmdbmi	r2, {r0, r1, r2, r3, r4, r6, r9, sl, lr}^
    2040:	205f5f54 	subscs	r5, pc, r4, asr pc	; <UNPREDICTABLE>
    2044:	5f003436 	svcpl	0x00003436
    2048:	4345445f 	movtmi	r4, #21599	; 0x545f
    204c:	4d5f3436 	cfldrdmi	mvd3, [pc, #-216]	; 1f7c <_start-0x6084>
    2050:	455f4e49 	ldrbmi	r4, [pc, #-3657]	; 120f <_start-0x6df1>
    2054:	5f5f5058 	svcpl	0x005f5058
    2058:	332d2820 	teqcc	sp, #32, 16	; 0x200000
    205c:	00293238 	eoreq	r3, r9, r8, lsr r2
    2060:	4c4c5f5f 	mcrrmi	15, 5, r5, ip, cr15
    2064:	43415246 	movtmi	r5, #4678	; 0x1246
    2068:	494d5f54 	stmdbmi	sp, {r2, r4, r6, r8, r9, sl, fp, ip, lr}^
    206c:	205f5f4e 	subscs	r5, pc, lr, asr #30
    2070:	2e302d28 	cdpcs	13, 3, cr2, cr0, cr8, {1}
    2074:	524c4c35 	subpl	r4, ip, #13568	; 0x3500
    2078:	352e302d 	strcc	r3, [lr, #-45]!	; 0x2d
    207c:	29524c4c 	ldmdbcs	r2, {r2, r3, r6, sl, fp, lr}^
    2080:	555f5f00 	ldrbpl	r5, [pc, #-3840]	; 1188 <_start-0x6e78>
    2084:	4d544e49 	ldclmi	14, cr4, [r4, #-292]	; 0xfffffedc
    2088:	4d5f5841 	ldclmi	8, cr5, [pc, #-260]	; 1f8c <_start-0x6074>
    208c:	5f5f5841 	svcpl	0x005f5841
    2090:	34383120 	ldrtcc	r3, [r8], #-288	; 0x120
    2094:	34373634 	ldrtcc	r3, [r7], #-1588	; 0x634
    2098:	33373034 	teqcc	r7, #52	; 0x34
    209c:	35393037 	ldrcc	r3, [r9, #-55]!	; 0x37
    20a0:	31363135 	teqcc	r6, r5, lsr r1
    20a4:	4c4c5535 	cfstr64mi	mvdx5, [ip], {53}	; 0x35
    20a8:	4c5f5f00 	mrrcmi	15, 0, r5, pc, cr0	; <UNPREDICTABLE>
    20ac:	4343414c 	movtmi	r4, #12620	; 0x314c
    20b0:	495f4d55 	ldmdbmi	pc, {r0, r2, r4, r6, r8, sl, fp, lr}^	; <UNPREDICTABLE>
    20b4:	5f544942 	svcpl	0x00544942
    20b8:	3233205f 	eorscc	r2, r3, #95	; 0x5f
    20bc:	72617500 	rsbvc	r7, r1, #0, 10
    20c0:	65725f74 	ldrbvs	r5, [r2, #-3956]!	; 0xf74
    20c4:	5f007663 	svcpl	0x00007663
    20c8:	4c4c555f 	cfstr64mi	mvdx5, [ip], {95}	; 0x5f
    20cc:	55434341 	strbpl	r4, [r3, #-833]	; 0x341
    20d0:	414d5f4d 	cmpmi	sp, sp, asr #30
    20d4:	205f5f58 	subscs	r5, pc, r8, asr pc	; <UNPREDICTABLE>
    20d8:	46465830 			; <UNDEFINED> instruction: 0x46465830
    20dc:	46464646 	strbmi	r4, [r6], -r6, asr #12
    20e0:	46464646 	strbmi	r4, [r6], -r6, asr #12
    20e4:	46464646 	strbmi	r4, [r6], -r6, asr #12
    20e8:	2d504646 	ldclcs	6, cr4, [r0, #-280]	; 0xfffffee8
    20ec:	4c553233 	lfmmi	f3, 2, [r5], {51}	; 0x33
    20f0:	41004b4c 	tstmi	r0, ip, asr #22
    20f4:	4d5f5855 	ldclmi	8, cr5, [pc, #-340]	; 1fa8 <_start-0x6058>
    20f8:	534d5f55 	movtpl	r5, #57173	; 0xdf55
    20fc:	45525f52 	ldrbmi	r5, [r2, #-3922]	; 0xf52
    2100:	78302047 	ldmdavc	r0!, {r0, r1, r2, r6, sp}
    2104:	31323032 	teqcc	r2, r2, lsr r0
    2108:	38353035 	ldmdacc	r5!, {r0, r2, r4, r5, ip, sp}
    210c:	555f5f00 	ldrbpl	r5, [pc, #-3840]	; 1214 <_start-0x6dec>
    2110:	5f544e49 	svcpl	0x00544e49
    2114:	54534146 	ldrbpl	r4, [r3], #-326	; 0x146
    2118:	414d5f38 	cmpmi	sp, r8, lsr pc
    211c:	205f5f58 	subscs	r5, pc, r8, asr pc	; <UNPREDICTABLE>
    2120:	34393234 	ldrtcc	r3, [r9], #-564	; 0x234
    2124:	32373639 	eorscc	r3, r7, #59768832	; 0x3900000
    2128:	00553539 	subseq	r3, r5, r9, lsr r5
    212c:	4c4c5f5f 	mcrrmi	15, 5, r5, ip, cr15
    2130:	55434341 	strbpl	r4, [r3, #-833]	; 0x341
    2134:	414d5f4d 	cmpmi	sp, sp, asr #30
    2138:	205f5f58 	subscs	r5, pc, r8, asr pc	; <UNPREDICTABLE>
    213c:	46375830 			; <UNDEFINED> instruction: 0x46375830
    2140:	46464646 	strbmi	r4, [r6], -r6, asr #12
    2144:	46464646 	strbmi	r4, [r6], -r6, asr #12
    2148:	46464646 	strbmi	r4, [r6], -r6, asr #12
    214c:	2d504646 	ldclcs	6, cr4, [r0, #-280]	; 0xfffffee8
    2150:	4c4c3133 	stfmie	f3, [ip], {51}	; 0x33
    2154:	5541004b 	strbpl	r0, [r1, #-75]	; 0x4b
    2158:	554d5f58 	strbpl	r5, [sp, #-3928]	; 0xf58
    215c:	5f4f495f 	svcpl	0x004f495f
    2160:	20474552 	subcs	r4, r7, r2, asr r5
    2164:	30327830 	eorscc	r7, r2, r0, lsr r8
    2168:	30353132 	eorscc	r3, r5, r2, lsr r1
    216c:	5f003034 	svcpl	0x00003034
    2170:	4341555f 	movtmi	r5, #5471	; 0x155f
    2174:	5f4d5543 	svcpl	0x004d5543
    2178:	5f4e494d 	svcpl	0x004e494d
    217c:	2e30205f 	mrccs	0, 1, r2, cr0, cr15, {2}
    2180:	004b5530 	subeq	r5, fp, r0, lsr r5
    2184:	53555f5f 	cmppl	r5, #380	; 0x17c
    2188:	42465f41 	submi	r5, r6, #260	; 0x104
    218c:	5f5f5449 	svcpl	0x005f5449
    2190:	00363120 	eorseq	r3, r6, r0, lsr #2
    2194:	53555f5f 	cmppl	r5, #380	; 0x17c
    2198:	4c5f5245 	lfmmi	f5, 2, [pc], {69}	; 0x45
    219c:	4c454241 	sfmmi	f4, 2, [r5], {65}	; 0x41
    21a0:	4552505f 	ldrbmi	r5, [r2, #-95]	; 0x5f
    21a4:	5f584946 	svcpl	0x00584946
    21a8:	5f00205f 	svcpl	0x0000205f
    21ac:	464c4c5f 			; <UNDEFINED> instruction: 0x464c4c5f
    21b0:	54434152 	strbpl	r4, [r3], #-338	; 0x152
    21b4:	4942495f 	stmdbmi	r2, {r0, r1, r2, r3, r4, r6, r8, fp, lr}^
    21b8:	205f5f54 	subscs	r5, pc, r4, asr pc	; <UNPREDICTABLE>
    21bc:	5f5f0030 	svcpl	0x005f0030
    21c0:	52464c55 	subpl	r4, r6, #21760	; 0x5500
    21c4:	5f544341 	svcpl	0x00544341
    21c8:	5f58414d 	svcpl	0x0058414d
    21cc:	5830205f 	ldmdapl	r0!, {r0, r1, r2, r3, r4, r6, sp}
    21d0:	46464646 	strbmi	r4, [r6], -r6, asr #12
    21d4:	46464646 	strbmi	r4, [r6], -r6, asr #12
    21d8:	32332d50 	eorscc	r2, r3, #80, 26	; 0x1400
    21dc:	00524c55 	subseq	r4, r2, r5, asr ip
    21e0:	49555f5f 	ldmdbmi	r5, {r0, r1, r2, r3, r4, r6, r8, r9, sl, fp, ip, lr}^
    21e4:	465f544e 	ldrbmi	r5, [pc], -lr, asr #8
    21e8:	36545341 	ldrbcc	r5, [r4], -r1, asr #6
    21ec:	59545f34 	ldmdbpl	r4, {r2, r4, r5, r8, r9, sl, fp, ip, lr}^
    21f0:	5f5f4550 	svcpl	0x005f4550
    21f4:	6e6f6c20 	cdpvs	12, 6, cr6, cr15, cr0, {1}
    21f8:	6f6c2067 	svcvs	0x006c2067
    21fc:	7520676e 	strvc	r6, [r0, #-1902]!	; 0x76e
    2200:	6769736e 	strbvs	r7, [r9, -lr, ror #6]!
    2204:	2064656e 	rsbcs	r6, r4, lr, ror #10
    2208:	00746e69 	rsbseq	r6, r4, r9, ror #28
    220c:	4e495f5f 	mcrmi	15, 2, r5, cr9, cr15, {2}
    2210:	41465f54 	cmpmi	r6, r4, asr pc
    2214:	34365453 	ldrtcc	r5, [r6], #-1107	; 0x453
    2218:	5059545f 	subspl	r5, r9, pc, asr r4
    221c:	205f5f45 	subscs	r5, pc, r5, asr #30
    2220:	676e6f6c 	strbvs	r6, [lr, -ip, ror #30]!
    2224:	6e6f6c20 	cdpvs	12, 6, cr6, cr15, cr0, {1}
    2228:	6e692067 	cdpvs	0, 6, cr2, cr9, cr7, {3}
    222c:	5f5f0074 	svcpl	0x005f0074
    2230:	544e4955 	strbpl	r4, [lr], #-2389	; 0x955
    2234:	41454c5f 	cmpmi	r5, pc, asr ip
    2238:	5f385453 	svcpl	0x00385453
    223c:	45505954 	ldrbmi	r5, [r0, #-2388]	; 0x954
    2240:	75205f5f 	strvc	r5, [r0, #-3935]!	; 0xf5f
    2244:	6769736e 	strbvs	r7, [r9, -lr, ror #6]!
    2248:	2064656e 	rsbcs	r6, r4, lr, ror #10
    224c:	72616863 	rsbvc	r6, r1, #6488064	; 0x630000
    2250:	475f5f00 	ldrbmi	r5, [pc, -r0, lsl #30]
    2254:	415f4343 	cmpmi	pc, r3, asr #6
    2258:	494d4f54 	stmdbmi	sp, {r2, r4, r6, r8, r9, sl, fp, lr}^
    225c:	48535f43 	ldmdami	r3, {r0, r1, r6, r8, r9, sl, fp, ip, lr}^
    2260:	5f54524f 	svcpl	0x0054524f
    2264:	4b434f4c 	blmi	10d5f9c <multiplylookup+0x10cc7ec>
    2268:	4552465f 	ldrbmi	r4, [r2, #-1631]	; 0x65f
    226c:	00312045 	eorseq	r2, r1, r5, asr #32
    2270:	4c435047 	mcrrmi	0, 4, r5, r3, cr7
    2274:	30203052 	eorcc	r3, r0, r2, asr r0
    2278:	32303278 	eorscc	r3, r0, #120, 4	; 0x80000007
    227c:	32303030 	eorscc	r3, r0, #48	; 0x30
    2280:	5f5f0038 	svcpl	0x005f0038
    2284:	55434341 	strbpl	r4, [r3, #-833]	; 0x341
    2288:	494d5f4d 	stmdbmi	sp, {r0, r2, r3, r6, r8, r9, sl, fp, ip, lr}^
    228c:	205f5f4e 	subscs	r5, pc, lr, asr #30
    2290:	58302d28 	ldmdapl	r0!, {r3, r5, r8, sl, fp, sp}
    2294:	35315031 	ldrcc	r5, [r1, #-49]!	; 0x31
    2298:	58302d4b 	ldmdapl	r0!, {r0, r1, r3, r6, r8, sl, fp, sp}
    229c:	35315031 	ldrcc	r5, [r1, #-49]!	; 0x31
    22a0:	5f00294b 	svcpl	0x0000294b
    22a4:	4343475f 	movtmi	r4, #14175	; 0x375f
    22a8:	4f54415f 	svcmi	0x0054415f
    22ac:	5f43494d 	svcpl	0x0043494d
    22b0:	4e494f50 	mcrmi	15, 2, r4, cr9, cr0, {2}
    22b4:	5f524554 	svcpl	0x00524554
    22b8:	4b434f4c 	blmi	10d5ff0 <multiplylookup+0x10cc840>
    22bc:	4552465f 	ldrbmi	r4, [r2, #-1631]	; 0x65f
    22c0:	00312045 	eorseq	r2, r1, r5, asr #32
    22c4:	4f535f5f 	svcmi	0x00535f5f
    22c8:	50465446 	subpl	r5, r6, r6, asr #8
    22cc:	31205f5f 	teqcc	r0, pc, asr pc
    22d0:	555f5f00 	ldrbpl	r5, [pc, #-3840]	; 13d8 <_start-0x6c28>
    22d4:	50544e49 	subspl	r4, r4, r9, asr #28
    22d8:	4d5f5254 	lfmmi	f5, 2, [pc, #-336]	; 2190 <_start-0x5e70>
    22dc:	5f5f5841 	svcpl	0x005f5841
    22e0:	39323420 	ldmdbcc	r2!, {r5, sl, ip, sp}
    22e4:	37363934 			; <UNDEFINED> instruction: 0x37363934
    22e8:	55353932 	ldrpl	r3, [r5, #-2354]!	; 0x932
    22ec:	465f5f00 	ldrbmi	r5, [pc], -r0, lsl #30
    22f0:	485f544c 	ldmdami	pc, {r2, r3, r6, sl, ip, lr}^	; <UNPREDICTABLE>
    22f4:	445f5341 	ldrbmi	r5, [pc], #-833	; 22fc <_start-0x5d04>
    22f8:	524f4e45 	subpl	r4, pc, #1104	; 0x450
    22fc:	205f5f4d 	subscs	r5, pc, sp, asr #30
    2300:	5f5f0031 	svcpl	0x005f0031
    2304:	36434544 	strbcc	r4, [r3], -r4, asr #10
    2308:	494d5f34 	stmdbmi	sp, {r2, r4, r5, r8, r9, sl, fp, ip, lr}^
    230c:	205f5f4e 	subscs	r5, pc, lr, asr #30
    2310:	332d4531 	teqcc	sp, #205520896	; 0xc400000
    2314:	44443338 	strbmi	r3, [r4], #-824	; 0x338
    2318:	54555000 	ldrbpl	r5, [r5], #-0
    231c:	5f003233 	svcpl	0x00003233
    2320:	4341535f 	movtmi	r5, #4959	; 0x135f
    2324:	5f4d5543 	svcpl	0x004d5543
    2328:	54494249 	strbpl	r4, [r9], #-585	; 0x249
    232c:	38205f5f 	stmdacc	r0!, {r0, r1, r2, r3, r4, r6, r8, r9, sl, fp, ip, lr}
    2330:	535f5f00 	cmppl	pc, #0, 30
    2334:	52414843 	subpl	r4, r1, #4390912	; 0x430000
    2338:	58414d5f 	stmdapl	r1, {r0, r1, r2, r3, r4, r6, r8, sl, fp, lr}^
    233c:	31205f5f 	teqcc	r0, pc, asr pc
    2340:	47003732 	smladxmi	r0, r2, r7, r3
    2344:	69547465 	ldmdbvs	r4, {r0, r2, r5, r6, sl, ip, sp, lr}^
    2348:	7453656d 	ldrbvc	r6, [r3], #-1389	; 0x56d
    234c:	00706d61 	rsbseq	r6, r0, r1, ror #26
    2350:	6c69614d 	stfvse	f6, [r9], #-308	; 0xfffffecc
    2354:	57786f62 	ldrbpl	r6, [r8, -r2, ror #30]!
    2358:	65746972 	ldrbvs	r6, [r4, #-2418]!	; 0x972
    235c:	52435300 	subpl	r5, r3, #0, 6
    2360:	424e4545 	submi	r4, lr, #289406976	; 0x11400000
    2364:	4c5f4655 	mrrcmi	6, 5, r4, pc, cr5	; <UNPREDICTABLE>
    2368:	54474e45 	strbpl	r4, [r7], #-3653	; 0xe45
    236c:	30312048 	eorscc	r2, r1, r8, asr #32
    2370:	61570030 	cmpvs	r7, r0, lsr r0
    2374:	694d7469 	stmdbvs	sp, {r0, r3, r5, r6, sl, ip, sp, lr}^
    2378:	736f7263 	cmnvc	pc, #805306374	; 0x30000006
    237c:	414f4300 	mrsmi	r4, (UNDEF: 127)
    2380:	5f455352 	svcpl	0x00455352
    2384:	4c424154 	stfmie	f4, [r2], {84}	; 0x54
    2388:	4f575f45 	svcmi	0x00575f45
    238c:	20534452 	subscs	r4, r3, r2, asr r4
    2390:	3c3c3128 	ldfccs	f3, [ip], #-160	; 0xffffff60
    2394:	39312828 	ldmdbcc	r1!, {r3, r5, fp, sp}
    2398:	2932312d 	ldmdbcs	r2!, {r0, r2, r3, r5, r8, ip, sp}
    239c:	2929312b 	stmdbcs	r9!, {r0, r1, r3, r5, r8, ip, sp}
    23a0:	6c6f6300 	stclvs	3, cr6, [pc], #-0	; 23a8 <_start-0x5c58>
    23a4:	5400726f 	strpl	r7, [r0], #-623	; 0x26f
    23a8:	4c5f504f 	mrrcmi	0, 4, r5, pc, cr15	; <UNPREDICTABLE>
    23ac:	4c455645 	mcrrmi	6, 4, r5, r5, cr5
    23b0:	524f575f 	subpl	r5, pc, #24903680	; 0x17c0000
    23b4:	28205344 	stmdacs	r0!, {r2, r6, r8, r9, ip, lr}
    23b8:	283c3c31 	ldmdacs	ip!, {r0, r4, r5, sl, fp, ip, sp}
    23bc:	2d313328 	ldccs	3, cr3, [r1, #-160]!	; 0xffffff60
    23c0:	2b293032 	blcs	a4e490 <multiplylookup+0xa44ce0>
    23c4:	00292931 	eoreq	r2, r9, r1, lsr r9
    23c8:	54554d4d 	ldrbpl	r4, [r5], #-3405	; 0xd4d
    23cc:	454c4241 	strbmi	r4, [ip, #-577]	; 0x241
    23d0:	455a4953 	ldrbmi	r4, [sl, #-2387]	; 0x953
    23d4:	78302820 	ldmdavc	r0!, {r5, fp, sp}
    23d8:	30303038 	eorscc	r3, r0, r8, lsr r0
    23dc:	72640029 	rsbvc	r0, r4, #41	; 0x29
    23e0:	694c7761 	stmdbvs	ip, {r0, r5, r6, r8, r9, sl, ip, sp, lr}^
    23e4:	4d00656e 	cfstr32mi	mvfx6, [r0, #-440]	; 0xfffffe48
    23e8:	4154554d 	cmpmi	r4, sp, asr #10
    23ec:	4d454c42 	stclmi	12, cr4, [r5, #-264]	; 0xfffffef8
    23f0:	204b5341 	subcs	r5, fp, r1, asr #6
    23f4:	4d4d2828 	stclmi	8, cr2, [sp, #-160]	; 0xffffff60
    23f8:	42415455 	submi	r5, r1, #1426063360	; 0x55000000
    23fc:	4953454c 	ldmdbmi	r3, {r2, r3, r6, r8, sl, lr}^
    2400:	312d455a 	teqcc	sp, sl, asr r5
    2404:	323e3e29 	eorscc	r3, lr, #656	; 0x290
    2408:	4d530029 	ldclmi	0, cr0, [r3, #-164]	; 0xffffff5c
    240c:	5f4c4c41 	svcpl	0x004c4c41
    2410:	4c424154 	stfmie	f4, [r2], {84}	; 0x54
    2414:	4f575f45 	svcmi	0x00575f45
    2418:	20534452 	subscs	r4, r3, r2, asr r4
    241c:	3c3c3128 	ldfccs	f3, [ip], #-160	; 0xffffff60
    2420:	31312828 	teqcc	r1, r8, lsr #16
    2424:	2b29302d 	blcs	a4e4e0 <multiplylookup+0xa44d30>
    2428:	00292931 	eoreq	r2, r9, r1, lsr r9
    242c:	65646976 	strbvs	r6, [r4, #-2422]!	; 0x976
    2430:	2e31306f 	cdpcs	0, 3, cr3, cr1, cr15, {3}
    2434:	6c630063 	stclvs	0, cr0, [r3], #-396	; 0xfffffe74
    2438:	72635372 	rsbvc	r5, r3, #-939524095	; 0xc8000001
    243c:	006e6565 	rsbeq	r6, lr, r5, ror #10
    2440:	6e616863 	cdpvs	8, 6, cr6, cr1, cr3, {3}
    2444:	006c656e 	rsbeq	r6, ip, lr, ror #10
    2448:	746c756d 	strbtvc	r7, [ip], #-1389	; 0x56d
    244c:	796c7069 	stmdbvc	ip!, {r0, r3, r5, r6, ip, sp, lr}^
    2450:	6b6f6f6c 	blvs	1bde208 <multiplylookup+0x1bd4a58>
    2454:	4d007075 	stcmi	0, cr7, [r0, #-468]	; 0xfffffe2c
    2458:	626c6961 	rsbvs	r6, ip, #1589248	; 0x184000
    245c:	6552786f 	ldrbvs	r7, [r2, #-2159]	; 0x86f
    2460:	66006461 	strvs	r6, [r0], -r1, ror #8
    2464:	666e6962 	strbtvs	r6, [lr], -r2, ror #18
    2468:	64615f6f 	strbtvs	r5, [r1], #-3951	; 0xf6f
    246c:	4d007264 	sfmmi	f7, 4, [r0, #-400]	; 0xfffffe70
    2470:	4154554d 	cmpmi	r4, sp, asr #10
    2474:	42454c42 	submi	r4, r5, #16896	; 0x4200
    2478:	20455341 	subcs	r5, r5, r1, asr #6
    247c:	30307830 	eorscc	r7, r0, r0, lsr r8
    2480:	30303031 	eorscc	r3, r0, r1, lsr r0
    2484:	73003030 	movwvc	r3, #48	; 0x30
    2488:	74657a69 	strbtvc	r7, [r5], #-2665	; 0xa69
    248c:	00657079 	rsbeq	r7, r5, r9, ror r0
    2490:	646e6152 	strbtvs	r6, [lr], #-338	; 0x152
    2494:	74006d6f 	strvc	r6, [r0], #-3439	; 0xd6f
    2498:	73656d69 	cmnvc	r5, #6720	; 0x1a40
    249c:	706d6174 	rsbvc	r6, sp, r4, ror r1
    24a0:	746f6e00 	strbtvc	r6, [pc], #-3584	; 24a8 <_start-0x5b58>
    24a4:	6e69616d 	powvsez	f6, f1, #5.0
    24a8:	69616d00 	stmdbvs	r1!, {r8, sl, fp, sp, lr}^
    24ac:	786f626c 	stmdavc	pc!, {r2, r3, r5, r6, r9, sp, lr}^	; <UNPREDICTABLE>
    24b0:	61726400 	cmnvs	r2, r0, lsl #8
    24b4:	69725477 	ldmdbvs	r2!, {r0, r1, r2, r4, r5, r6, sl, ip, lr}^
    24b8:	6c676e61 	stclvs	14, cr6, [r7], #-388	; 0xfffffe7c
    24bc:	74730065 	ldrbtvc	r0, [r3], #-101	; 0x65
    24c0:	706d6372 	rsbvc	r6, sp, r2, ror r3
    24c4:	61726400 	cmnvs	r2, r0, lsl #8
    24c8:	72745377 	rsbsvc	r5, r4, #-603979775	; 0xdc000001
    24cc:	00676e69 	rsbeq	r6, r7, r9, ror #28
    24d0:	6d726574 	cfldr64vs	mvdx6, [r2, #-464]!	; 0xfffffe30
    24d4:	6c616e69 	stclvs	14, cr6, [r1], #-420	; 0xfffffe5c
    24d8:	6200632e 	andvs	r6, r0, #-1207959552	; 0xb8000000
    24dc:	65666675 	strbvs	r6, [r6, #-1653]!	; 0x675
    24e0:	76650072 			; <UNDEFINED> instruction: 0x76650072
    24e4:	6f436c61 	svcvs	0x00436c61
    24e8:	6e616d6d 	cdpvs	13, 6, cr6, cr1, cr13, {3}
    24ec:	65640064 	strbvs	r0, [r4, #-100]!	; 0x64
    24f0:	6168436c 	cmnvs	r8, ip, ror #6
    24f4:	69640072 	stmdbvs	r4!, {r1, r4, r5, r6}^
    24f8:	616c7073 	smcvs	50947	; 0xc703
    24fc:	00632e79 	rsbeq	r2, r3, r9, ror lr
    2500:	7366666f 	cmnvc	r6, #116391936	; 0x6f00000
    2504:	44007465 	strmi	r7, [r0], #-1125	; 0x465
    2508:	43776172 	cmnmi	r7, #-2147483620	; 0x8000001c
    250c:	00726168 	rsbseq	r6, r2, r8, ror #2
    2510:	78616d78 	stmdavc	r1!, {r3, r4, r5, r6, r8, sl, fp, sp, lr}^
    2514:	696d7900 	stmdbvs	sp!, {r8, fp, ip, sp, lr}^
    2518:	6461006e 	strbtvs	r0, [r1], #-110	; 0x6e
    251c:	73657264 	cmnvc	r5, #100, 4	; 0x40000006
    2520:	65730073 	ldrbvs	r0, [r3, #-115]!	; 0x73
    2524:	78695074 	stmdavc	r9!, {r2, r4, r5, r6, ip, lr}^
    2528:	50006c65 	andpl	r6, r0, r5, ror #24
    252c:	36315455 			; <UNDEFINED> instruction: 0x36315455
    2530:	696d7800 	stmdbvs	sp!, {fp, ip, sp, lr}^
    2534:	7264006e 	rsbvc	r0, r4, #110	; 0x6e
    2538:	68437761 	stmdavs	r3, {r0, r5, r6, r8, r9, sl, ip, sp, lr}^
    253c:	79007261 	stmdbvc	r0, {r0, r5, r6, r9, ip, sp, lr}
    2540:	0078616d 	rsbseq	r6, r8, sp, ror #2

Disassembly of section .debug_frame:

00000000 <.debug_frame>:
   0:	0000000c 	andeq	r0, r0, ip
   4:	ffffffff 			; <UNDEFINED> instruction: 0xffffffff
   8:	7c020001 	stcvc	0, cr0, [r2], {1}
   c:	000d0c0e 	andeq	r0, sp, lr, lsl #24
  10:	00000014 	andeq	r0, r0, r4, lsl r0
  14:	00000000 	andeq	r0, r0, r0
  18:	000080a0 	andeq	r8, r0, r0, lsr #1
  1c:	00000018 	andeq	r0, r0, r8, lsl r0
  20:	83080e42 	movwhi	r0, #36418	; 0x8e42
  24:	00018e02 	andeq	r8, r1, r2, lsl #28
  28:	00000014 	andeq	r0, r0, r4, lsl r0
  2c:	00000000 	andeq	r0, r0, r0
  30:	000080b8 	strheq	r8, [r0], -r8	; <UNPREDICTABLE>
  34:	00000030 	andeq	r0, r0, r0, lsr r0
  38:	83080e42 	movwhi	r0, #36418	; 0x8e42
  3c:	00018e02 	andeq	r8, r1, r2, lsl #28
  40:	00000014 	andeq	r0, r0, r4, lsl r0
  44:	00000000 	andeq	r0, r0, r0
  48:	000080e8 	andeq	r8, r0, r8, ror #1
  4c:	0000001c 	andeq	r0, r0, ip, lsl r0
  50:	83080e42 	movwhi	r0, #36418	; 0x8e42
  54:	00018e02 	andeq	r8, r1, r2, lsl #28
  58:	00000018 	andeq	r0, r0, r8, lsl r0
  5c:	00000000 	andeq	r0, r0, r0
  60:	00008104 	andeq	r8, r0, r4, lsl #2
  64:	0000004c 	andeq	r0, r0, ip, asr #32
  68:	83100e42 	tsthi	r0, #1056	; 0x420
  6c:	85038404 	strhi	r8, [r3, #-1028]	; 0x404
  70:	00018e02 	andeq	r8, r1, r2, lsl #28
  74:	00000014 	andeq	r0, r0, r4, lsl r0
  78:	00000000 	andeq	r0, r0, r0
  7c:	00008150 	andeq	r8, r0, r0, asr r1
  80:	00000034 	andeq	r0, r0, r4, lsr r0
  84:	84080e42 	strhi	r0, [r8], #-3650	; 0xe42
  88:	00018e02 	andeq	r8, r1, r2, lsl #28
  8c:	00000014 	andeq	r0, r0, r4, lsl r0
  90:	00000000 	andeq	r0, r0, r0
  94:	00008184 	andeq	r8, r0, r4, lsl #3
  98:	00000020 	andeq	r0, r0, r0, lsr #32
  9c:	83080e42 	movwhi	r0, #36418	; 0x8e42
  a0:	00018e02 	andeq	r8, r1, r2, lsl #28
  a4:	00000018 	andeq	r0, r0, r8, lsl r0
  a8:	00000000 	andeq	r0, r0, r0
  ac:	000081a4 	andeq	r8, r0, r4, lsr #3
  b0:	00000074 	andeq	r0, r0, r4, ror r0
  b4:	84100e42 	ldrhi	r0, [r0], #-3650	; 0xe42
  b8:	86038504 	strhi	r8, [r3], -r4, lsl #10
  bc:	00018e02 	andeq	r8, r1, r2, lsl #28
  c0:	00000018 	andeq	r0, r0, r8, lsl r0
  c4:	00000000 	andeq	r0, r0, r0
  c8:	00008218 	andeq	r8, r0, r8, lsl r2
  cc:	000000ac 	andeq	r0, r0, ip, lsr #1
  d0:	84100e42 	ldrhi	r0, [r0], #-3650	; 0xe42
  d4:	86038504 	strhi	r8, [r3], -r4, lsl #10
  d8:	00018e02 	andeq	r8, r1, r2, lsl #28
  dc:	00000014 	andeq	r0, r0, r4, lsl r0
  e0:	00000000 	andeq	r0, r0, r0
  e4:	000082c4 	andeq	r8, r0, r4, asr #5
  e8:	00000110 	andeq	r0, r0, r0, lsl r1
  ec:	84080e42 	strhi	r0, [r8], #-3650	; 0xe42
  f0:	00018e02 	andeq	r8, r1, r2, lsl #28
  f4:	00000014 	andeq	r0, r0, r4, lsl r0
  f8:	00000000 	andeq	r0, r0, r0
  fc:	000083d4 	ldrdeq	r8, [r0], -r4
 100:	00000030 	andeq	r0, r0, r0, lsr r0
 104:	84080e42 	strhi	r0, [r8], #-3650	; 0xe42
 108:	00018e02 	andeq	r8, r1, r2, lsl #28
 10c:	00000014 	andeq	r0, r0, r4, lsl r0
 110:	00000000 	andeq	r0, r0, r0
 114:	00008404 	andeq	r8, r0, r4, lsl #8
 118:	00000018 	andeq	r0, r0, r8, lsl r0
 11c:	83080e42 	movwhi	r0, #36418	; 0x8e42
 120:	00018e02 	andeq	r8, r1, r2, lsl #28
 124:	0000000c 	andeq	r0, r0, ip
 128:	ffffffff 			; <UNDEFINED> instruction: 0xffffffff
 12c:	7c020001 	stcvc	0, cr0, [r2], {1}
 130:	000d0c0e 	andeq	r0, sp, lr, lsl #24
 134:	00000018 	andeq	r0, r0, r8, lsl r0
 138:	00000124 	andeq	r0, r0, r4, lsr #2
 13c:	0000841c 	andeq	r8, r0, ip, lsl r4
 140:	0000003c 	andeq	r0, r0, ip, lsr r0
 144:	83100e42 	tsthi	r0, #1056	; 0x420
 148:	85038404 	strhi	r8, [r3, #-1028]	; 0x404
 14c:	00018e02 	andeq	r8, r1, r2, lsl #28
 150:	00000014 	andeq	r0, r0, r4, lsl r0
 154:	00000124 	andeq	r0, r0, r4, lsr #2
 158:	00008458 	andeq	r8, r0, r8, asr r4
 15c:	0000003c 	andeq	r0, r0, ip, lsr r0
 160:	84080e42 	strhi	r0, [r8], #-3650	; 0xe42
 164:	00018e02 	andeq	r8, r1, r2, lsl #28
 168:	00000018 	andeq	r0, r0, r8, lsl r0
 16c:	00000124 	andeq	r0, r0, r4, lsr #2
 170:	00008494 	muleq	r0, r4, r4
 174:	000001d4 	ldrdeq	r0, [r0], -r4
 178:	84080e42 	strhi	r0, [r8], #-3650	; 0xe42
 17c:	42018e02 	andmi	r8, r1, #2, 28
 180:	0000180e 	andeq	r1, r0, lr, lsl #16
 184:	0000000c 	andeq	r0, r0, ip
 188:	ffffffff 			; <UNDEFINED> instruction: 0xffffffff
 18c:	7c020001 	stcvc	0, cr0, [r2], {1}
 190:	000d0c0e 	andeq	r0, sp, lr, lsl #24
 194:	0000000c 	andeq	r0, r0, ip
 198:	00000184 	andeq	r0, r0, r4, lsl #3
 19c:	000087b0 			; <UNDEFINED> instruction: 0x000087b0
 1a0:	00000030 	andeq	r0, r0, r0, lsr r0
 1a4:	00000024 	andeq	r0, r0, r4, lsr #32
 1a8:	00000184 	andeq	r0, r0, r4, lsl #3
 1ac:	000087e0 	andeq	r8, r0, r0, ror #15
 1b0:	00000154 	andeq	r0, r0, r4, asr r1
 1b4:	841c0e42 	ldrhi	r0, [ip], #-3650	; 0xe42
 1b8:	86068507 	strhi	r8, [r6], -r7, lsl #10
 1bc:	88048705 	stmdahi	r4, {r0, r2, r8, r9, sl, pc}
 1c0:	8e028a03 	vmlahi.f32	s16, s4, s6
 1c4:	e80e4601 	stmda	lr, {r0, r9, sl, lr}
 1c8:	00000001 	andeq	r0, r0, r1
 1cc:	0000000c 	andeq	r0, r0, ip
 1d0:	ffffffff 			; <UNDEFINED> instruction: 0xffffffff
 1d4:	7c020001 	stcvc	0, cr0, [r2], {1}
 1d8:	000d0c0e 	andeq	r0, sp, lr, lsl #24
 1dc:	0000000c 	andeq	r0, r0, ip
 1e0:	000001cc 	andeq	r0, r0, ip, asr #3
 1e4:	00008934 	andeq	r8, r0, r4, lsr r9
 1e8:	0000000c 	andeq	r0, r0, ip
 1ec:	0000001c 	andeq	r0, r0, ip, lsl r0
 1f0:	000001cc 	andeq	r0, r0, ip, asr #3
 1f4:	00008940 	andeq	r8, r0, r0, asr #18
 1f8:	0000004c 	andeq	r0, r0, ip, asr #32
 1fc:	83180e42 	tsthi	r8, #1056	; 0x420
 200:	85058406 	strhi	r8, [r5, #-1030]	; 0x406
 204:	87038604 	strhi	r8, [r3, -r4, lsl #12]
 208:	00018e02 	andeq	r8, r1, r2, lsl #28
 20c:	00000018 	andeq	r0, r0, r8, lsl r0
 210:	000001cc 	andeq	r0, r0, ip, asr #3
 214:	0000898c 	andeq	r8, r0, ip, lsl #19
 218:	00000048 	andeq	r0, r0, r8, asr #32
 21c:	84100e46 	ldrhi	r0, [r0], #-3654	; 0xe46
 220:	86038504 	strhi	r8, [r3], -r4, lsl #10
 224:	00018e02 	andeq	r8, r1, r2, lsl #28
 228:	00000024 	andeq	r0, r0, r4, lsr #32
 22c:	000001cc 	andeq	r0, r0, ip, asr #3
 230:	000089d4 	ldrdeq	r8, [r0], -r4
 234:	0000014c 	andeq	r0, r0, ip, asr #2
 238:	84240e42 	strthi	r0, [r4], #-3650	; 0xe42
 23c:	86088509 	strhi	r8, [r8], -r9, lsl #10
 240:	88068707 	stmdahi	r6, {r0, r1, r2, r8, r9, sl, pc}
 244:	8a048905 	bhi	122660 <multiplylookup+0x118eb0>
 248:	8e028b03 	vmlahi.f64	d8, d2, d3
 24c:	400e5c01 	andmi	r5, lr, r1, lsl #24
 250:	00000024 	andeq	r0, r0, r4, lsr #32
 254:	000001cc 	andeq	r0, r0, ip, asr #3
 258:	00008b20 	andeq	r8, r0, r0, lsr #22
 25c:	000000b0 	strheq	r0, [r0], -r0	; <UNPREDICTABLE>
 260:	84240e42 	strthi	r0, [r4], #-3650	; 0xe42
 264:	86088509 	strhi	r8, [r8], -r9, lsl #10
 268:	88068707 	stmdahi	r6, {r0, r1, r2, r8, r9, sl, pc}
 26c:	8a048905 	bhi	122688 <multiplylookup+0x118ed8>
 270:	8e028b03 	vmlahi.f64	d8, d2, d3
 274:	300e4401 	andcc	r4, lr, r1, lsl #8
 278:	00000024 	andeq	r0, r0, r4, lsr #32
 27c:	000001cc 	andeq	r0, r0, ip, asr #3
 280:	00008bd0 	ldrdeq	r8, [r0], -r0
 284:	000000a0 	andeq	r0, r0, r0, lsr #1
 288:	84240e42 	strthi	r0, [r4], #-3650	; 0xe42
 28c:	86088509 	strhi	r8, [r8], -r9, lsl #10
 290:	88068707 	stmdahi	r6, {r0, r1, r2, r8, r9, sl, pc}
 294:	8a048905 	bhi	1226b0 <multiplylookup+0x118f00>
 298:	8e028b03 	vmlahi.f64	d8, d2, d3
 29c:	300e4401 	andcc	r4, lr, r1, lsl #8
 2a0:	0000001c 	andeq	r0, r0, ip, lsl r0
 2a4:	000001cc 	andeq	r0, r0, ip, asr #3
 2a8:	00008c70 	andeq	r8, r0, r0, ror ip
 2ac:	00000054 	andeq	r0, r0, r4, asr r0
 2b0:	83180e42 	tsthi	r8, #1056	; 0x420
 2b4:	85058406 	strhi	r8, [r5, #-1030]	; 0x406
 2b8:	87038604 	strhi	r8, [r3, -r4, lsl #12]
 2bc:	00018e02 	andeq	r8, r1, r2, lsl #28
 2c0:	00000024 	andeq	r0, r0, r4, lsr #32
 2c4:	000001cc 	andeq	r0, r0, ip, asr #3
 2c8:	00008cc4 	andeq	r8, r0, r4, asr #25
 2cc:	000002b0 			; <UNDEFINED> instruction: 0x000002b0
 2d0:	84240e42 	strthi	r0, [r4], #-3650	; 0xe42
 2d4:	86088509 	strhi	r8, [r8], -r9, lsl #10
 2d8:	88068707 	stmdahi	r6, {r0, r1, r2, r8, r9, sl, pc}
 2dc:	8a048905 	bhi	1226f8 <multiplylookup+0x118f48>
 2e0:	8e028b03 	vmlahi.f64	d8, d2, d3
 2e4:	600e4201 	andvs	r4, lr, r1, lsl #4
