
video01.elf:     file format elf32-littlearm


Disassembly of section .text:

00008000 <_start>:
    8000:	e3a0d902 	mov	sp, #32768	; 0x8000
    8004:	eb0000e8 	bl	83ac <notmain>
    8008:	e3a00602 	mov	r0, #2097152	; 0x200000
    800c:	e12fff10 	bx	r0

00008010 <hang>:
    8010:	eafffffe 	b	8010 <hang>

00008014 <PUT32>:
    8014:	e5801000 	str	r1, [r0]
    8018:	e12fff1e 	bx	lr

0000801c <PUT16>:
    801c:	e1c010b0 	strh	r1, [r0]
    8020:	e12fff1e 	bx	lr

00008024 <PUT8>:
    8024:	e5c01000 	strb	r1, [r0]
    8028:	e12fff1e 	bx	lr

0000802c <GET32>:
    802c:	e5900000 	ldr	r0, [r0]
    8030:	e12fff1e 	bx	lr

00008034 <GETPC>:
    8034:	e1a0000e 	mov	r0, lr
    8038:	e12fff1e 	bx	lr

0000803c <dummy>:
    803c:	e12fff1e 	bx	lr

00008040 <start_l1cache>:
    8040:	e3a00000 	mov	r0, #0
    8044:	ee070f17 	mcr	15, 0, r0, cr7, cr7, {0}
    8048:	ee080f17 	mcr	15, 0, r0, cr8, cr7, {0}
    804c:	ee110f10 	mrc	15, 0, r0, cr1, cr0, {0}
    8050:	e3800a01 	orr	r0, r0, #4096	; 0x1000
    8054:	e3800004 	orr	r0, r0, #4
    8058:	ee010f10 	mcr	15, 0, r0, cr1, cr0, {0}
    805c:	e12fff1e 	bx	lr

00008060 <stop_l1cache>:
    8060:	ee110f10 	mrc	15, 0, r0, cr1, cr0, {0}
    8064:	e3c00a01 	bic	r0, r0, #4096	; 0x1000
    8068:	e3c00004 	bic	r0, r0, #4
    806c:	ee010f10 	mcr	15, 0, r0, cr1, cr0, {0}
    8070:	e12fff1e 	bx	lr

00008074 <start_mmu>:
    8074:	e3a02000 	mov	r2, #0
    8078:	ee072f17 	mcr	15, 0, r2, cr7, cr7, {0}
    807c:	ee082f17 	mcr	15, 0, r2, cr8, cr7, {0}
    8080:	e3e02000 	mvn	r2, #0
    8084:	ee032f10 	mcr	15, 0, r2, cr3, cr0, {0}
    8088:	ee020f10 	mcr	15, 0, r0, cr2, cr0, {0}
    808c:	ee020f30 	mcr	15, 0, r0, cr2, cr0, {1}
    8090:	ee112f10 	mrc	15, 0, r2, cr1, cr0, {0}
    8094:	e1822001 	orr	r2, r2, r1
    8098:	ee012f10 	mcr	15, 0, r2, cr1, cr0, {0}
    809c:	e12fff1e 	bx	lr

000080a0 <uart_lcr>:
    80a0:	e92d4008 	push	{r3, lr}
    80a4:	e59f0008 	ldr	r0, [pc, #8]	; 80b4 <uart_lcr+0x14>
    80a8:	ebffffdf 	bl	802c <GET32>
    80ac:	e8bd4008 	pop	{r3, lr}
    80b0:	e12fff1e 	bx	lr
    80b4:	20215054 	eorcs	r5, r1, r4, asr r0

000080b8 <uart_recv>:
    80b8:	e92d4008 	push	{r3, lr}
    80bc:	e59f001c 	ldr	r0, [pc, #28]	; 80e0 <uart_recv+0x28>
    80c0:	ebffffd9 	bl	802c <GET32>
    80c4:	e3100001 	tst	r0, #1
    80c8:	0afffffb 	beq	80bc <uart_recv+0x4>
    80cc:	e59f0010 	ldr	r0, [pc, #16]	; 80e4 <uart_recv+0x2c>
    80d0:	ebffffd5 	bl	802c <GET32>
    80d4:	e20000ff 	and	r0, r0, #255	; 0xff
    80d8:	e8bd4008 	pop	{r3, lr}
    80dc:	e12fff1e 	bx	lr
    80e0:	20215054 	eorcs	r5, r1, r4, asr r0
    80e4:	20215040 	eorcs	r5, r1, r0, asr #32

000080e8 <uart_check>:
    80e8:	e92d4008 	push	{r3, lr}
    80ec:	e59f000c 	ldr	r0, [pc, #12]	; 8100 <uart_check+0x18>
    80f0:	ebffffcd 	bl	802c <GET32>
    80f4:	e2000001 	and	r0, r0, #1
    80f8:	e8bd4008 	pop	{r3, lr}
    80fc:	e12fff1e 	bx	lr
    8100:	20215054 	eorcs	r5, r1, r4, asr r0

00008104 <uart_send>:
    8104:	e92d4010 	push	{r4, lr}
    8108:	e1a04000 	mov	r4, r0
    810c:	e59f001c 	ldr	r0, [pc, #28]	; 8130 <uart_send+0x2c>
    8110:	ebffffc5 	bl	802c <GET32>
    8114:	e3100020 	tst	r0, #32
    8118:	0afffffb 	beq	810c <uart_send+0x8>
    811c:	e59f0010 	ldr	r0, [pc, #16]	; 8134 <uart_send+0x30>
    8120:	e1a01004 	mov	r1, r4
    8124:	ebffffba 	bl	8014 <PUT32>
    8128:	e8bd4010 	pop	{r4, lr}
    812c:	e12fff1e 	bx	lr
    8130:	20215054 	eorcs	r5, r1, r4, asr r0
    8134:	20215040 	eorcs	r5, r1, r0, asr #32

00008138 <uart_puts>:
    8138:	e92d4010 	push	{r4, lr}
    813c:	e1a04000 	mov	r4, r0
    8140:	e5d00000 	ldrb	r0, [r0]
    8144:	e3500000 	cmp	r0, #0
    8148:	0a000003 	beq	815c <uart_puts+0x24>
    814c:	ebffffec 	bl	8104 <uart_send>
    8150:	e5f40001 	ldrb	r0, [r4, #1]!
    8154:	e3500000 	cmp	r0, #0
    8158:	1afffffb 	bne	814c <uart_puts+0x14>
    815c:	e8bd4010 	pop	{r4, lr}
    8160:	e12fff1e 	bx	lr

00008164 <uart_flush>:
    8164:	e92d4008 	push	{r3, lr}
    8168:	e59f0010 	ldr	r0, [pc, #16]	; 8180 <uart_flush+0x1c>
    816c:	ebffffae 	bl	802c <GET32>
    8170:	e3100c01 	tst	r0, #256	; 0x100
    8174:	1afffffb 	bne	8168 <uart_flush+0x4>
    8178:	e8bd4008 	pop	{r3, lr}
    817c:	e12fff1e 	bx	lr
    8180:	20215054 	eorcs	r5, r1, r4, asr r0

00008184 <hexstrings>:
    8184:	e92d4038 	push	{r3, r4, r5, lr}
    8188:	e1a05000 	mov	r5, r0
    818c:	e3a04020 	mov	r4, #32
    8190:	e2444004 	sub	r4, r4, #4
    8194:	e1a03435 	lsr	r3, r5, r4
    8198:	e203300f 	and	r3, r3, #15
    819c:	e3530009 	cmp	r3, #9
    81a0:	82830037 	addhi	r0, r3, #55	; 0x37
    81a4:	92830030 	addls	r0, r3, #48	; 0x30
    81a8:	ebffffd5 	bl	8104 <uart_send>
    81ac:	e3540000 	cmp	r4, #0
    81b0:	1afffff6 	bne	8190 <hexstrings+0xc>
    81b4:	e3a00020 	mov	r0, #32
    81b8:	e8bd4038 	pop	{r3, r4, r5, lr}
    81bc:	eaffffd0 	b	8104 <uart_send>

000081c0 <hexstring>:
    81c0:	e92d4008 	push	{r3, lr}
    81c4:	ebffffee 	bl	8184 <hexstrings>
    81c8:	e3a0000d 	mov	r0, #13
    81cc:	ebffffcc 	bl	8104 <uart_send>
    81d0:	e3a0000a 	mov	r0, #10
    81d4:	e8bd4008 	pop	{r3, lr}
    81d8:	eaffffc9 	b	8104 <uart_send>

000081dc <uart_init>:
    81dc:	e92d4010 	push	{r4, lr}
    81e0:	e59f00d8 	ldr	r0, [pc, #216]	; 82c0 <uart_init+0xe4>
    81e4:	e3a01001 	mov	r1, #1
    81e8:	ebffff89 	bl	8014 <PUT32>
    81ec:	e59f00d0 	ldr	r0, [pc, #208]	; 82c4 <uart_init+0xe8>
    81f0:	e3a01000 	mov	r1, #0
    81f4:	ebffff86 	bl	8014 <PUT32>
    81f8:	e59f00c8 	ldr	r0, [pc, #200]	; 82c8 <uart_init+0xec>
    81fc:	e3a01000 	mov	r1, #0
    8200:	ebffff83 	bl	8014 <PUT32>
    8204:	e59f00c0 	ldr	r0, [pc, #192]	; 82cc <uart_init+0xf0>
    8208:	e3a01003 	mov	r1, #3
    820c:	ebffff80 	bl	8014 <PUT32>
    8210:	e59f00b8 	ldr	r0, [pc, #184]	; 82d0 <uart_init+0xf4>
    8214:	e3a01000 	mov	r1, #0
    8218:	ebffff7d 	bl	8014 <PUT32>
    821c:	e59f00a0 	ldr	r0, [pc, #160]	; 82c4 <uart_init+0xe8>
    8220:	e3a01000 	mov	r1, #0
    8224:	ebffff7a 	bl	8014 <PUT32>
    8228:	e59f00a4 	ldr	r0, [pc, #164]	; 82d4 <uart_init+0xf8>
    822c:	e3a010c6 	mov	r1, #198	; 0xc6
    8230:	ebffff77 	bl	8014 <PUT32>
    8234:	e59f109c 	ldr	r1, [pc, #156]	; 82d8 <uart_init+0xfc>
    8238:	e59f009c 	ldr	r0, [pc, #156]	; 82dc <uart_init+0x100>
    823c:	ebffff74 	bl	8014 <PUT32>
    8240:	e59f0098 	ldr	r0, [pc, #152]	; 82e0 <uart_init+0x104>
    8244:	ebffff78 	bl	802c <GET32>
    8248:	e3c01a3f 	bic	r1, r0, #258048	; 0x3f000
    824c:	e3811a12 	orr	r1, r1, #73728	; 0x12000
    8250:	e59f0088 	ldr	r0, [pc, #136]	; 82e0 <uart_init+0x104>
    8254:	ebffff6e 	bl	8014 <PUT32>
    8258:	e59f0084 	ldr	r0, [pc, #132]	; 82e4 <uart_init+0x108>
    825c:	e3a01000 	mov	r1, #0
    8260:	ebffff6b 	bl	8014 <PUT32>
    8264:	e3a04000 	mov	r4, #0
    8268:	e1a00004 	mov	r0, r4
    826c:	e2844001 	add	r4, r4, #1
    8270:	ebffff71 	bl	803c <dummy>
    8274:	e3540096 	cmp	r4, #150	; 0x96
    8278:	1afffffa 	bne	8268 <uart_init+0x8c>
    827c:	e59f0064 	ldr	r0, [pc, #100]	; 82e8 <uart_init+0x10c>
    8280:	e3a01903 	mov	r1, #49152	; 0xc000
    8284:	ebffff62 	bl	8014 <PUT32>
    8288:	e3a04000 	mov	r4, #0
    828c:	e1a00004 	mov	r0, r4
    8290:	e2844001 	add	r4, r4, #1
    8294:	ebffff68 	bl	803c <dummy>
    8298:	e3540096 	cmp	r4, #150	; 0x96
    829c:	1afffffa 	bne	828c <uart_init+0xb0>
    82a0:	e59f0040 	ldr	r0, [pc, #64]	; 82e8 <uart_init+0x10c>
    82a4:	e3a01000 	mov	r1, #0
    82a8:	ebffff59 	bl	8014 <PUT32>
    82ac:	e59f0014 	ldr	r0, [pc, #20]	; 82c8 <uart_init+0xec>
    82b0:	e3a01003 	mov	r1, #3
    82b4:	ebffff56 	bl	8014 <PUT32>
    82b8:	e8bd4010 	pop	{r4, lr}
    82bc:	e12fff1e 	bx	lr
    82c0:	20215004 	eorcs	r5, r1, r4
    82c4:	20215044 	eorcs	r5, r1, r4, asr #32
    82c8:	20215060 	eorcs	r5, r1, r0, rrx
    82cc:	2021504c 	eorcs	r5, r1, ip, asr #32
    82d0:	20215050 	eorcs	r5, r1, r0, asr r0
    82d4:	20215048 	eorcs	r5, r1, r8, asr #32
    82d8:	0000010e 	andeq	r0, r0, lr, lsl #2
    82dc:	20215068 	eorcs	r5, r1, r8, rrx
    82e0:	20200004 	eorcs	r0, r0, r4
    82e4:	20200094 	mlacs	r0, r4, r0, r0
    82e8:	20200098 	mlacs	r0, r8, r0, r0

000082ec <timer_init>:
    82ec:	e92d4010 	push	{r4, lr}
    82f0:	e59f401c 	ldr	r4, [pc, #28]	; 8314 <timer_init+0x28>
    82f4:	e3a018f9 	mov	r1, #16318464	; 0xf90000
    82f8:	e1a00004 	mov	r0, r4
    82fc:	ebffff44 	bl	8014 <PUT32>
    8300:	e1a00004 	mov	r0, r4
    8304:	e59f100c 	ldr	r1, [pc, #12]	; 8318 <timer_init+0x2c>
    8308:	ebffff41 	bl	8014 <PUT32>
    830c:	e8bd4010 	pop	{r4, lr}
    8310:	e12fff1e 	bx	lr
    8314:	2000b408 	andcs	fp, r0, r8, lsl #8
    8318:	00f90200 	rscseq	r0, r9, r0, lsl #4

0000831c <timer_tick>:
    831c:	e92d4008 	push	{r3, lr}
    8320:	e59f0008 	ldr	r0, [pc, #8]	; 8330 <timer_tick+0x14>
    8324:	ebffff40 	bl	802c <GET32>
    8328:	e8bd4008 	pop	{r3, lr}
    832c:	e12fff1e 	bx	lr
    8330:	2000b420 	andcs	fp, r0, r0, lsr #8

00008334 <MailboxWrite>:
    8334:	e92d4038 	push	{r3, r4, r5, lr}
    8338:	e1a04000 	mov	r4, r0
    833c:	e1a05001 	mov	r5, r1
    8340:	e59f0020 	ldr	r0, [pc, #32]	; 8368 <MailboxWrite+0x34>
    8344:	ebffff38 	bl	802c <GET32>
    8348:	e3500000 	cmp	r0, #0
    834c:	bafffffb 	blt	8340 <MailboxWrite+0xc>
    8350:	e59f0014 	ldr	r0, [pc, #20]	; 836c <MailboxWrite+0x38>
    8354:	e0851004 	add	r1, r5, r4
    8358:	ebffff2d 	bl	8014 <PUT32>
    835c:	e3a00000 	mov	r0, #0
    8360:	e8bd4038 	pop	{r3, r4, r5, lr}
    8364:	e12fff1e 	bx	lr
    8368:	2000b898 	mulcs	r0, r8, r8
    836c:	2000b8a0 	andcs	fp, r0, r0, lsr #17

00008370 <MailboxRead>:
    8370:	e92d4010 	push	{r4, lr}
    8374:	e1a04000 	mov	r4, r0
    8378:	e59f0024 	ldr	r0, [pc, #36]	; 83a4 <MailboxRead+0x34>
    837c:	ebffff2a 	bl	802c <GET32>
    8380:	e3100101 	tst	r0, #1073741824	; 0x40000000
    8384:	1afffffb 	bne	8378 <MailboxRead+0x8>
    8388:	e59f0018 	ldr	r0, [pc, #24]	; 83a8 <MailboxRead+0x38>
    838c:	ebffff26 	bl	802c <GET32>
    8390:	e200300f 	and	r3, r0, #15
    8394:	e1530004 	cmp	r3, r4
    8398:	1afffff6 	bne	8378 <MailboxRead+0x8>
    839c:	e8bd4010 	pop	{r4, lr}
    83a0:	e12fff1e 	bx	lr
    83a4:	2000b898 	mulcs	r0, r8, r8
    83a8:	2000b880 	andcs	fp, r0, r0, lsl #17

000083ac <notmain>:
    83ac:	e92d4070 	push	{r4, r5, r6, lr}
    83b0:	e24dd008 	sub	sp, sp, #8
    83b4:	ebffff88 	bl	81dc <uart_init>
    83b8:	ebffffcb 	bl	82ec <timer_init>
    83bc:	e59f0150 	ldr	r0, [pc, #336]	; 8514 <notmain+0x168>
    83c0:	e3a01d0a 	mov	r1, #640	; 0x280
    83c4:	ebffff12 	bl	8014 <PUT32>
    83c8:	e59f0148 	ldr	r0, [pc, #328]	; 8518 <notmain+0x16c>
    83cc:	e3a01e1e 	mov	r1, #480	; 0x1e0
    83d0:	ebffff0f 	bl	8014 <PUT32>
    83d4:	e59f0140 	ldr	r0, [pc, #320]	; 851c <notmain+0x170>
    83d8:	e3a01d0a 	mov	r1, #640	; 0x280
    83dc:	ebffff0c 	bl	8014 <PUT32>
    83e0:	e59f0138 	ldr	r0, [pc, #312]	; 8520 <notmain+0x174>
    83e4:	e3a01e1e 	mov	r1, #480	; 0x1e0
    83e8:	ebffff09 	bl	8014 <PUT32>
    83ec:	e59f0130 	ldr	r0, [pc, #304]	; 8524 <notmain+0x178>
    83f0:	e3a01000 	mov	r1, #0
    83f4:	ebffff06 	bl	8014 <PUT32>
    83f8:	e59f0128 	ldr	r0, [pc, #296]	; 8528 <notmain+0x17c>
    83fc:	e3a01010 	mov	r1, #16
    8400:	ebffff03 	bl	8014 <PUT32>
    8404:	e59f0120 	ldr	r0, [pc, #288]	; 852c <notmain+0x180>
    8408:	e3a01000 	mov	r1, #0
    840c:	ebffff00 	bl	8014 <PUT32>
    8410:	e59f0118 	ldr	r0, [pc, #280]	; 8530 <notmain+0x184>
    8414:	e3a01000 	mov	r1, #0
    8418:	ebfffefd 	bl	8014 <PUT32>
    841c:	e59f0110 	ldr	r0, [pc, #272]	; 8534 <notmain+0x188>
    8420:	e3a01000 	mov	r1, #0
    8424:	ebfffefa 	bl	8014 <PUT32>
    8428:	e59f0108 	ldr	r0, [pc, #264]	; 8538 <notmain+0x18c>
    842c:	e3a01000 	mov	r1, #0
    8430:	ebfffef7 	bl	8014 <PUT32>
    8434:	e3a01001 	mov	r1, #1
    8438:	e59f00d4 	ldr	r0, [pc, #212]	; 8514 <notmain+0x168>
    843c:	ebffffbc 	bl	8334 <MailboxWrite>
    8440:	e3a00001 	mov	r0, #1
    8444:	ebffffc9 	bl	8370 <MailboxRead>
    8448:	e59f20ec 	ldr	r2, [pc, #236]	; 853c <notmain+0x190>
    844c:	e3a03000 	mov	r3, #0
    8450:	e5a23004 	str	r3, [r2, #4]!
    8454:	e2833d0a 	add	r3, r3, #640	; 0x280
    8458:	e3530919 	cmp	r3, #409600	; 0x64000
    845c:	1afffffb 	bne	8450 <notmain+0xa4>
    8460:	e59f00cc 	ldr	r0, [pc, #204]	; 8534 <notmain+0x188>
    8464:	ebfffef0 	bl	802c <GET32>
    8468:	e3a0cb3e 	mov	ip, #63488	; 0xf800
    846c:	e3a01023 	mov	r1, #35	; 0x23
    8470:	e3a02068 	mov	r2, #104	; 0x68
    8474:	e59f30c4 	ldr	r3, [pc, #196]	; 8540 <notmain+0x194>
    8478:	e58dc000 	str	ip, [sp]
    847c:	e3a00f87 	mov	r0, #540	; 0x21c
    8480:	eb00010e 	bl	88c0 <drawLine>
    8484:	e3a00000 	mov	r0, #0
    8488:	eb0000e6 	bl	8828 <clrScreen>
    848c:	e59f00b0 	ldr	r0, [pc, #176]	; 8544 <notmain+0x198>
    8490:	ebffff28 	bl	8138 <uart_puts>
    8494:	e3a0400a 	mov	r4, #10
    8498:	e3a06a0f 	mov	r6, #61440	; 0xf000
    849c:	eb00006f 	bl	8660 <GetTimeStamp>
    84a0:	e3a02f4b 	mov	r2, #300	; 0x12c
    84a4:	e1a05000 	mov	r5, r0
    84a8:	e3a00032 	mov	r0, #50	; 0x32
    84ac:	e1a01000 	mov	r1, r0
    84b0:	e1a03002 	mov	r3, r2
    84b4:	e58d6000 	str	r6, [sp]
    84b8:	eb00019a 	bl	8b28 <drawRect>
    84bc:	eb000067 	bl	8660 <GetTimeStamp>
    84c0:	e0650000 	rsb	r0, r5, r0
    84c4:	ebffff3d 	bl	81c0 <hexstring>
    84c8:	e3a00000 	mov	r0, #0
    84cc:	eb0000d5 	bl	8828 <clrScreen>
    84d0:	e2544001 	subs	r4, r4, #1
    84d4:	1afffff0 	bne	849c <notmain+0xf0>
    84d8:	e3a02f4b 	mov	r2, #300	; 0x12c
    84dc:	e3a0ca0f 	mov	ip, #61440	; 0xf000
    84e0:	e3a00032 	mov	r0, #50	; 0x32
    84e4:	e1a01000 	mov	r1, r0
    84e8:	e1a03002 	mov	r3, r2
    84ec:	e58dc000 	str	ip, [sp]
    84f0:	eb00018c 	bl	8b28 <drawRect>
    84f4:	e59f004c 	ldr	r0, [pc, #76]	; 8548 <notmain+0x19c>
    84f8:	ebffff0e 	bl	8138 <uart_puts>
    84fc:	e59f0048 	ldr	r0, [pc, #72]	; 854c <notmain+0x1a0>
    8500:	eb00005a 	bl	8670 <WaitMicros>
    8504:	e1a00004 	mov	r0, r4
    8508:	e28dd008 	add	sp, sp, #8
    850c:	e8bd4070 	pop	{r4, r5, r6, lr}
    8510:	e12fff1e 	bx	lr
    8514:	40040000 	andmi	r0, r4, r0
    8518:	40040004 	andmi	r0, r4, r4
    851c:	40040008 	andmi	r0, r4, r8
    8520:	4004000c 	andmi	r0, r4, ip
    8524:	40040010 	andmi	r0, r4, r0, lsl r0
    8528:	40040014 	andmi	r0, r4, r4, lsl r0
    852c:	40040018 	andmi	r0, r4, r8, lsl r0
    8530:	4004001c 	andmi	r0, r4, ip, lsl r0
    8534:	40040020 	andmi	r0, r4, r0, lsr #32
    8538:	40040024 	andmi	r0, r4, r4, lsr #32
    853c:	000096cc 	andeq	r9, r0, ip, asr #13
    8540:	00000143 	andeq	r0, r0, r3, asr #2
    8544:	00008e94 	muleq	r0, r4, lr
    8548:	00008ea0 	andeq	r8, r0, r0, lsr #29
    854c:	00001388 	andeq	r1, r0, r8, lsl #7

00008550 <SetForeColor>:
    8550:	e3500801 	cmp	r0, #65536	; 0x10000
    8554:	21a0f00e 	movcs	pc, lr
    8558:	e59f10e4 	ldr	r1, [pc, #228]	; 8644 <charPixelLoopEnd$+0x1c>
    855c:	e1c100b0 	strh	r0, [r1]
    8560:	e1a0f00e 	mov	pc, lr

00008564 <SetGraphicsAddress>:
    8564:	e59f10dc 	ldr	r1, [pc, #220]	; 8648 <charPixelLoopEnd$+0x20>
    8568:	e5810000 	str	r0, [r1]
    856c:	e1a0f00e 	mov	pc, lr

00008570 <DrawPixel>:
    8570:	e59f20d0 	ldr	r2, [pc, #208]	; 8648 <charPixelLoopEnd$+0x20>
    8574:	e5922000 	ldr	r2, [r2]
    8578:	e5923004 	ldr	r3, [r2, #4]
    857c:	e2433001 	sub	r3, r3, #1
    8580:	e1510003 	cmp	r1, r3
    8584:	81a0f00e 	movhi	pc, lr
    8588:	e5923000 	ldr	r3, [r2]
    858c:	e2433001 	sub	r3, r3, #1
    8590:	e1500003 	cmp	r0, r3
    8594:	81a0f00e 	movhi	pc, lr
    8598:	e5922020 	ldr	r2, [r2, #32]
    859c:	e2833001 	add	r3, r3, #1
    85a0:	e0200391 	mla	r0, r1, r3, r0
    85a4:	e0822080 	add	r2, r2, r0, lsl #1
    85a8:	e59f3094 	ldr	r3, [pc, #148]	; 8644 <charPixelLoopEnd$+0x1c>
    85ac:	e1d330b0 	ldrh	r3, [r3]
    85b0:	e1c230b0 	strh	r3, [r2]
    85b4:	e1a0f00e 	mov	pc, lr

000085b8 <Random>:
    85b8:	e59f108c 	ldr	r1, [pc, #140]	; 864c <charPixelLoopEnd$+0x24>
    85bc:	e0010190 	mul	r1, r0, r1
    85c0:	e0010190 	mul	r1, r0, r1
    85c4:	e0811000 	add	r1, r1, r0
    85c8:	e2810049 	add	r0, r1, #73	; 0x49
    85cc:	e1a0f00e 	mov	pc, lr

000085d0 <DrawChar>:
    85d0:	e350007f 	cmp	r0, #127	; 0x7f
    85d4:	83a00000 	movhi	r0, #0
    85d8:	83a01000 	movhi	r1, #0
    85dc:	81a0f00e 	movhi	pc, lr
    85e0:	e92d41f0 	push	{r4, r5, r6, r7, r8, lr}
    85e4:	e1a04001 	mov	r4, r1
    85e8:	e1a05002 	mov	r5, r2
    85ec:	e59f605c 	ldr	r6, [pc, #92]	; 8650 <charPixelLoopEnd$+0x28>
    85f0:	e0866200 	add	r6, r6, r0, lsl #4

000085f4 <lineLoop$>:
    85f4:	e5d67000 	ldrb	r7, [r6]
    85f8:	e3a08008 	mov	r8, #8

000085fc <charPixelLoop$>:
    85fc:	e2588001 	subs	r8, r8, #1
    8600:	ba000008 	blt	8628 <charPixelLoopEnd$>
    8604:	e1a07087 	lsl	r7, r7, #1
    8608:	e3170c01 	tst	r7, #256	; 0x100
    860c:	0afffffa 	beq	85fc <charPixelLoop$>
    8610:	e59f203c 	ldr	r2, [pc, #60]	; 8654 <charPixelLoopEnd$+0x2c>
    8614:	e0840008 	add	r0, r4, r8
    8618:	e1a01005 	mov	r1, r5
    861c:	eb000095 	bl	8878 <setPixel>
    8620:	e3380000 	teq	r8, #0
    8624:	1afffff4 	bne	85fc <charPixelLoop$>

00008628 <charPixelLoopEnd$>:
    8628:	e2855001 	add	r5, r5, #1
    862c:	e2866001 	add	r6, r6, #1
    8630:	e316000f 	tst	r6, #15
    8634:	1affffee 	bne	85f4 <lineLoop$>
    8638:	e3a00008 	mov	r0, #8
    863c:	e3a01010 	mov	r1, #16
    8640:	e8bd81f0 	pop	{r4, r5, r6, r7, r8, pc}
    8644:	00008ec0 	andeq	r8, r0, r0, asr #29
    8648:	00008ec4 	andeq	r8, r0, r4, asr #29
    864c:	0000ef35 	andeq	lr, r0, r5, lsr pc
    8650:	00008ed0 	ldrdeq	r8, [r0], -r0
    8654:	0000ffff 	strdeq	pc, [r0], -pc	; <UNPREDICTABLE>

00008658 <GetSystemTimerBase>:
    8658:	e59f0034 	ldr	r0, [pc, #52]	; 8694 <loop$+0x14>
    865c:	e1a0f00e 	mov	pc, lr

00008660 <GetTimeStamp>:
    8660:	e52de004 	push	{lr}		; (str lr, [sp, #-4]!)
    8664:	ebfffffb 	bl	8658 <GetSystemTimerBase>
    8668:	e1c000d4 	ldrd	r0, [r0, #4]
    866c:	e49df004 	pop	{pc}		; (ldr pc, [sp], #4)

00008670 <WaitMicros>:
    8670:	e1a02000 	mov	r2, r0
    8674:	e52de004 	push	{lr}		; (str lr, [sp, #-4]!)
    8678:	ebfffff8 	bl	8660 <GetTimeStamp>
    867c:	e1a03000 	mov	r3, r0

00008680 <loop$>:
    8680:	ebfffff6 	bl	8660 <GetTimeStamp>
    8684:	e0401003 	sub	r1, r0, r3
    8688:	e1510002 	cmp	r1, r2
    868c:	9afffffb 	bls	8680 <loop$>
    8690:	e49df004 	pop	{pc}		; (ldr pc, [sp], #4)
    8694:	20003000 	andcs	r3, r0, r0

00008698 <strcmp>:
    8698:	e4d03001 	ldrb	r3, [r0], #1
    869c:	e4d12001 	ldrb	r2, [r1], #1
    86a0:	e1530002 	cmp	r3, r2
    86a4:	1a000003 	bne	86b8 <strcmp+0x20>
    86a8:	e3530000 	cmp	r3, #0
    86ac:	1afffff9 	bne	8698 <strcmp>
    86b0:	e1a00003 	mov	r0, r3
    86b4:	e12fff1e 	bx	lr
    86b8:	e1520003 	cmp	r2, r3
    86bc:	93a00001 	movls	r0, #1
    86c0:	83e00000 	mvnhi	r0, #0
    86c4:	e12fff1e 	bx	lr

000086c8 <evalCommand>:
    86c8:	e92d45f0 	push	{r4, r5, r6, r7, r8, sl, lr}
    86cc:	e5d03000 	ldrb	r3, [r0]
    86d0:	e213e0df 	ands	lr, r3, #223	; 0xdf
    86d4:	e24dd0cc 	sub	sp, sp, #204	; 0xcc
    86d8:	e1a08000 	mov	r8, r0
    86dc:	e1a06001 	mov	r6, r1
    86e0:	e1a05002 	mov	r5, r2
    86e4:	0a000044 	beq	87fc <evalCommand+0x134>
    86e8:	e1a04000 	mov	r4, r0
    86ec:	e3a0c000 	mov	ip, #0
    86f0:	e1a0700d 	mov	r7, sp
    86f4:	ea000001 	b	8700 <evalCommand+0x38>
    86f8:	e3500064 	cmp	r0, #100	; 0x64
    86fc:	0a000032 	beq	87cc <evalCommand+0x104>
    8700:	e7c7300c 	strb	r3, [r7, ip]
    8704:	e5f43001 	ldrb	r3, [r4, #1]!
    8708:	e28c0001 	add	r0, ip, #1
    870c:	e213a0df 	ands	sl, r3, #223	; 0xdf
    8710:	e1a0c000 	mov	ip, r0
    8714:	1afffff7 	bne	86f8 <evalCommand+0x30>
    8718:	e2804001 	add	r4, r0, #1
    871c:	ebfffea7 	bl	81c0 <hexstring>
    8720:	e7d83004 	ldrb	r3, [r8, r4]
    8724:	e28d10c8 	add	r1, sp, #200	; 0xc8
    8728:	e0812004 	add	r2, r1, r4
    872c:	e31300df 	tst	r3, #223	; 0xdf
    8730:	e542a0c8 	strb	sl, [r2, #-200]	; 0xc8
    8734:	0a00002e 	beq	87f4 <evalCommand+0x12c>
    8738:	e28da064 	add	sl, sp, #100	; 0x64
    873c:	e0882004 	add	r2, r8, r4
    8740:	e064100a 	rsb	r1, r4, sl
    8744:	ea000001 	b	8750 <evalCommand+0x88>
    8748:	e35400c7 	cmp	r4, #199	; 0xc7
    874c:	ca000004 	bgt	8764 <evalCommand+0x9c>
    8750:	e7c13004 	strb	r3, [r1, r4]
    8754:	e5f23001 	ldrb	r3, [r2, #1]!
    8758:	e31300df 	tst	r3, #223	; 0xdf
    875c:	e2844001 	add	r4, r4, #1
    8760:	1afffff8 	bne	8748 <evalCommand+0x80>
    8764:	e1a0000d 	mov	r0, sp
    8768:	ebfffe72 	bl	8138 <uart_puts>
    876c:	e59f009c 	ldr	r0, [pc, #156]	; 8810 <evalCommand+0x148>
    8770:	ebfffe70 	bl	8138 <uart_puts>
    8774:	e1a0000a 	mov	r0, sl
    8778:	ebfffe6e 	bl	8138 <uart_puts>
    877c:	e59f1090 	ldr	r1, [pc, #144]	; 8814 <evalCommand+0x14c>
    8780:	e24d2001 	sub	r2, sp, #1
    8784:	e5f13001 	ldrb	r3, [r1, #1]!
    8788:	e5f20001 	ldrb	r0, [r2, #1]!
    878c:	e1530000 	cmp	r3, r0
    8790:	1a000005 	bne	87ac <evalCommand+0xe4>
    8794:	e3530000 	cmp	r3, #0
    8798:	1afffff9 	bne	8784 <evalCommand+0xbc>
    879c:	e1a00005 	mov	r0, r5
    87a0:	e28dd0cc 	add	sp, sp, #204	; 0xcc
    87a4:	e8bd45f0 	pop	{r4, r5, r6, r7, r8, sl, lr}
    87a8:	e12fff1e 	bx	lr
    87ac:	e59f0064 	ldr	r0, [pc, #100]	; 8818 <evalCommand+0x150>
    87b0:	ebfffe60 	bl	8138 <uart_puts>
    87b4:	e1a02005 	mov	r2, r5
    87b8:	e1a0000a 	mov	r0, sl
    87bc:	e1a01006 	mov	r1, r6
    87c0:	eb0000c3 	bl	8ad4 <drawString>
    87c4:	e2855010 	add	r5, r5, #16
    87c8:	eafffff3 	b	879c <evalCommand+0xd4>
    87cc:	e3a0a065 	mov	sl, #101	; 0x65
    87d0:	e1a0400a 	mov	r4, sl
    87d4:	ebfffe79 	bl	81c0 <hexstring>
    87d8:	e7d8300a 	ldrb	r3, [r8, sl]
    87dc:	e28d10c8 	add	r1, sp, #200	; 0xc8
    87e0:	e0812004 	add	r2, r1, r4
    87e4:	e31300df 	tst	r3, #223	; 0xdf
    87e8:	e3a01000 	mov	r1, #0
    87ec:	e54210c8 	strb	r1, [r2, #-200]	; 0xc8
    87f0:	1affffd0 	bne	8738 <evalCommand+0x70>
    87f4:	e28da064 	add	sl, sp, #100	; 0x64
    87f8:	eaffffd9 	b	8764 <evalCommand+0x9c>
    87fc:	e3a0a001 	mov	sl, #1
    8800:	e1a0400a 	mov	r4, sl
    8804:	e1a0000e 	mov	r0, lr
    8808:	e1a0700d 	mov	r7, sp
    880c:	eafffff0 	b	87d4 <evalCommand+0x10c>
    8810:	00008ea0 	andeq	r8, r0, r0, lsr #29
    8814:	00008ea3 	andeq	r8, r0, r3, lsr #29
    8818:	00008eac 	andeq	r8, r0, ip, lsr #29

0000881c <abs>:
    881c:	e3500000 	cmp	r0, #0
    8820:	b2600000 	rsblt	r0, r0, #0
    8824:	e12fff1e 	bx	lr

00008828 <clrScreen>:
    8828:	e92d4010 	push	{r4, lr}
    882c:	e1804800 	orr	r4, r0, r0, lsl #16
    8830:	e59f003c 	ldr	r0, [pc, #60]	; 8874 <clrScreen+0x4c>
    8834:	ebfffdfc 	bl	802c <GET32>
    8838:	e2801a96 	add	r1, r0, #614400	; 0x96000
    883c:	e2802c05 	add	r2, r0, #1280	; 0x500
    8840:	e1a03000 	mov	r3, r0
    8844:	e5834000 	str	r4, [r3]
    8848:	e5834004 	str	r4, [r3, #4]
    884c:	e5834008 	str	r4, [r3, #8]
    8850:	e583400c 	str	r4, [r3, #12]
    8854:	e2833010 	add	r3, r3, #16
    8858:	e1520003 	cmp	r2, r3
    885c:	1afffff8 	bne	8844 <clrScreen+0x1c>
    8860:	e1520001 	cmp	r2, r1
    8864:	e1a00002 	mov	r0, r2
    8868:	1afffff3 	bne	883c <clrScreen+0x14>
    886c:	e8bd4010 	pop	{r4, lr}
    8870:	e12fff1e 	bx	lr
    8874:	40040020 	andmi	r0, r4, r0, lsr #32

00008878 <setPixel>:
    8878:	e3510e1e 	cmp	r1, #480	; 0x1e0
    887c:	b3500d0a 	cmplt	r0, #640	; 0x280
    8880:	e92d4070 	push	{r4, r5, r6, lr}
    8884:	e1a05000 	mov	r5, r0
    8888:	e1a04001 	mov	r4, r1
    888c:	e1a06002 	mov	r6, r2
    8890:	aa000007 	bge	88b4 <setPixel+0x3c>
    8894:	e59f0020 	ldr	r0, [pc, #32]	; 88bc <setPixel+0x44>
    8898:	ebfffde3 	bl	802c <GET32>
    889c:	e0844104 	add	r4, r4, r4, lsl #2
    88a0:	e0855384 	add	r5, r5, r4, lsl #7
    88a4:	e1a01806 	lsl	r1, r6, #16
    88a8:	e0800085 	add	r0, r0, r5, lsl #1
    88ac:	e1a01821 	lsr	r1, r1, #16
    88b0:	ebfffdd9 	bl	801c <PUT16>
    88b4:	e8bd4070 	pop	{r4, r5, r6, lr}
    88b8:	e12fff1e 	bx	lr
    88bc:	40040020 	andmi	r0, r4, r0, lsr #32

000088c0 <drawLine>:
    88c0:	e92d4ff0 	push	{r4, r5, r6, r7, r8, r9, sl, fp, lr}
    88c4:	e3500d0a 	cmp	r0, #640	; 0x280
    88c8:	e1a05000 	mov	r5, r0
    88cc:	c2405d0a 	subgt	r5, r0, #640	; 0x280
    88d0:	e3520d0a 	cmp	r2, #640	; 0x280
    88d4:	e1a08002 	mov	r8, r2
    88d8:	c2428d0a 	subgt	r8, r2, #640	; 0x280
    88dc:	e3510e1e 	cmp	r1, #480	; 0x1e0
    88e0:	e1a04001 	mov	r4, r1
    88e4:	c2414e1e 	subgt	r4, r1, #480	; 0x1e0
    88e8:	e3530e1e 	cmp	r3, #480	; 0x1e0
    88ec:	e1a0a003 	mov	sl, r3
    88f0:	e0659008 	rsb	r9, r5, r8
    88f4:	c243ae1e 	subgt	sl, r3, #480	; 0x1e0
    88f8:	e24dd01c 	sub	sp, sp, #28
    88fc:	e0293fc9 	eor	r3, r9, r9, asr #31
    8900:	e0433fc9 	sub	r3, r3, r9, asr #31
    8904:	e064700a 	rsb	r7, r4, sl
    8908:	e1550008 	cmp	r5, r8
    890c:	e58d3008 	str	r3, [sp, #8]
    8910:	a3e03000 	mvnge	r3, #0
    8914:	b3a03001 	movlt	r3, #1
    8918:	e3570000 	cmp	r7, #0
    891c:	b2677000 	rsblt	r7, r7, #0
    8920:	e154000a 	cmp	r4, sl
    8924:	e58d300c 	str	r3, [sp, #12]
    8928:	a3e03000 	mvnge	r3, #0
    892c:	b3a03001 	movlt	r3, #1
    8930:	e58d3010 	str	r3, [sp, #16]
    8934:	e59d3008 	ldr	r3, [sp, #8]
    8938:	e59d1040 	ldr	r1, [sp, #64]	; 0x40
    893c:	e1530007 	cmp	r3, r7
    8940:	c59d3008 	ldrgt	r3, [sp, #8]
    8944:	e1a01801 	lsl	r1, r1, #16
    8948:	d0876fa7 	addle	r6, r7, r7, lsr #31
    894c:	c1a060c3 	asrgt	r6, r3, #1
    8950:	e1a01821 	lsr	r1, r1, #16
    8954:	e59d3008 	ldr	r3, [sp, #8]
    8958:	d1a060c6 	asrle	r6, r6, #1
    895c:	e59f209c 	ldr	r2, [pc, #156]	; 8a00 <drawLine+0x140>
    8960:	e59f909c 	ldr	r9, [pc, #156]	; 8a04 <drawLine+0x144>
    8964:	e58d1014 	str	r1, [sp, #20]
    8968:	d2666000 	rsble	r6, r6, #0
    896c:	e263b000 	rsb	fp, r3, #0
    8970:	e1540002 	cmp	r4, r2
    8974:	d1550009 	cmple	r5, r9
    8978:	ca000008 	bgt	89a0 <drawLine+0xe0>
    897c:	e59f0084 	ldr	r0, [pc, #132]	; 8a08 <drawLine+0x148>
    8980:	e58d2004 	str	r2, [sp, #4]
    8984:	ebfffda8 	bl	802c <GET32>
    8988:	e0843104 	add	r3, r4, r4, lsl #2
    898c:	e0853383 	add	r3, r5, r3, lsl #7
    8990:	e0800083 	add	r0, r0, r3, lsl #1
    8994:	e59d1014 	ldr	r1, [sp, #20]
    8998:	ebfffd9f 	bl	801c <PUT16>
    899c:	e59d2004 	ldr	r2, [sp, #4]
    89a0:	e154000a 	cmp	r4, sl
    89a4:	01550008 	cmpeq	r5, r8
    89a8:	0a000011 	beq	89f4 <drawLine+0x134>
    89ac:	e156000b 	cmp	r6, fp
    89b0:	c59d100c 	ldrgt	r1, [sp, #12]
    89b4:	c0673006 	rsbgt	r3, r7, r6
    89b8:	d1a03006 	movle	r3, r6
    89bc:	c0855001 	addgt	r5, r5, r1
    89c0:	e1560007 	cmp	r6, r7
    89c4:	a1a06003 	movge	r6, r3
    89c8:	aaffffe8 	bge	8970 <drawLine+0xb0>
    89cc:	e59d1008 	ldr	r1, [sp, #8]
    89d0:	e0836001 	add	r6, r3, r1
    89d4:	e59d3010 	ldr	r3, [sp, #16]
    89d8:	e0844003 	add	r4, r4, r3
    89dc:	e1540002 	cmp	r4, r2
    89e0:	d1550009 	cmple	r5, r9
    89e4:	daffffe4 	ble	897c <drawLine+0xbc>
    89e8:	e154000a 	cmp	r4, sl
    89ec:	01550008 	cmpeq	r5, r8
    89f0:	1affffed 	bne	89ac <drawLine+0xec>
    89f4:	e28dd01c 	add	sp, sp, #28
    89f8:	e8bd4ff0 	pop	{r4, r5, r6, r7, r8, r9, sl, fp, lr}
    89fc:	e12fff1e 	bx	lr
    8a00:	000001df 	ldrdeq	r0, [r0], -pc	; <UNPREDICTABLE>
    8a04:	0000027f 	andeq	r0, r0, pc, ror r2
    8a08:	40040020 	andmi	r0, r4, r0, lsr #32

00008a0c <delChar>:
    8a0c:	e92d4ff0 	push	{r4, r5, r6, r7, r8, r9, sl, fp, lr}
    8a10:	e2803007 	add	r3, r0, #7
    8a14:	e24dd00c 	sub	sp, sp, #12
    8a18:	e081a101 	add	sl, r1, r1, lsl #2
    8a1c:	e58d3004 	str	r3, [sp, #4]
    8a20:	e59f8078 	ldr	r8, [pc, #120]	; 8aa0 <delChar+0x94>
    8a24:	e1a07001 	mov	r7, r1
    8a28:	e281900f 	add	r9, r1, #15
    8a2c:	e1a0a38a 	lsl	sl, sl, #7
    8a30:	e1a06000 	mov	r6, r0
    8a34:	e59f3068 	ldr	r3, [pc, #104]	; 8aa4 <delChar+0x98>
    8a38:	e1560003 	cmp	r6, r3
    8a3c:	c3a0b000 	movgt	fp, #0
    8a40:	d3a0b001 	movle	fp, #1
    8a44:	e086500a 	add	r5, r6, sl
    8a48:	e1a04007 	mov	r4, r7
    8a4c:	e1540008 	cmp	r4, r8
    8a50:	c3a03000 	movgt	r3, #0
    8a54:	d20b3001 	andle	r3, fp, #1
    8a58:	e3530000 	cmp	r3, #0
    8a5c:	e2844001 	add	r4, r4, #1
    8a60:	0a000004 	beq	8a78 <delChar+0x6c>
    8a64:	e59f003c 	ldr	r0, [pc, #60]	; 8aa8 <delChar+0x9c>
    8a68:	ebfffd6f 	bl	802c <GET32>
    8a6c:	e3a01000 	mov	r1, #0
    8a70:	e0800085 	add	r0, r0, r5, lsl #1
    8a74:	ebfffd68 	bl	801c <PUT16>
    8a78:	e1540009 	cmp	r4, r9
    8a7c:	e2855d0a 	add	r5, r5, #640	; 0x280
    8a80:	dafffff1 	ble	8a4c <delChar+0x40>
    8a84:	e59d3004 	ldr	r3, [sp, #4]
    8a88:	e2866001 	add	r6, r6, #1
    8a8c:	e1560003 	cmp	r6, r3
    8a90:	daffffe7 	ble	8a34 <delChar+0x28>
    8a94:	e28dd00c 	add	sp, sp, #12
    8a98:	e8bd4ff0 	pop	{r4, r5, r6, r7, r8, r9, sl, fp, lr}
    8a9c:	e12fff1e 	bx	lr
    8aa0:	000001df 	ldrdeq	r0, [r0], -pc	; <UNPREDICTABLE>
    8aa4:	0000027f 	andeq	r0, r0, pc, ror r2
    8aa8:	40040020 	andmi	r0, r4, r0, lsr #32

00008aac <drawChar>:
    8aac:	e350007f 	cmp	r0, #127	; 0x7f
    8ab0:	e92d4008 	push	{r3, lr}
    8ab4:	0a000002 	beq	8ac4 <drawChar+0x18>
    8ab8:	ebfffec4 	bl	85d0 <DrawChar>
    8abc:	e8bd4008 	pop	{r3, lr}
    8ac0:	e12fff1e 	bx	lr
    8ac4:	e1a00001 	mov	r0, r1
    8ac8:	e1a01002 	mov	r1, r2
    8acc:	e8bd4008 	pop	{r3, lr}
    8ad0:	eaffffcd 	b	8a0c <delChar>

00008ad4 <drawString>:
    8ad4:	e92d40f8 	push	{r3, r4, r5, r6, r7, lr}
    8ad8:	e1a05000 	mov	r5, r0
    8adc:	e5d00000 	ldrb	r0, [r0]
    8ae0:	e3500000 	cmp	r0, #0
    8ae4:	e1a07001 	mov	r7, r1
    8ae8:	e1a06002 	mov	r6, r2
    8aec:	0a00000b 	beq	8b20 <drawString+0x4c>
    8af0:	e1a04001 	mov	r4, r1
    8af4:	e350000a 	cmp	r0, #10
    8af8:	e1a01004 	mov	r1, r4
    8afc:	e1a02006 	mov	r2, r6
    8b00:	01a04007 	moveq	r4, r7
    8b04:	02866010 	addeq	r6, r6, #16
    8b08:	0a000001 	beq	8b14 <drawString+0x40>
    8b0c:	ebfffeaf 	bl	85d0 <DrawChar>
    8b10:	e2844008 	add	r4, r4, #8
    8b14:	e5f50001 	ldrb	r0, [r5, #1]!
    8b18:	e3500000 	cmp	r0, #0
    8b1c:	1afffff4 	bne	8af4 <drawString+0x20>
    8b20:	e8bd40f8 	pop	{r3, r4, r5, r6, r7, lr}
    8b24:	e12fff1e 	bx	lr

00008b28 <drawRect>:
    8b28:	e92d4ff0 	push	{r4, r5, r6, r7, r8, r9, sl, fp, lr}
    8b2c:	e0915003 	adds	r5, r1, r3
    8b30:	e24dd00c 	sub	sp, sp, #12
    8b34:	e58d1004 	str	r1, [sp, #4]
    8b38:	e1a0b000 	mov	fp, r0
    8b3c:	2a00001f 	bcs	8bc0 <drawRect+0x98>
    8b40:	e59d7030 	ldr	r7, [sp, #48]	; 0x30
    8b44:	e59f9080 	ldr	r9, [pc, #128]	; 8bcc <drawRect+0xa4>
    8b48:	e1a07807 	lsl	r7, r7, #16
    8b4c:	e0808002 	add	r8, r0, r2
    8b50:	e1a07827 	lsr	r7, r7, #16
    8b54:	e158000b 	cmp	r8, fp
    8b58:	3a000014 	bcc	8bb0 <drawRect+0x88>
    8b5c:	e59f306c 	ldr	r3, [pc, #108]	; 8bd0 <drawRect+0xa8>
    8b60:	e0856105 	add	r6, r5, r5, lsl #2
    8b64:	e1550003 	cmp	r5, r3
    8b68:	c3a0a000 	movgt	sl, #0
    8b6c:	d3a0a001 	movle	sl, #1
    8b70:	e1a06386 	lsl	r6, r6, #7
    8b74:	e1a04008 	mov	r4, r8
    8b78:	e1540009 	cmp	r4, r9
    8b7c:	c3a02000 	movgt	r2, #0
    8b80:	d20a2001 	andle	r2, sl, #1
    8b84:	e3520000 	cmp	r2, #0
    8b88:	0a000005 	beq	8ba4 <drawRect+0x7c>
    8b8c:	e59f0040 	ldr	r0, [pc, #64]	; 8bd4 <drawRect+0xac>
    8b90:	ebfffd25 	bl	802c <GET32>
    8b94:	e0842006 	add	r2, r4, r6
    8b98:	e0800082 	add	r0, r0, r2, lsl #1
    8b9c:	e1a01007 	mov	r1, r7
    8ba0:	ebfffd1d 	bl	801c <PUT16>
    8ba4:	e2444001 	sub	r4, r4, #1
    8ba8:	e154000b 	cmp	r4, fp
    8bac:	2afffff1 	bcs	8b78 <drawRect+0x50>
    8bb0:	e59d1004 	ldr	r1, [sp, #4]
    8bb4:	e2455001 	sub	r5, r5, #1
    8bb8:	e1550001 	cmp	r5, r1
    8bbc:	2affffe4 	bcs	8b54 <drawRect+0x2c>
    8bc0:	e28dd00c 	add	sp, sp, #12
    8bc4:	e8bd4ff0 	pop	{r4, r5, r6, r7, r8, r9, sl, fp, lr}
    8bc8:	e12fff1e 	bx	lr
    8bcc:	0000027f 	andeq	r0, r0, pc, ror r2
    8bd0:	000001df 	ldrdeq	r0, [r0], -pc	; <UNPREDICTABLE>
    8bd4:	40040020 	andmi	r0, r4, r0, lsr #32

00008bd8 <drawTriangle>:
    8bd8:	e92d4ff0 	push	{r4, r5, r6, r7, r8, r9, sl, fp, lr}
    8bdc:	e24dd03c 	sub	sp, sp, #60	; 0x3c
    8be0:	e1a00b00 	lsl	r0, r0, #22
    8be4:	e59dc060 	ldr	ip, [sp, #96]	; 0x60
    8be8:	e1a00b20 	lsr	r0, r0, #22
    8bec:	e1a02b02 	lsl	r2, r2, #22
    8bf0:	e1a02b22 	lsr	r2, r2, #22
    8bf4:	e3500d0a 	cmp	r0, #640	; 0x280
    8bf8:	e1a0cb0c 	lsl	ip, ip, #22
    8bfc:	a2400d0a 	subge	r0, r0, #640	; 0x280
    8c00:	e1a0cb2c 	lsr	ip, ip, #22
    8c04:	e3520d0a 	cmp	r2, #640	; 0x280
    8c08:	e1a01b81 	lsl	r1, r1, #23
    8c0c:	e59d5064 	ldr	r5, [sp, #100]	; 0x64
    8c10:	e1a01ba1 	lsr	r1, r1, #23
    8c14:	a2422d0a 	subge	r2, r2, #640	; 0x280
    8c18:	e1a03b83 	lsl	r3, r3, #23
    8c1c:	e35c0d0a 	cmp	ip, #640	; 0x280
    8c20:	e1a04ba3 	lsr	r4, r3, #23
    8c24:	a24ccd0a 	subge	ip, ip, #640	; 0x280
    8c28:	e1a05b85 	lsl	r5, r5, #23
    8c2c:	e3510e1e 	cmp	r1, #480	; 0x1e0
    8c30:	a2400e1e 	subge	r0, r0, #480	; 0x1e0
    8c34:	e1a08ba5 	lsr	r8, r5, #23
    8c38:	e3540e1e 	cmp	r4, #480	; 0x1e0
    8c3c:	a2400e1e 	subge	r0, r0, #480	; 0x1e0
    8c40:	e3580e1e 	cmp	r8, #480	; 0x1e0
    8c44:	a2400e1e 	subge	r0, r0, #480	; 0x1e0
    8c48:	e0623000 	rsb	r3, r2, r0
    8c4c:	e58d302c 	str	r3, [sp, #44]	; 0x2c
    8c50:	e0030391 	mul	r3, r1, r3
    8c54:	e06c5002 	rsb	r5, ip, r2
    8c58:	e58d5030 	str	r5, [sp, #48]	; 0x30
    8c5c:	e0050594 	mul	r5, r4, r5
    8c60:	e0689004 	rsb	r9, r8, r4
    8c64:	e58d301c 	str	r3, [sp, #28]
    8c68:	e0030992 	mul	r3, r2, r9
    8c6c:	e061b008 	rsb	fp, r1, r8
    8c70:	e064a001 	rsb	sl, r4, r1
    8c74:	e58d5004 	str	r5, [sp, #4]
    8c78:	e0050b9c 	mul	r5, ip, fp
    8c7c:	e0070a90 	mul	r7, r0, sl
    8c80:	e060600c 	rsb	r6, r0, ip
    8c84:	e58d3028 	str	r3, [sp, #40]	; 0x28
    8c88:	e1a03006 	mov	r3, r6
    8c8c:	e0030398 	mul	r3, r8, r3
    8c90:	e58d5024 	str	r5, [sp, #36]	; 0x24
    8c94:	e15c0002 	cmp	ip, r2
    8c98:	31a0500c 	movcc	r5, ip
    8c9c:	21a05002 	movcs	r5, r2
    8ca0:	e58d7008 	str	r7, [sp, #8]
    8ca4:	e1550000 	cmp	r5, r0
    8ca8:	21a05000 	movcs	r5, r0
    8cac:	e58d5020 	str	r5, [sp, #32]
    8cb0:	e58d6034 	str	r6, [sp, #52]	; 0x34
    8cb4:	e59d501c 	ldr	r5, [sp, #28]
    8cb8:	e59d6008 	ldr	r6, [sp, #8]
    8cbc:	e0656006 	rsb	r6, r5, r6
    8cc0:	e58d6018 	str	r6, [sp, #24]
    8cc4:	e59d5004 	ldr	r5, [sp, #4]
    8cc8:	e59d6028 	ldr	r6, [sp, #40]	; 0x28
    8ccc:	e0656006 	rsb	r6, r5, r6
    8cd0:	e58d601c 	str	r6, [sp, #28]
    8cd4:	e59d6024 	ldr	r6, [sp, #36]	; 0x24
    8cd8:	e0633006 	rsb	r3, r3, r6
    8cdc:	e58d3024 	str	r3, [sp, #36]	; 0x24
    8ce0:	e1540001 	cmp	r4, r1
    8ce4:	31a07004 	movcc	r7, r4
    8ce8:	21a07001 	movcs	r7, r1
    8cec:	e59d5018 	ldr	r5, [sp, #24]
    8cf0:	e59d302c 	ldr	r3, [sp, #44]	; 0x2c
    8cf4:	e1570008 	cmp	r7, r8
    8cf8:	21a07008 	movcs	r7, r8
    8cfc:	e0235397 	mla	r3, r7, r3, r5
    8d00:	e58d3018 	str	r3, [sp, #24]
    8d04:	e59d3020 	ldr	r3, [sp, #32]
    8d08:	e0060a93 	mul	r6, r3, sl
    8d0c:	e59d5030 	ldr	r5, [sp, #48]	; 0x30
    8d10:	e58d6008 	str	r6, [sp, #8]
    8d14:	e59d601c 	ldr	r6, [sp, #28]
    8d18:	e0256597 	mla	r5, r7, r5, r6
    8d1c:	e59d6024 	ldr	r6, [sp, #36]	; 0x24
    8d20:	e58d501c 	str	r5, [sp, #28]
    8d24:	e0050993 	mul	r5, r3, r9
    8d28:	e59d3034 	ldr	r3, [sp, #52]	; 0x34
    8d2c:	e0236397 	mla	r3, r7, r3, r6
    8d30:	e59d6020 	ldr	r6, [sp, #32]
    8d34:	e58d3024 	str	r3, [sp, #36]	; 0x24
    8d38:	e0030b96 	mul	r3, r6, fp
    8d3c:	e1540001 	cmp	r4, r1
    8d40:	21a01004 	movcs	r1, r4
    8d44:	e15c0002 	cmp	ip, r2
    8d48:	21a0200c 	movcs	r2, ip
    8d4c:	e1510008 	cmp	r1, r8
    8d50:	31a01008 	movcc	r1, r8
    8d54:	e58d1028 	str	r1, [sp, #40]	; 0x28
    8d58:	e1520000 	cmp	r2, r0
    8d5c:	21a08002 	movcs	r8, r2
    8d60:	31a08000 	movcc	r8, r0
    8d64:	e59d0018 	ldr	r0, [sp, #24]
    8d68:	e1570001 	cmp	r7, r1
    8d6c:	e59d1008 	ldr	r1, [sp, #8]
    8d70:	e59d601c 	ldr	r6, [sp, #28]
    8d74:	e0612000 	rsb	r2, r1, r0
    8d78:	e59d1024 	ldr	r1, [sp, #36]	; 0x24
    8d7c:	e0650006 	rsb	r0, r5, r6
    8d80:	e063c001 	rsb	ip, r3, r1
    8d84:	aa00003c 	bge	8e7c <drawTriangle+0x2a4>
    8d88:	e59d1068 	ldr	r1, [sp, #104]	; 0x68
    8d8c:	e1a01801 	lsl	r1, r1, #16
    8d90:	e0873107 	add	r3, r7, r7, lsl #2
    8d94:	e1a01821 	lsr	r1, r1, #16
    8d98:	e1a03383 	lsl	r3, r3, #7
    8d9c:	e58d1024 	str	r1, [sp, #36]	; 0x24
    8da0:	e58d3018 	str	r3, [sp, #24]
    8da4:	e58dc01c 	str	ip, [sp, #28]
    8da8:	e1a03007 	mov	r3, r7
    8dac:	e1a0c000 	mov	ip, r0
    8db0:	e59d5020 	ldr	r5, [sp, #32]
    8db4:	e1550008 	cmp	r5, r8
    8db8:	aa000020 	bge	8e40 <drawTriangle+0x268>
    8dbc:	e59d701c 	ldr	r7, [sp, #28]
    8dc0:	e59d4020 	ldr	r4, [sp, #32]
    8dc4:	e1a0600c 	mov	r6, ip
    8dc8:	e1a05002 	mov	r5, r2
    8dcc:	e3560000 	cmp	r6, #0
    8dd0:	a3550000 	cmpge	r5, #0
    8dd4:	ba000013 	blt	8e28 <drawTriangle+0x250>
    8dd8:	e3570000 	cmp	r7, #0
    8ddc:	da000011 	ble	8e28 <drawTriangle+0x250>
    8de0:	e59f00a0 	ldr	r0, [pc, #160]	; 8e88 <drawTriangle+0x2b0>
    8de4:	e59f10a0 	ldr	r1, [pc, #160]	; 8e8c <drawTriangle+0x2b4>
    8de8:	e1540000 	cmp	r4, r0
    8dec:	d1530001 	cmple	r3, r1
    8df0:	ca00000c 	bgt	8e28 <drawTriangle+0x250>
    8df4:	e59f0094 	ldr	r0, [pc, #148]	; 8e90 <drawTriangle+0x2b8>
    8df8:	e58d2010 	str	r2, [sp, #16]
    8dfc:	e58d300c 	str	r3, [sp, #12]
    8e00:	e58dc014 	str	ip, [sp, #20]
    8e04:	ebfffc88 	bl	802c <GET32>
    8e08:	e59de018 	ldr	lr, [sp, #24]
    8e0c:	e084100e 	add	r1, r4, lr
    8e10:	e0800081 	add	r0, r0, r1, lsl #1
    8e14:	e59d1024 	ldr	r1, [sp, #36]	; 0x24
    8e18:	ebfffc7f 	bl	801c <PUT16>
    8e1c:	e59dc014 	ldr	ip, [sp, #20]
    8e20:	e59d300c 	ldr	r3, [sp, #12]
    8e24:	e59d2010 	ldr	r2, [sp, #16]
    8e28:	e2844001 	add	r4, r4, #1
    8e2c:	e1580004 	cmp	r8, r4
    8e30:	e06a5005 	rsb	r5, sl, r5
    8e34:	e0696006 	rsb	r6, r9, r6
    8e38:	e06b7007 	rsb	r7, fp, r7
    8e3c:	1affffe2 	bne	8dcc <drawTriangle+0x1f4>
    8e40:	e59d6018 	ldr	r6, [sp, #24]
    8e44:	e59d702c 	ldr	r7, [sp, #44]	; 0x2c
    8e48:	e59d5028 	ldr	r5, [sp, #40]	; 0x28
    8e4c:	e2866d0a 	add	r6, r6, #640	; 0x280
    8e50:	e2833001 	add	r3, r3, #1
    8e54:	e58d6018 	str	r6, [sp, #24]
    8e58:	e0822007 	add	r2, r2, r7
    8e5c:	e59d601c 	ldr	r6, [sp, #28]
    8e60:	e59d7034 	ldr	r7, [sp, #52]	; 0x34
    8e64:	e1550003 	cmp	r5, r3
    8e68:	e59d5030 	ldr	r5, [sp, #48]	; 0x30
    8e6c:	e0866007 	add	r6, r6, r7
    8e70:	e08cc005 	add	ip, ip, r5
    8e74:	e58d601c 	str	r6, [sp, #28]
    8e78:	1affffcc 	bne	8db0 <drawTriangle+0x1d8>
    8e7c:	e28dd03c 	add	sp, sp, #60	; 0x3c
    8e80:	e8bd4ff0 	pop	{r4, r5, r6, r7, r8, r9, sl, fp, lr}
    8e84:	e12fff1e 	bx	lr
    8e88:	0000027f 	andeq	r0, r0, pc, ror r2
    8e8c:	000001df 	ldrdeq	r0, [r0], -pc	; <UNPREDICTABLE>
    8e90:	40040020 	andmi	r0, r4, r0, lsr #32

Disassembly of section .rodata.str1.4:

00008e94 <.rodata.str1.4>:
    8e94:	656d6974 	strbvs	r6, [sp, #-2420]!	; 0x974
    8e98:	6d617473 	cfstrdvs	mvd7, [r1, #-460]!	; 0xfffffe34
    8e9c:	00203a70 	eoreq	r3, r0, r0, ror sl
    8ea0:	00000a0d 	andeq	r0, r0, sp, lsl #20
    8ea4:	6f686365 	svcvs	0x00686365
    8ea8:	00000000 	andeq	r0, r0, r0
    8eac:	6f686365 	svcvs	0x00686365
    8eb0:	0d676e69 	stcleq	14, cr6, [r7, #-420]!	; 0xfffffe5c
    8eb4:	0000000a 	andeq	r0, r0, sl

Disassembly of section .data:

00008ec0 <foreColor>:
    8ec0:	0000ffff 	strdeq	pc, [r0], -pc	; <UNPREDICTABLE>

00008ec4 <graphicsAddress>:
	...

00008ed0 <font>:
	...
    90e0:	18180000 	ldmdane	r8, {}	; <UNPREDICTABLE>
    90e4:	00181818 	andseq	r1, r8, r8, lsl r8
    90e8:	00180000 	andseq	r0, r8, r0
    90ec:	00000000 	andeq	r0, r0, r0
    90f0:	24242400 	strtcs	r2, [r4], #-1024	; 0x400
    90f4:	00000024 	andeq	r0, r0, r4, lsr #32
	...
    9100:	24480000 	strbcs	r0, [r8], #-0
    9104:	7f2424fe 	svcvc	0x002424fe
    9108:	00121212 	andseq	r1, r2, r2, lsl r2
    910c:	00000000 	andeq	r0, r0, r0
    9110:	523c0000 	eorspl	r0, ip, #0
    9114:	503c1212 	eorspl	r1, ip, r2, lsl r2
    9118:	003e5250 	eorseq	r5, lr, r0, asr r2
    911c:	00000000 	andeq	r0, r0, r0
    9120:	49470000 	stmdbmi	r7, {}^	; <UNPREDICTABLE>
    9124:	e8101729 	ldmda	r0, {r0, r3, r5, r8, r9, sl, ip}
    9128:	00e29294 	smlaleq	r9, r2, r4, r2
    912c:	00000000 	andeq	r0, r0, r0
    9130:	243c0000 	ldrtcs	r0, [ip], #-0
    9134:	4b4e1c24 	blmi	13901cc <multiplylookup+0x1386afc>
    9138:	00de2331 	sbcseq	r2, lr, r1, lsr r3
    913c:	00000000 	andeq	r0, r0, r0
    9140:	18181800 	ldmdane	r8, {fp, ip}
    9144:	00000008 	andeq	r0, r0, r8
	...
    9150:	08101000 	ldmdaeq	r0, {ip}
    9154:	04040c08 	streq	r0, [r4], #-3080	; 0xc08
    9158:	08080c04 	stmdaeq	r8, {r2, sl, fp}
    915c:	00001010 	andeq	r1, r0, r0, lsl r0
    9160:	10080800 	andne	r0, r8, r0, lsl #16
    9164:	20203010 	eorcs	r3, r0, r0, lsl r0
    9168:	10103020 	andsne	r3, r0, r0, lsr #32
    916c:	00000818 	andeq	r0, r0, r8, lsl r8
    9170:	182c0000 	stmdane	ip!, {}	; <UNPREDICTABLE>
    9174:	00002418 	andeq	r2, r0, r8, lsl r4
	...
    9184:	087e0808 	ldmdaeq	lr!, {r3, fp}^
    9188:	00000008 	andeq	r0, r0, r8
	...
    9198:	040c0800 	streq	r0, [ip], #-2048	; 0x800
    919c:	00000004 	andeq	r0, r0, r4
    91a0:	00000000 	andeq	r0, r0, r0
    91a4:	3c000000 	stccc	0, cr0, [r0], {-0}
	...
    91b8:	00181800 	andseq	r1, r8, r0, lsl #16
    91bc:	00000000 	andeq	r0, r0, r0
    91c0:	20204000 	eorcs	r4, r0, r0
    91c4:	08081010 	stmdaeq	r8, {r4, ip}
    91c8:	00020404 	andeq	r0, r2, r4, lsl #8
    91cc:	00000000 	andeq	r0, r0, r0
    91d0:	663c0000 	ldrtvs	r0, [ip], -r0
    91d4:	425a4242 	subsmi	r4, sl, #536870916	; 0x20000004
    91d8:	003c6642 	eorseq	r6, ip, r2, asr #12
    91dc:	00000000 	andeq	r0, r0, r0
    91e0:	16180000 	ldrne	r0, [r8], -r0
    91e4:	10101010 	andsne	r1, r0, r0, lsl r0
    91e8:	007e1010 	rsbseq	r1, lr, r0, lsl r0
    91ec:	00000000 	andeq	r0, r0, r0
    91f0:	623c0000 	eorsvs	r0, ip, #0
    91f4:	18306040 	ldmdane	r0!, {r6, sp, lr}
    91f8:	007e060c 	rsbseq	r0, lr, ip, lsl #12
    91fc:	00000000 	andeq	r0, r0, r0
    9200:	623c0000 	eorsvs	r0, ip, #0
    9204:	60186040 	andsvs	r6, r8, r0, asr #32
    9208:	003c4240 	eorseq	r4, ip, r0, asr #4
    920c:	00000000 	andeq	r0, r0, r0
    9210:	30300000 	eorscc	r0, r0, r0
    9214:	22242428 	eorcs	r2, r4, #40, 8	; 0x28000000
    9218:	0020207e 	eoreq	r2, r0, lr, ror r0
    921c:	00000000 	andeq	r0, r0, r0
    9220:	027e0000 	rsbseq	r0, lr, #0
    9224:	40663a02 	rsbmi	r3, r6, r2, lsl #20
    9228:	003c6240 	eorseq	r6, ip, r0, asr #4
    922c:	00000000 	andeq	r0, r0, r0
    9230:	44380000 	ldrtmi	r0, [r8], #-0
    9234:	42663a02 	rsbmi	r3, r6, #8192	; 0x2000
    9238:	003c6442 	eorseq	r6, ip, r2, asr #8
    923c:	00000000 	andeq	r0, r0, r0
    9240:	407e0000 	rsbsmi	r0, lr, r0
    9244:	18101020 	ldmdane	r0, {r5, ip}
    9248:	00080808 	andeq	r0, r8, r8, lsl #16
    924c:	00000000 	andeq	r0, r0, r0
    9250:	663c0000 	ldrtvs	r0, [ip], -r0
    9254:	66186642 	ldrvs	r6, [r8], -r2, asr #12
    9258:	003c4242 	eorseq	r4, ip, r2, asr #4
    925c:	00000000 	andeq	r0, r0, r0
    9260:	663c0000 	ldrtvs	r0, [ip], -r0
    9264:	5c664242 	sfmpl	f4, 2, [r6], #-264	; 0xfffffef8
    9268:	001c2240 	andseq	r2, ip, r0, asr #4
	...
    9274:	00001818 	andeq	r1, r0, r8, lsl r8
    9278:	00181800 	andseq	r1, r8, r0, lsl #16
	...
    9284:	00001818 	andeq	r1, r0, r8, lsl r8
    9288:	08081800 	stmdaeq	r8, {fp, ip}
    928c:	00000004 	andeq	r0, r0, r4
    9290:	40000000 	andmi	r0, r0, r0
    9294:	0c020c30 	stceq	12, cr0, [r2], {48}	; 0x30
    9298:	00004030 	andeq	r4, r0, r0, lsr r0
	...
    92a4:	00007e00 	andeq	r7, r0, r0, lsl #28
    92a8:	0000007e 	andeq	r0, r0, lr, ror r0
    92ac:	00000000 	andeq	r0, r0, r0
    92b0:	02000000 	andeq	r0, r0, #0
    92b4:	3040300c 	subcc	r3, r0, ip
    92b8:	0000020c 	andeq	r0, r0, ip, lsl #4
    92bc:	00000000 	andeq	r0, r0, r0
    92c0:	623c0000 	eorsvs	r0, ip, #0
    92c4:	18204042 	stmdane	r0!, {r1, r6, lr}
    92c8:	00080008 	andeq	r0, r8, r8
    92cc:	00000000 	andeq	r0, r0, r0
    92d0:	42443800 	submi	r3, r4, #0, 16
    92d4:	a5a5a59a 	strge	sl, [r5, #1434]!	; 0x59a
    92d8:	42026d55 	andmi	r6, r2, #5440	; 0x1540
    92dc:	0000003c 	andeq	r0, r0, ip, lsr r0
    92e0:	18180000 	ldmdane	r8, {}	; <UNPREDICTABLE>
    92e4:	7e242424 	cdpvc	4, 2, cr2, cr4, cr4, {1}
    92e8:	00814242 	addeq	r4, r1, r2, asr #4
    92ec:	00000000 	andeq	r0, r0, r0
    92f0:	623e0000 	eorsvs	r0, lr, #0
    92f4:	423e6242 	eorsmi	r6, lr, #536870916	; 0x20000004
    92f8:	003e4242 	eorseq	r4, lr, r2, asr #4
    92fc:	00000000 	andeq	r0, r0, r0
    9300:	66380000 	ldrtvs	r0, [r8], -r0
    9304:	02020242 	andeq	r0, r2, #536870916	; 0x20000004
    9308:	00384442 	eorseq	r4, r8, r2, asr #8
    930c:	00000000 	andeq	r0, r0, r0
    9310:	621e0000 	andsvs	r0, lr, #0
    9314:	42424242 	submi	r4, r2, #536870916	; 0x20000004
    9318:	003e6242 	eorseq	r6, lr, r2, asr #4
    931c:	00000000 	andeq	r0, r0, r0
    9320:	027e0000 	rsbseq	r0, lr, #0
    9324:	027e0202 	rsbseq	r0, lr, #536870912	; 0x20000000
    9328:	007e0202 	rsbseq	r0, lr, r2, lsl #4
    932c:	00000000 	andeq	r0, r0, r0
    9330:	027e0000 	rsbseq	r0, lr, #0
    9334:	027e0202 	rsbseq	r0, lr, #536870912	; 0x20000000
    9338:	00020202 	andeq	r0, r2, r2, lsl #4
    933c:	00000000 	andeq	r0, r0, r0
    9340:	46380000 	ldrtmi	r0, [r8], -r0
    9344:	42720202 	rsbsmi	r0, r2, #536870912	; 0x20000000
    9348:	003c4642 	eorseq	r4, ip, r2, asr #12
    934c:	00000000 	andeq	r0, r0, r0
    9350:	42420000 	submi	r0, r2, #0
    9354:	427e4242 	rsbsmi	r4, lr, #536870916	; 0x20000004
    9358:	00424242 	subeq	r4, r2, r2, asr #4
    935c:	00000000 	andeq	r0, r0, r0
    9360:	187e0000 	ldmdane	lr!, {}^	; <UNPREDICTABLE>
    9364:	18181818 	ldmdane	r8, {r3, r4, fp, ip}
    9368:	007e1818 	rsbseq	r1, lr, r8, lsl r8
    936c:	00000000 	andeq	r0, r0, r0
    9370:	20380000 	eorscs	r0, r8, r0
    9374:	20202020 	eorcs	r2, r0, r0, lsr #32
    9378:	001c2622 	andseq	r2, ip, r2, lsr #12
    937c:	00000000 	andeq	r0, r0, r0
    9380:	22420000 	subcs	r0, r2, #0
    9384:	121e0a12 	andsne	r0, lr, #73728	; 0x12000
    9388:	00c24222 	sbceq	r4, r2, r2, lsr #4
    938c:	00000000 	andeq	r0, r0, r0
    9390:	04040000 	streq	r0, [r4], #-0
    9394:	04040404 	streq	r0, [r4], #-1028	; 0x404
    9398:	007c0404 	rsbseq	r0, ip, r4, lsl #8
    939c:	00000000 	andeq	r0, r0, r0
    93a0:	66460000 	strbvs	r0, [r6], -r0
    93a4:	5a5a5a66 	bpl	169fd44 <multiplylookup+0x1696674>
    93a8:	00424242 	subeq	r4, r2, r2, asr #4
    93ac:	00000000 	andeq	r0, r0, r0
    93b0:	46460000 	strbmi	r0, [r6], -r0
    93b4:	525a4a4a 	subspl	r4, sl, #303104	; 0x4a000
    93b8:	00626252 	rsbeq	r6, r2, r2, asr r2
    93bc:	00000000 	andeq	r0, r0, r0
    93c0:	663c0000 	ldrtvs	r0, [ip], -r0
    93c4:	42424242 	submi	r4, r2, #536870916	; 0x20000004
    93c8:	003c6642 	eorseq	r6, ip, r2, asr #12
    93cc:	00000000 	andeq	r0, r0, r0
    93d0:	423e0000 	eorsmi	r0, lr, #0
    93d4:	3e624242 	cdpcc	2, 6, cr4, cr2, cr2, {2}
    93d8:	00020202 	andeq	r0, r2, r2, lsl #4
    93dc:	00000000 	andeq	r0, r0, r0
    93e0:	663c0000 	ldrtvs	r0, [ip], -r0
    93e4:	42424242 	submi	r4, r2, #536870916	; 0x20000004
    93e8:	103c6642 	eorsne	r6, ip, r2, asr #12
    93ec:	00000060 	andeq	r0, r0, r0, rrx
    93f0:	423e0000 	eorsmi	r0, lr, #0
    93f4:	123e4242 	eorsne	r4, lr, #536870916	; 0x20000004
    93f8:	00426222 	subeq	r6, r2, r2, lsr #4
    93fc:	00000000 	andeq	r0, r0, r0
    9400:	423c0000 	eorsmi	r0, ip, #0
    9404:	40380602 	eorsmi	r0, r8, r2, lsl #12
    9408:	003c4240 	eorseq	r4, ip, r0, asr #4
    940c:	00000000 	andeq	r0, r0, r0
    9410:	187e0000 	ldmdane	lr!, {}^	; <UNPREDICTABLE>
    9414:	18181818 	ldmdane	r8, {r3, r4, fp, ip}
    9418:	00181818 	andseq	r1, r8, r8, lsl r8
    941c:	00000000 	andeq	r0, r0, r0
    9420:	42420000 	submi	r0, r2, #0
    9424:	42424242 	submi	r4, r2, #536870916	; 0x20000004
    9428:	003c6642 	eorseq	r6, ip, r2, asr #12
    942c:	00000000 	andeq	r0, r0, r0
    9430:	42c30000 	sbcmi	r0, r3, #0
    9434:	24244242 	strtcs	r4, [r4], #-578	; 0x242
    9438:	00181824 	andseq	r1, r8, r4, lsr #16
    943c:	00000000 	andeq	r0, r0, r0
    9440:	81810000 	orrhi	r0, r1, r0
    9444:	5a5a5adb 	bpl	169ffb8 <multiplylookup+0x16968e8>
    9448:	00666666 	rsbeq	r6, r6, r6, ror #12
    944c:	00000000 	andeq	r0, r0, r0
    9450:	66420000 	strbvs	r0, [r2], -r0
    9454:	18181824 	ldmdane	r8, {r2, r5, fp, ip}
    9458:	00426224 	subeq	r6, r2, r4, lsr #4
    945c:	00000000 	andeq	r0, r0, r0
    9460:	42420000 	submi	r0, r2, #0
    9464:	18182424 	ldmdane	r8, {r2, r5, sl, sp}
    9468:	00181818 	andseq	r1, r8, r8, lsl r8
    946c:	00000000 	andeq	r0, r0, r0
    9470:	607e0000 	rsbsvs	r0, lr, r0
    9474:	0c081020 	stceq	0, cr1, [r8], {32}
    9478:	00ff0204 	rscseq	r0, pc, r4, lsl #4
    947c:	00000000 	andeq	r0, r0, r0
    9480:	08083800 	stmdaeq	r8, {fp, ip, sp}
    9484:	08080808 	stmdaeq	r8, {r3, fp}
    9488:	08080808 	stmdaeq	r8, {r3, fp}
    948c:	00003808 	andeq	r3, r0, r8, lsl #16
    9490:	04040200 	streq	r0, [r4], #-512	; 0x200
    9494:	10100808 	andsne	r0, r0, r8, lsl #16
    9498:	00402020 	subeq	r2, r0, r0, lsr #32
    949c:	00000000 	andeq	r0, r0, r0
    94a0:	10101c00 	andsne	r1, r0, r0, lsl #24
    94a4:	10101010 	andsne	r1, r0, r0, lsl r0
    94a8:	10101010 	andsne	r1, r0, r0, lsl r0
    94ac:	00001c10 	andeq	r1, r0, r0, lsl ip
    94b0:	18180000 	ldmdane	r8, {}	; <UNPREDICTABLE>
    94b4:	42422424 	submi	r2, r2, #36, 8	; 0x24000000
	...
    94cc:	000000ff 	strdeq	r0, [r0], -pc	; <UNPREDICTABLE>
    94d0:	00100800 	andseq	r0, r0, r0, lsl #16
	...
    94e4:	7c60223c 	sfmvc	f2, 2, [r0], #-240	; 0xffffff10
    94e8:	00de6262 	sbcseq	r6, lr, r2, ror #4
    94ec:	00000000 	andeq	r0, r0, r0
    94f0:	02020200 	andeq	r0, r2, #0, 4
    94f4:	4242663a 	submi	r6, r2, #60817408	; 0x3a00000
    94f8:	003a6642 	eorseq	r6, sl, r2, asr #12
	...
    9504:	0202463c 	andeq	r4, r2, #60, 12	; 0x3c00000
    9508:	003c4602 	eorseq	r4, ip, r2, lsl #12
    950c:	00000000 	andeq	r0, r0, r0
    9510:	40404000 	submi	r4, r0, r0
    9514:	4242665c 	submi	r6, r2, #92, 12	; 0x5c00000
    9518:	005c6642 	subseq	r6, ip, r2, asr #12
	...
    9524:	7e42663c 	mcrvc	6, 2, r6, cr2, cr12, {1}
    9528:	003c4602 	eorseq	r4, ip, r2, lsl #12
    952c:	00000000 	andeq	r0, r0, r0
    9530:	08087800 	stmdaeq	r8, {fp, ip, sp, lr}
    9534:	0808087e 	stmdaeq	r8, {r1, r2, r3, r4, r5, r6, fp}
    9538:	00080808 	andeq	r0, r8, r8, lsl #16
	...
    9544:	4242665c 	submi	r6, r2, #92, 12	; 0x5c00000
    9548:	405c6642 	subsmi	r6, ip, r2, asr #12
    954c:	00003c66 	andeq	r3, r0, r6, ror #24
    9550:	02020200 	andeq	r0, r2, #0, 4
    9554:	4242663a 	submi	r6, r2, #60817408	; 0x3a00000
    9558:	00424242 	subeq	r4, r2, r2, asr #4
    955c:	00000000 	andeq	r0, r0, r0
    9560:	00001000 	andeq	r1, r0, r0
    9564:	1010101c 	andsne	r1, r0, ip, lsl r0
    9568:	007e1010 	rsbseq	r1, lr, r0, lsl r0
    956c:	00000000 	andeq	r0, r0, r0
    9570:	00001000 	andeq	r1, r0, r0
    9574:	1010101c 	andsne	r1, r0, ip, lsl r0
    9578:	10101010 	andsne	r1, r0, r0, lsl r0
    957c:	00000e10 	andeq	r0, r0, r0, lsl lr
    9580:	04040400 	streq	r0, [r4], #-1024	; 0x400
    9584:	1c143464 	cfldrsne	mvf3, [r4], {100}	; 0x64
    9588:	00442414 	subeq	r2, r4, r4, lsl r4
    958c:	00000000 	andeq	r0, r0, r0
    9590:	10101c00 	andsne	r1, r0, r0, lsl #24
    9594:	10101010 	andsne	r1, r0, r0, lsl r0
    9598:	007e1010 	rsbseq	r1, lr, r0, lsl r0
	...
    95a4:	5a5a5a6e 	bpl	169ff64 <multiplylookup+0x1696894>
    95a8:	005a5a5a 	subseq	r5, sl, sl, asr sl
	...
    95b4:	4242663a 	submi	r6, r2, #60817408	; 0x3a00000
    95b8:	00424242 	subeq	r4, r2, r2, asr #4
	...
    95c4:	4242663c 	submi	r6, r2, #60, 12	; 0x3c00000
    95c8:	003c6642 	eorseq	r6, ip, r2, asr #12
	...
    95d4:	4242663a 	submi	r6, r2, #60817408	; 0x3a00000
    95d8:	023a6642 	eorseq	r6, sl, #69206016	; 0x4200000
    95dc:	00000202 	andeq	r0, r0, r2, lsl #4
    95e0:	00000000 	andeq	r0, r0, r0
    95e4:	4242665c 	submi	r6, r2, #92, 12	; 0x5c00000
    95e8:	405c6642 	subsmi	r6, ip, r2, asr #12
    95ec:	00004040 	andeq	r4, r0, r0, asr #32
    95f0:	00000000 	andeq	r0, r0, r0
    95f4:	04040c74 	streq	r0, [r4], #-3188	; 0xc74
    95f8:	00040404 	andeq	r0, r4, r4, lsl #8
	...
    9604:	3806463c 	stmdacc	r6, {r2, r3, r4, r5, r9, sl, lr}
    9608:	003c4240 	eorseq	r4, ip, r0, asr #4
    960c:	00000000 	andeq	r0, r0, r0
    9610:	04000000 	streq	r0, [r0], #-0
    9614:	0404043e 	streq	r0, [r4], #-1086	; 0x43e
    9618:	00780c04 	rsbseq	r0, r8, r4, lsl #24
	...
    9624:	42424242 	submi	r4, r2, #536870916	; 0x20000004
    9628:	005c6642 	subseq	r6, ip, r2, asr #12
	...
    9634:	24664242 	strbtcs	r4, [r6], #-578	; 0x242
    9638:	00181824 	andseq	r1, r8, r4, lsr #16
	...
    9644:	5a5ac381 	bpl	16ba450 <multiplylookup+0x16b0d80>
    9648:	0066665a 	rsbeq	r6, r6, sl, asr r6
	...
    9654:	18182442 	ldmdane	r8, {r1, r6, sl, sp}
    9658:	0042241c 	subeq	r2, r2, ip, lsl r4
	...
    9664:	24644242 	strbtcs	r4, [r4], #-578	; 0x242
    9668:	0818182c 	ldmdaeq	r8, {r2, r3, r5, fp, ip}
    966c:	00000608 	andeq	r0, r0, r8, lsl #12
    9670:	00000000 	andeq	r0, r0, r0
    9674:	0810207e 	ldmdaeq	r0, {r1, r2, r3, r4, r5, r6, sp}
    9678:	007e060c 	rsbseq	r0, lr, ip, lsl #12
    967c:	00000000 	andeq	r0, r0, r0
    9680:	08187000 	ldmdaeq	r8, {ip, sp, lr}
    9684:	04080808 	streq	r0, [r8], #-2056	; 0x808
    9688:	08080808 	stmdaeq	r8, {r3, fp}
    968c:	00007018 	andeq	r7, r0, r8, lsl r0
    9690:	18181800 	ldmdane	r8, {fp, ip}
    9694:	18181818 	ldmdane	r8, {r3, r4, fp, ip}
    9698:	18181818 	ldmdane	r8, {r3, r4, fp, ip}
    969c:	00001818 	andeq	r1, r0, r8, lsl r8
    96a0:	10180e00 	andsne	r0, r8, r0, lsl #28
    96a4:	20101010 	andscs	r1, r0, r0, lsl r0
    96a8:	10101010 	andsne	r1, r0, r0, lsl r0
    96ac:	00000e18 	andeq	r0, r0, r8, lsl lr
    96b0:	00000000 	andeq	r0, r0, r0
    96b4:	00700e00 	rsbseq	r0, r0, r0, lsl #28
	...

Disassembly of section .bss:

000096d0 <multiplylookup>:
	...

Disassembly of section .ARM.attributes:

00000000 <.ARM.attributes>:
   0:	00002b41 	andeq	r2, r0, r1, asr #22
   4:	61656100 	cmnvs	r5, r0, lsl #2
   8:	01006962 	tsteq	r0, r2, ror #18
   c:	00000021 	andeq	r0, r0, r1, lsr #32
  10:	4d524105 	ldfmie	f4, [r2, #-20]	; 0xffffffec
  14:	54357620 	ldrtpl	r7, [r5], #-1568	; 0x620
  18:	04060045 	streq	r0, [r6], #-69	; 0x45
  1c:	01090108 	tsteq	r9, r8, lsl #2
  20:	01140412 	tsteq	r4, r2, lsl r4
  24:	03170115 	tsteq	r7, #1073741829	; 0x40000005
  28:	011a0118 	tsteq	sl, r8, lsl r1

Disassembly of section .comment:

00000000 <.comment>:
   0:	3a434347 	bcc	10d0d24 <multiplylookup+0x10c7654>
   4:	4e472820 	cdpmi	8, 4, cr2, cr7, cr0, {1}
   8:	34202955 	strtcc	r2, [r0], #-2389	; 0x955
   c:	322e372e 	eorcc	r3, lr, #12058624	; 0xb80000
	...

Disassembly of section .debug_line:

00000000 <.debug_line>:
   0:	0000005a 	andeq	r0, r0, sl, asr r0
   4:	00200002 	eoreq	r0, r0, r2
   8:	01020000 	mrseq	r0, (UNDEF: 2)
   c:	000d0efb 	strdeq	r0, [sp], -fp
  10:	01010101 	tsteq	r1, r1, lsl #2
  14:	01000000 	mrseq	r0, (UNDEF: 0)
  18:	00010000 	andeq	r0, r1, r0
  1c:	74636576 	strbtvc	r6, [r3], #-1398	; 0x576
  20:	2e73726f 	cdpcs	2, 7, cr7, cr3, cr15, {3}
  24:	00000073 	andeq	r0, r0, r3, ror r0
  28:	05000000 	streq	r0, [r0, #-0]
  2c:	00800002 	addeq	r0, r0, r2
  30:	2f2f1800 	svccs	0x002f1800
  34:	2f322f2f 	svccs	0x00322f2f
  38:	2f322f32 	svccs	0x00322f32
  3c:	2f322f32 	svccs	0x00322f32
  40:	2f2f3232 	svccs	0x002f3232
  44:	2f2f2f2f 	svccs	0x002f2f2f
  48:	2f2f322f 	svccs	0x002f322f
  4c:	2f332f2f 	svccs	0x00332f2f
  50:	302f302f 	eorcc	r3, pc, pc, lsr #32
  54:	2f2f302f 	svccs	0x002f302f
  58:	00020230 	andeq	r0, r2, r0, lsr r2
  5c:	01220101 	teqeq	r2, r1, lsl #2
  60:	00020000 	andeq	r0, r2, r0
  64:	0000002b 	andeq	r0, r0, fp, lsr #32
  68:	0efb0102 	cdpeq	1, 15, cr0, cr11, cr2, {0}
  6c:	0101000d 	tsteq	r1, sp
  70:	00000101 	andeq	r0, r0, r1, lsl #2
  74:	00000100 	andeq	r0, r0, r0, lsl #2
  78:	65700001 	ldrbvs	r0, [r0, #-1]!
  7c:	68706972 	ldmdavs	r0!, {r1, r4, r5, r6, r8, fp, sp, lr}^
  80:	0000632e 	andeq	r6, r0, lr, lsr #6
  84:	65700000 	ldrbvs	r0, [r0, #-0]!
  88:	68706972 	ldmdavs	r0!, {r1, r4, r5, r6, r8, fp, sp, lr}^
  8c:	0000682e 	andeq	r6, r0, lr, lsr #16
  90:	00000000 	andeq	r0, r0, r0
  94:	80a00205 	adchi	r0, r0, r5, lsl #4
  98:	25030000 	strcs	r0, [r3, #-0]
  9c:	024b2f01 	subeq	r2, fp, #1, 30
  a0:	01010006 	tsteq	r1, r6
  a4:	b8020500 	stmdalt	r2, {r8, sl}
  a8:	03000080 	movweq	r0, #128	; 0x80
  ac:	8431012a 	ldrthi	r0, [r1], #-298	; 0x12a
  b0:	000a024b 	andeq	r0, sl, fp, asr #4
  b4:	05000101 	streq	r0, [r0, #-257]	; 0x101
  b8:	0080e802 	addeq	lr, r0, r2, lsl #16
  bc:	01330300 	teqeq	r3, r0, lsl #6
  c0:	08024c2f 	stmdaeq	r2, {r0, r1, r2, r3, r5, sl, fp, lr}
  c4:	00010100 	andeq	r0, r1, r0, lsl #2
  c8:	81040205 	tsthi	r4, r5, lsl #4
  cc:	c1030000 	mrsgt	r0, (UNDEF: 3)
  d0:	844d0100 	strbhi	r0, [sp], #-256	; 0x100
  d4:	00080267 	andeq	r0, r8, r7, ror #4
  d8:	05000101 	streq	r0, [r0, #-257]	; 0x101
  dc:	00813802 	addeq	r3, r1, r2, lsl #16
  e0:	01370300 	teqeq	r7, r0, lsl #6
  e4:	2d67312e 	stfcse	f3, [r7, #-184]!	; 0xffffff48
  e8:	0004026a 	andeq	r0, r4, sl, ror #4
  ec:	05000101 	streq	r0, [r0, #-257]	; 0x101
  f0:	00816402 	addeq	r6, r1, r2, lsl #8
  f4:	00ca0300 	sbceq	r0, sl, r0, lsl #6
  f8:	02843101 	addeq	r3, r4, #1073741824	; 0x40000000
  fc:	01010006 	tsteq	r1, r6
 100:	84020500 	strhi	r0, [r2], #-1280	; 0x500
 104:	03000081 	movweq	r0, #129	; 0x81
 108:	2e0100d2 	mcrcs	0, 0, r0, cr1, cr2, {6}
 10c:	4b2f3133 	blmi	bcc5e0 <multiplylookup+0xbc2f10>
 110:	2f4c2f67 	svccs	0x004c2f67
 114:	0002022d 	andeq	r0, r2, sp, lsr #4
 118:	05000101 	streq	r0, [r0, #-257]	; 0x101
 11c:	0081c002 	addeq	ip, r1, r2
 120:	00e40300 	rsceq	r0, r4, r0, lsl #6
 124:	4b2f2f01 	blmi	bcbd30 <multiplylookup+0xbc2660>
 128:	02022d2f 	andeq	r2, r2, #3008	; 0xbc0
 12c:	00010100 	andeq	r0, r1, r0, lsl #2
 130:	81dc0205 	bicshi	r0, ip, r5, lsl #4
 134:	eb030000 	bl	c013c <multiplylookup+0xb6a6c>
 138:	67310100 	ldrvs	r0, [r1, -r0, lsl #2]!
 13c:	67676767 	strbvs	r6, [r7, -r7, ror #14]!
 140:	4d676767 	stclmi	7, cr6, [r7, #-412]!	; 0xfffffe64
 144:	00676730 	rsbeq	r6, r7, r0, lsr r7
 148:	06020402 	streq	r0, [r2], -r2, lsl #8
 14c:	679f062e 	ldrvs	r0, [pc, lr, lsr #12]
 150:	02040200 	andeq	r0, r4, #0, 4
 154:	9f062e06 	svcls	0x00062e06
 158:	1a026767 	bne	99efc <multiplylookup+0x9082c>
 15c:	00010100 	andeq	r0, r1, r0, lsl #2
 160:	82ec0205 	rschi	r0, ip, #1342177280	; 0x50000000
 164:	85030000 	strhi	r0, [r3, #-0]
 168:	83310101 	teqhi	r1, #1073741824	; 0x40000000
 16c:	00080267 	andeq	r0, r8, r7, ror #4
 170:	05000101 	streq	r0, [r0, #-257]	; 0x101
 174:	00831c02 	addeq	r1, r3, r2, lsl #24
 178:	018d0300 	orreq	r0, sp, r0, lsl #6
 17c:	024b2f01 	subeq	r2, fp, #1, 30
 180:	01010006 	tsteq	r1, r6
 184:	000000f7 	strdeq	r0, [r0], -r7
 188:	006e0002 	rsbeq	r0, lr, r2
 18c:	01020000 	mrseq	r0, (UNDEF: 2)
 190:	000d0efb 	strdeq	r0, [sp], -fp
 194:	01010101 	tsteq	r1, r1, lsl #2
 198:	01000000 	mrseq	r0, (UNDEF: 0)
 19c:	00010000 	andeq	r0, r1, r0
 1a0:	65646976 	strbvs	r6, [r4, #-2422]!	; 0x976
 1a4:	2e31306f 	cdpcs	0, 3, cr3, cr1, cr15, {3}
 1a8:	00000063 	andeq	r0, r0, r3, rrx
 1ac:	63657600 	cmnvs	r5, #0, 12
 1b0:	73726f74 	cmnvc	r2, #116, 30	; 0x1d0
 1b4:	0000682e 	andeq	r6, r0, lr, lsr #16
 1b8:	69740000 	ldmdbvs	r4!, {}^	; <UNPREDICTABLE>
 1bc:	2e72656d 	cdpcs	5, 7, cr6, cr2, cr13, {3}
 1c0:	00000068 	andeq	r0, r0, r8, rrx
 1c4:	72657000 	rsbvc	r7, r5, #0
 1c8:	2e687069 	cdpcs	0, 6, cr7, cr8, cr9, {3}
 1cc:	00000068 	andeq	r0, r0, r8, rrx
 1d0:	73696400 	cmnvc	r9, #0, 8
 1d4:	79616c70 	stmdbvc	r1!, {r4, r5, r6, sl, fp, sp, lr}^
 1d8:	0000682e 	andeq	r6, r0, lr, lsr #16
 1dc:	75660000 	strbvc	r0, [r6, #-0]!
 1e0:	6974636e 	ldmdbvs	r4!, {r1, r2, r3, r5, r6, r8, r9, sp, lr}^
 1e4:	2e736e6f 	cdpcs	14, 7, cr6, cr3, cr15, {3}
 1e8:	00000068 	andeq	r0, r0, r8, rrx
 1ec:	72657400 	rsbvc	r7, r5, #0, 8
 1f0:	616e696d 	cmnvs	lr, sp, ror #18
 1f4:	00682e6c 	rsbeq	r2, r8, ip, ror #28
 1f8:	00000000 	andeq	r0, r0, r0
 1fc:	34020500 	strcc	r0, [r2], #-1280	; 0x500
 200:	03000083 	movweq	r0, #131	; 0x83
 204:	846c0133 	strbthi	r0, [ip], #-307	; 0x133
 208:	000a0268 	andeq	r0, sl, r8, ror #4
 20c:	05000101 	streq	r0, [r0, #-257]	; 0x101
 210:	00837002 	addeq	r7, r3, r2
 214:	00c00300 	sbceq	r0, r0, r0, lsl #6
 218:	4a090301 	bmi	240e24 <multiplylookup+0x237754>
 21c:	694c4d4b 	stmdbvs	ip, {r0, r1, r3, r6, r8, sl, fp, lr}^
 220:	01000802 	tsteq	r0, r2, lsl #16
 224:	02050001 	andeq	r0, r5, #1
 228:	000083ac 	andeq	r8, r0, ip, lsr #7
 22c:	0100d903 	tsteq	r0, r3, lsl #18
 230:	67302f4e 	ldrvs	r2, [r0, -lr, asr #30]!
 234:	67676767 	strbvs	r6, [r7, -r7, ror #14]!
 238:	67676767 	strbvs	r6, [r7, -r7, ror #14]!
 23c:	02006769 	andeq	r6, r0, #27525120	; 0x1a40000
 240:	00860204 	addeq	r0, r6, r4, lsl #4
 244:	49020402 	stmdbmi	r2, {r1, sl}
 248:	4bd84d50 	blmi	ff613790 <multiplylookup+0xff60a0c0>
 24c:	00660903 	rsbeq	r0, r6, r3, lsl #18
 250:	2b020402 	blcs	81260 <multiplylookup+0x77b90>
 254:	02040200 	andeq	r0, r4, #0, 4
 258:	04020031 	streq	r0, [r2], #-49	; 0x31
 25c:	02002b02 	andeq	r2, r0, #2048	; 0x800
 260:	00310204 	eorseq	r0, r1, r4, lsl #4
 264:	a1020402 	tstge	r2, r2, lsl #8
 268:	02040200 	andeq	r0, r4, #0, 4
 26c:	04020067 	streq	r0, [r2], #-103	; 0x67
 270:	4a770302 	bmi	1dc0e80 <multiplylookup+0x1db77b0>
 274:	d74a0b03 	strble	r0, [sl, -r3, lsl #22]
 278:	26024c4b 	strcs	r4, [r2], -fp, asr #24
 27c:	81010100 	mrshi	r0, (UNDEF: 17)
 280:	02000000 	andeq	r0, r0, #0
 284:	00002200 	andeq	r2, r0, r0, lsl #4
 288:	fb010200 	blx	40a92 <multiplylookup+0x373c2>
 28c:	01000d0e 	tsteq	r0, lr, lsl #26
 290:	00010101 	andeq	r0, r1, r1, lsl #2
 294:	00010000 	andeq	r0, r1, r0
 298:	66000100 	strvs	r0, [r0], -r0, lsl #2
 29c:	74636e75 	strbtvc	r6, [r3], #-3701	; 0xe75
 2a0:	736e6f69 	cmnvc	lr, #420	; 0x1a4
 2a4:	0000732e 	andeq	r7, r0, lr, lsr #6
 2a8:	00000000 	andeq	r0, r0, r0
 2ac:	85500205 	ldrbhi	r0, [r0, #-517]	; 0x205
 2b0:	11030000 	mrsne	r0, (UNDEF: 3)
 2b4:	2f2f2f01 	svccs	0x002f2f01
 2b8:	2f2f322f 	svccs	0x002f322f
 2bc:	2f302f35 	svccs	0x00302f35
 2c0:	2f322f2f 	svccs	0x00322f2f
 2c4:	2f2f2f2f 	svccs	0x002f2f2f
 2c8:	2f31312f 	svccs	0x0031312f
 2cc:	2f34312f 	svccs	0x0034312f
 2d0:	30302f2f 	eorscc	r2, r0, pc, lsr #30
 2d4:	2f2f2f32 	svccs	0x002f2f32
 2d8:	2f2f3230 	svccs	0x002f3230
 2dc:	312f332f 	teqcc	pc, pc, lsr #6
 2e0:	2f2f2f2f 	svccs	0x002f2f2f
 2e4:	2f2f2f2f 	svccs	0x002f2f2f
 2e8:	2f322f30 	svccs	0x00322f30
 2ec:	2f352f2f 	svccs	0x00352f2f
 2f0:	7f940330 	svcvc	0x00940330
 2f4:	2a03342e 	bcs	cd3b4 <multiplylookup+0xc3ce4>
 2f8:	2e16032e 	cdpcs	3, 1, cr0, cr6, cr14, {1}
 2fc:	022e0f03 	eoreq	r0, lr, #3, 30
 300:	01010002 	tsteq	r1, r2
 304:	00000042 	andeq	r0, r0, r2, asr #32
 308:	001e0002 	andseq	r0, lr, r2
 30c:	01020000 	mrseq	r0, (UNDEF: 2)
 310:	000d0efb 	strdeq	r0, [sp], -fp
 314:	01010101 	tsteq	r1, r1, lsl #2
 318:	01000000 	mrseq	r0, (UNDEF: 0)
 31c:	00010000 	andeq	r0, r1, r0
 320:	656d6974 	strbvs	r6, [sp, #-2420]!	; 0x974
 324:	00732e72 	rsbseq	r2, r3, r2, ror lr
 328:	00000000 	andeq	r0, r0, r0
 32c:	58020500 	stmdapl	r2, {r8, sl}
 330:	14000086 	strne	r0, [r0], #-134	; 0x86
 334:	2f2f332f 	svccs	0x002f332f
 338:	2f2f332f 	svccs	0x002f332f
 33c:	2f303030 	svccs	0x00303030
 340:	64033130 	strvs	r3, [r3], #-304	; 0x130
 344:	0002022e 	andeq	r0, r2, lr, lsr #4
 348:	00a60101 	adceq	r0, r6, r1, lsl #2
 34c:	00020000 	andeq	r0, r2, r0
 350:	0000003a 	andeq	r0, r0, sl, lsr r0
 354:	0efb0102 	cdpeq	1, 15, cr0, cr11, cr2, {0}
 358:	0101000d 	tsteq	r1, sp
 35c:	00000101 	andeq	r0, r0, r1, lsl #2
 360:	00000100 	andeq	r0, r0, r0, lsl #2
 364:	65740001 	ldrbvs	r0, [r4, #-1]!
 368:	6e696d72 	mcrvs	13, 3, r6, cr9, cr2, {3}
 36c:	632e6c61 	teqvs	lr, #24832	; 0x6100
 370:	00000000 	andeq	r0, r0, r0
 374:	69726570 	ldmdbvs	r2!, {r4, r5, r6, r8, sl, sp, lr}^
 378:	682e6870 	stmdavs	lr!, {r4, r5, r6, fp, sp, lr}
 37c:	00000000 	andeq	r0, r0, r0
 380:	70736964 	rsbsvc	r6, r3, r4, ror #18
 384:	2e79616c 	rpwcsez	f6, f1, #4.0
 388:	00000068 	andeq	r0, r0, r8, rrx
 38c:	05000000 	streq	r0, [r0, #-0]
 390:	00869802 	addeq	r9, r6, r2, lsl #16
 394:	2f161600 	svccs	0x00161600
 398:	2f4d4c2f 	svccs	0x004d4c2f
 39c:	00080229 	andeq	r0, r8, r9, lsr #4
 3a0:	05000101 	streq	r0, [r0, #-257]	; 0x101
 3a4:	0086c802 	addeq	ip, r6, r2, lsl #16
 3a8:	01110300 	tsteq	r1, r0, lsl #6
 3ac:	6b2e4533 	blvs	b91880 <multiplylookup+0xb881b0>
 3b0:	04020049 	streq	r0, [r2], #-73	; 0x49
 3b4:	2d4b6702 	stclcs	7, cr6, [fp, #-8]
 3b8:	2d6b2c30 	stclcs	12, cr2, [fp, #-192]!	; 0xffffff40
 3bc:	2a4e2a33 	bcs	138ac90 <multiplylookup+0x13815c0>
 3c0:	4a720332 	bmi	1c81090 <multiplylookup+0x1c779c0>
 3c4:	02040200 	andeq	r0, r4, #0, 4
 3c8:	4b660e03 	blmi	1983bdc <multiplylookup+0x197a50c>
 3cc:	322c4c2d 	eorcc	r4, ip, #11520	; 0x2d00
 3d0:	6c034b4b 	stcvs	11, cr4, [r3], {75}	; 0x4b
 3d4:	2e790366 	cdpcs	3, 7, cr0, cr9, cr6, {3}
 3d8:	034c302c 	movteq	r3, #49196	; 0xc02c
 3dc:	74034a27 	strvc	r4, [r3], #-2599	; 0xa27
 3e0:	03834b82 	orreq	r4, r3, #133120	; 0x20800
 3e4:	334e4a6d 	movtcc	r4, #60013	; 0xea6d
 3e8:	4e2a4e2a 	cdpmi	14, 2, cr4, cr10, cr10, {1}
 3ec:	02667703 	rsbeq	r7, r6, #786432	; 0xc0000
 3f0:	01010010 	tsteq	r1, r0, lsl r0
 3f4:	0000026d 	andeq	r0, r0, sp, ror #4
 3f8:	00490002 	subeq	r0, r9, r2
 3fc:	01020000 	mrseq	r0, (UNDEF: 2)
 400:	000d0efb 	strdeq	r0, [sp], -fp
 404:	01010101 	tsteq	r1, r1, lsl #2
 408:	01000000 	mrseq	r0, (UNDEF: 0)
 40c:	00010000 	andeq	r0, r1, r0
 410:	70736964 	rsbsvc	r6, r3, r4, ror #18
 414:	2e79616c 	rpwcsez	f6, f1, #4.0
 418:	00000063 	andeq	r0, r0, r3, rrx
 41c:	63657600 	cmnvs	r5, #0, 12
 420:	73726f74 	cmnvc	r2, #116, 30	; 0x1d0
 424:	0000682e 	andeq	r6, r0, lr, lsr #16
 428:	75660000 	strbvc	r0, [r6, #-0]!
 42c:	6974636e 	ldmdbvs	r4!, {r1, r2, r3, r5, r6, r8, r9, sp, lr}^
 430:	2e736e6f 	cdpcs	14, 7, cr6, cr3, cr15, {3}
 434:	00000068 	andeq	r0, r0, r8, rrx
 438:	73696400 	cmnvc	r9, #0, 8
 43c:	79616c70 	stmdbvc	r1!, {r4, r5, r6, sl, fp, sp, lr}^
 440:	0000682e 	andeq	r6, r0, lr, lsr #16
 444:	00000000 	andeq	r0, r0, r0
 448:	881c0205 	ldmdahi	ip, {r0, r2, r9}
 44c:	15150000 	ldrne	r0, [r5, #-0]
 450:	01000602 	tsteq	r0, r2, lsl #12
 454:	02050001 	andeq	r0, r5, #1
 458:	00008828 	andeq	r8, r0, r8, lsr #16
 45c:	31011603 	tstcc	r1, r3, lsl #12
 460:	0200462f 	andeq	r4, r0, #49283072	; 0x2f00000
 464:	2e060104 	adfcss	f0, f6, f4
 468:	02040200 	andeq	r0, r4, #0, 4
 46c:	02005106 	andeq	r5, r0, #-2147483647	; 0x80000001
 470:	002f0204 	eoreq	r0, pc, r4, lsl #4
 474:	2f020402 	svccs	0x00020402
 478:	02040200 	andeq	r0, r4, #0, 4
 47c:	0402002f 	streq	r0, [r2], #-47	; 0x2f
 480:	02002f02 	andeq	r2, r0, #2, 30
 484:	49290204 	stmdbmi	r9!, {r2, r9}
 488:	02660903 	rsbeq	r0, r6, #49152	; 0xc000
 48c:	01010006 	tsteq	r1, r6
 490:	78020500 	stmdavc	r2, {r8, sl}
 494:	03000088 	movweq	r0, #136	; 0x88
 498:	49130125 	ldmdbmi	r3, {r0, r2, r5, r8}
 49c:	4b30672e 	blmi	c1a15c <multiplylookup+0xc10a8c>
 4a0:	02682f4b 	rsbeq	r2, r8, #300	; 0x12c
 4a4:	01010006 	tsteq	r1, r6
 4a8:	c0020500 	andgt	r0, r2, r0, lsl #10
 4ac:	03000088 	movweq	r0, #136	; 0x88
 4b0:	2d2f012e 	stfcss	f0, [pc, #-184]!	; 400 <_start-0x7c00>
 4b4:	302c2f2f 	eorcc	r2, ip, pc, lsr #30
 4b8:	2f312b2f 	svccs	0x00312b2f
 4bc:	2a2c342a 	bcs	b0d56c <multiplylookup+0xb03e9c>
 4c0:	2dbb2d6d 	ldccs	13, cr2, [fp, #436]!	; 0x1b4
 4c4:	7403672f 	strvc	r6, [r3], #-1839	; 0x72f
 4c8:	2e0c032e 	cdpcs	3, 0, cr0, cr12, cr14, {1}
 4cc:	034a7403 	movteq	r7, #41987	; 0xa403
 4d0:	74032e0c 	strvc	r2, [r3], #-3596	; 0xe0c
 4d4:	2e12034a 	cdpcs	3, 1, cr0, cr2, cr10, {2}
 4d8:	032e7a03 	teqeq	lr, #12288	; 0x3000
 4dc:	034e2e70 	movteq	r2, #61040	; 0xee70
 4e0:	03342e0c 	teqeq	r4, #12, 28	; 0xc0
 4e4:	67682e6a 	strbvs	r2, [r8, -sl, ror #28]!
 4e8:	820f034c 	andhi	r0, pc, #76, 6	; 0x30000001
 4ec:	02009f68 	andeq	r9, r0, #104, 30	; 0x1a0
 4f0:	66060104 	strvs	r0, [r6], -r4, lsl #2
 4f4:	01040200 	mrseq	r0, R12_usr
 4f8:	82690306 	rsbhi	r0, r9, #402653184	; 0x18000000
 4fc:	6c661403 	cfstrdvs	mvd1, [r6], #-12
 500:	01000c02 	tsteq	r0, r2, lsl #24
 504:	02050001 	andeq	r0, r5, #1
 508:	00008a0c 	andeq	r8, r0, ip, lsl #20
 50c:	0100c803 	tsteq	r0, r3, lsl #16
 510:	302e2c30 	eorcc	r2, lr, r0, lsr ip
 514:	032e5c03 	teqeq	lr, #768	; 0x300
 518:	00682e22 	rsbeq	r2, r8, r2, lsr #28
 51c:	9c010402 	cfstrsls	mvf0, [r1], {2}
 520:	034a5e03 	movteq	r5, #44547	; 0xae03
 524:	5b038225 	blpl	e0dc0 <multiplylookup+0xd76f0>
 528:	004d302e 	subeq	r3, sp, lr, lsr #32
 52c:	03020402 	movweq	r0, #9218	; 0x2402
 530:	87656620 	strbhi	r6, [r5, -r0, lsr #12]!
 534:	01000c02 	tsteq	r0, r2, lsl #24
 538:	02050001 	andeq	r0, r5, #1
 53c:	00008aac 	andeq	r8, r0, ip, lsr #21
 540:	0100c103 	tsteq	r0, r3, lsl #2
 544:	322f2d13 	eorcc	r2, pc, #1216	; 0x4c0
 548:	2b4d472f 	blcs	135220c <multiplylookup+0x1348b3c>
 54c:	01000202 	tsteq	r0, r2, lsl #4
 550:	02050001 	andeq	r0, r5, #1
 554:	00008ad4 	ldrdeq	r8, [r0], -r4
 558:	0100d103 	tsteq	r0, r3, lsl #2
 55c:	4f45332e 	svcmi	0x0045332e
 560:	2f46334b 	svccs	0x0046334b
 564:	032f332c 	teqeq	pc, #44, 6	; 0xb0000000
 568:	0b032e79 	bleq	cbf54 <multiplylookup+0xc2884>
 56c:	00040266 	andeq	r0, r4, r6, ror #4
 570:	05000101 	streq	r0, [r0, #-257]	; 0x101
 574:	008b2802 	addeq	r2, fp, r2, lsl #16
 578:	00e20300 	rsceq	r0, r2, r0, lsl #6
 57c:	2e2b3101 	sufcse	f3, f3, f1
 580:	2e45034d 	cdpcs	3, 4, cr0, cr5, cr13, {2}
 584:	3c03322a 	sfmcc	f3, 4, [r3], {42}	; 0x2a
 588:	66430366 	strbvs	r0, [r3], -r6, ror #6
 58c:	02040200 	andeq	r0, r4, #0, 4
 590:	304ba0b7 	strhcc	sl, [fp], #-7
 594:	02040200 	andeq	r0, r4, #0, 4
 598:	65663b03 	strbvs	r3, [r6, #-2819]!	; 0xb03
 59c:	000c028a 	andeq	r0, ip, sl, lsl #5
 5a0:	05000101 	streq	r0, [r0, #-257]	; 0x101
 5a4:	008bd802 	addeq	sp, fp, r2, lsl #16
 5a8:	00ee0300 	rsceq	r0, lr, r0, lsl #6
 5ac:	2c304b01 	ldccs	11, cr4, [r0], #-4
 5b0:	322a4f2f 	eorcc	r4, sl, #47, 30	; 0xbc
 5b4:	302a332a 	eorcc	r3, sl, sl, lsr #6
 5b8:	322b322c 	eorcc	r3, fp, #44, 4	; 0xc0000002
 5bc:	322b322a 	eorcc	r3, fp, #-1610612734	; 0xa0000002
 5c0:	034b3346 	movteq	r3, #45894	; 0xb346
 5c4:	2b4e4a0c 	blcs	1392dfc <multiplylookup+0x138972c>
 5c8:	2e78034e 	cdpcs	3, 7, cr0, cr8, cr14, {2}
 5cc:	79032f35 	stmdbvc	r3, {r0, r2, r4, r5, r8, r9, sl, fp, sp}
 5d0:	09032c2e 	stmdbeq	r3, {r1, r2, r3, r5, sl, fp, sp}
 5d4:	2c2c2f2e 	stccs	15, cr2, [ip], #-184	; 0xffffff48
 5d8:	03b82f31 			; <UNDEFINED> instruction: 0x03b82f31
 5dc:	0b032e73 	bleq	cbfb0 <multiplylookup+0xc28e0>
 5e0:	83833066 	orrhi	r3, r3, #102	; 0x66
 5e4:	4a7103bc 	bmi	1c414dc <multiplylookup+0x1c37e0c>
 5e8:	834a0f03 	movthi	r0, #44803	; 0xaf03
 5ec:	2d4b2f2d 	stclcs	15, cr2, [fp, #-180]	; 0xffffff4c
 5f0:	0870034b 	ldmdaeq	r0!, {r0, r1, r3, r6, r8, r9}^
 5f4:	10036420 	andne	r6, r3, r0, lsr #8
 5f8:	2f2a3266 	svccs	0x002a3266
 5fc:	2f2d302d 	svccs	0x002d302d
 600:	7f980330 	svcvc	0x00980330
 604:	00c4032e 	sbceq	r0, r4, lr, lsr #6
 608:	7fbc034a 	svcvc	0x00bc034a
 60c:	00c4032e 	sbceq	r0, r4, lr, lsr #6
 610:	7fbc032e 	svcvc	0x00bc032e
 614:	00c4032e 	sbceq	r0, r4, lr, lsr #6
 618:	2e22032e 	cdpcs	3, 2, cr0, cr2, cr14, {1}
 61c:	032e5e03 	teqeq	lr, #3, 28	; 0x30
 620:	02002e21 	andeq	r2, r0, #528	; 0x210
 624:	06350104 	ldrteq	r0, [r5], -r4, lsl #2
 628:	00830666 	addeq	r0, r3, r6, ror #12
 62c:	06010402 	streq	r0, [r1], -r2, lsl #8
 630:	8f030666 	svchi	0x00030666
 634:	03a04a7f 	moveq	r4, #520192	; 0x7f000
 638:	039e00c6 	orrseq	r0, lr, #198	; 0xc6
 63c:	034a7fbd 	movteq	r7, #44989	; 0xafbd
 640:	4eba00eb 	cdpmi	0, 11, cr0, cr10, cr11, {7}
 644:	7a032f2f 	bvc	cc308 <multiplylookup+0xc2c38>
 648:	7403522e 	strvc	r5, [r3], #-558	; 0x22e
 64c:	820c032e 	andhi	r0, ip, #-1207959552	; 0xb8000000
 650:	4a720330 	bmi	1c81318 <multiplylookup+0x1c77c48>
 654:	2f2e0d03 	svccs	0x002e0d03
 658:	72032f2d 	andvc	r2, r3, #45, 30	; 0xb4
 65c:	2e10032e 	cdpcs	3, 1, cr0, cr0, cr14, {1}
 660:	01000c02 	tsteq	r0, r2, lsl #24
 664:	Address 0x0000000000000664 is out of bounds.


Disassembly of section .debug_info:

00000000 <.debug_info>:
       0:	00000054 	andeq	r0, r0, r4, asr r0
       4:	00000002 	andeq	r0, r0, r2
       8:	01040000 	mrseq	r0, (UNDEF: 4)
       c:	00000000 	andeq	r0, r0, r0
      10:	00008000 	andeq	r8, r0, r0
      14:	000080a0 	andeq	r8, r0, r0, lsr #1
      18:	74636576 	strbtvc	r6, [r3], #-1398	; 0x576
      1c:	2e73726f 	cdpcs	2, 7, cr7, cr3, cr15, {3}
      20:	552f0073 	strpl	r0, [pc, #-115]!	; ffffffb5 <multiplylookup+0xffff68e5>
      24:	73726573 	cmnvc	r2, #482344960	; 0x1cc00000
      28:	6f6e6d2f 	svcvs	0x006e6d2f
      2c:	2f6e616c 	svccs	0x006e616c
      30:	2f746967 	svccs	0x00746967
      34:	70736172 	rsbsvc	r6, r3, r2, ror r1
      38:	72726562 	rsbsvc	r6, r2, #411041792	; 0x18800000
      3c:	2f697079 	svccs	0x00697079
      40:	65646976 	strbvs	r6, [r4, #-2422]!	; 0x976
      44:	0031306f 	eorseq	r3, r1, pc, rrx
      48:	20554e47 	subscs	r4, r5, r7, asr #28
      4c:	32205341 	eorcc	r5, r0, #67108865	; 0x4000001
      50:	2e33322e 	cdpcs	2, 3, cr3, cr3, cr14, {1}
      54:	80010031 	andhi	r0, r1, r1, lsr r0
      58:	00000509 	andeq	r0, r0, r9, lsl #10
      5c:	00140002 	andseq	r0, r4, r2
      60:	01040000 	mrseq	r0, (UNDEF: 4)
      64:	00001401 	andeq	r1, r0, r1, lsl #8
      68:	001bea01 	andseq	lr, fp, r1, lsl #20
      6c:	00002300 	andeq	r2, r0, r0, lsl #6
	...
      7c:	00005e00 	andeq	r5, r0, r0, lsl #28
      80:	00000000 	andeq	r0, r0, r0
      84:	49010200 	stmdbmi	r1, {r9}
      88:	0100000b 	tsteq	r0, fp
      8c:	005f0125 	subseq	r0, pc, r5, lsr #2
      90:	80a00000 	adchi	r0, r0, r0
      94:	80b80000 	adcshi	r0, r8, r0
      98:	00000000 	andeq	r0, r0, r0
      9c:	5f010000 	svcpl	0x00010000
      a0:	03000000 	movweq	r0, #0
      a4:	000080ac 	andeq	r8, r0, ip, lsr #1
      a8:	000004cb 	andeq	r0, r0, fp, asr #9
      ac:	05500104 	ldrbeq	r0, [r0, #-260]	; 0x104
      b0:	2150540c 	cmpcs	r0, ip, lsl #8
      b4:	05000020 	streq	r0, [r0, #-32]
      b8:	14af0704 	strtne	r0, [pc], #1796	; c0 <_start-0x7f40>
      bc:	01020000 	mrseq	r0, (UNDEF: 2)
      c0:	000020bd 	strheq	r2, [r0], -sp
      c4:	5f012a01 	svcpl	0x00012a01
      c8:	b8000000 	stmdalt	r0, {}	; <UNPREDICTABLE>
      cc:	e8000080 	stmda	r0, {r7}
      d0:	20000080 	andcs	r0, r0, r0, lsl #1
      d4:	01000000 	mrseq	r0, (UNDEF: 0)
      d8:	000000af 	andeq	r0, r0, pc, lsr #1
      dc:	0080c406 	addeq	ip, r0, r6, lsl #8
      e0:	0004cb00 	andeq	ip, r4, r0, lsl #22
      e4:	00009b00 	andeq	r9, r0, r0, lsl #22
      e8:	50010400 	andpl	r0, r1, r0, lsl #8
      ec:	50540c05 	subspl	r0, r4, r5, lsl #24
      f0:	03002021 	movweq	r2, #33	; 0x21
      f4:	000080d4 	ldrdeq	r8, [r0], -r4
      f8:	000004cb 	andeq	r0, r0, fp, asr #9
      fc:	05500104 	ldrbeq	r0, [r0, #-260]	; 0x104
     100:	2150400c 	cmpcs	r0, ip
     104:	02000020 	andeq	r0, r0, #32
     108:	000d6b01 	andeq	r6, sp, r1, lsl #22
     10c:	01330100 	teqeq	r3, r0, lsl #2
     110:	0000005f 	andeq	r0, r0, pc, asr r0
     114:	000080e8 	andeq	r8, r0, r8, ror #1
     118:	00008104 	andeq	r8, r0, r4, lsl #2
     11c:	00000040 	andeq	r0, r0, r0, asr #32
     120:	0000e101 	andeq	lr, r0, r1, lsl #2
     124:	80f40300 	rscshi	r0, r4, r0, lsl #6
     128:	04cb0000 	strbeq	r0, [fp], #0
     12c:	01040000 	mrseq	r0, (UNDEF: 4)
     130:	540c0550 	strpl	r0, [ip], #-1360	; 0x550
     134:	00202150 	eoreq	r2, r0, r0, asr r1
     138:	2d010700 	stccs	7, cr0, [r1, #-0]
     13c:	01000019 	tsteq	r0, r9, lsl r0
     140:	81040141 	tsthi	r4, r1, asr #2
     144:	81380000 	teqhi	r8, r0
     148:	00600000 	rsbeq	r0, r0, r0
     14c:	39010000 	stmdbcc	r1, {}	; <UNPREDICTABLE>
     150:	08000001 	stmdaeq	r0, {r0}
     154:	41010063 	tstmi	r1, r3, rrx
     158:	0000005f 	andeq	r0, r0, pc, asr r0
     15c:	00000080 	andeq	r0, r0, r0, lsl #1
     160:	00811406 	addeq	r1, r1, r6, lsl #8
     164:	0004cb00 	andeq	ip, r4, r0, lsl #22
     168:	00011f00 	andeq	r1, r1, r0, lsl #30
     16c:	50010400 	andpl	r0, r1, r0, lsl #8
     170:	50540c05 	subspl	r0, r4, r5, lsl #24
     174:	03002021 	movweq	r2, #33	; 0x21
     178:	00008128 	andeq	r8, r0, r8, lsr #2
     17c:	000004e3 	andeq	r0, r0, r3, ror #9
     180:	02510104 	subseq	r0, r1, #4, 2
     184:	01040074 	tsteq	r4, r4, ror r0
     188:	400c0550 	andmi	r0, ip, r0, asr r5
     18c:	00202150 	eoreq	r2, r0, r0, asr r1
     190:	3c010700 	stccc	7, cr0, [r1], {-0}
     194:	01000011 	tsteq	r0, r1, lsl r0
     198:	81380138 	teqhi	r8, r8, lsr r1
     19c:	81640000 	cmnhi	r4, r0
     1a0:	009e0000 	addseq	r0, lr, r0
     1a4:	79010000 	stmdbvc	r1, {}	; <UNPREDICTABLE>
     1a8:	08000001 	stmdaeq	r0, {r0}
     1ac:	00727473 	rsbseq	r7, r2, r3, ror r4
     1b0:	01793801 	cmneq	r9, r1, lsl #16
     1b4:	00be0000 	adcseq	r0, lr, r0
     1b8:	69090000 	stmdbvs	r9, {}	; <UNPREDICTABLE>
     1bc:	86390100 	ldrthi	r0, [r9], -r0, lsl #2
     1c0:	ea000001 	b	1cc <_start-0x7e34>
     1c4:	0a000000 	beq	1cc <_start-0x7e34>
     1c8:	00008150 	andeq	r8, r0, r0, asr r1
     1cc:	000000e1 	andeq	r0, r0, r1, ror #1
     1d0:	7f040b00 	svcvc	0x00040b00
     1d4:	05000001 	streq	r0, [r0, #-1]
     1d8:	07cf0801 	strbeq	r0, [pc, r1, lsl #16]
     1dc:	040c0000 	streq	r0, [ip], #-0
     1e0:	746e6905 	strbtvc	r6, [lr], #-2309	; 0x905
     1e4:	de010700 	cdple	7, 0, cr0, cr1, cr0, {0}
     1e8:	01000000 	mrseq	r0, (UNDEF: 0)
     1ec:	8164014a 	cmnhi	r4, sl, asr #2
     1f0:	81840000 	orrhi	r0, r4, r0
     1f4:	00fe0000 	rscseq	r0, lr, r0
     1f8:	bb010000 	bllt	40200 <multiplylookup+0x36b30>
     1fc:	03000001 	movweq	r0, #1
     200:	00008170 	andeq	r8, r0, r0, ror r1
     204:	000004cb 	andeq	r0, r0, fp, asr #9
     208:	05500104 	ldrbeq	r0, [r0, #-260]	; 0x104
     20c:	2150540c 	cmpcs	r0, ip, lsl #8
     210:	07000020 	streq	r0, [r0, -r0, lsr #32]
     214:	001ba001 	andseq	sl, fp, r1
     218:	01520100 	cmpeq	r2, r0, lsl #2
     21c:	00008184 	andeq	r8, r0, r4, lsl #3
     220:	000081c0 	andeq	r8, r0, r0, asr #3
     224:	0000011e 	andeq	r0, r0, lr, lsl r1
     228:	00021901 	andeq	r1, r2, r1, lsl #18
     22c:	00640800 	rsbeq	r0, r4, r0, lsl #16
     230:	005f5201 	subseq	r5, pc, r1, lsl #4
     234:	013e0000 	teqeq	lr, r0
     238:	72090000 	andvc	r0, r9, #0
     23c:	55010062 	strpl	r0, [r1, #-98]	; 0x62
     240:	0000005f 	andeq	r0, r0, pc, asr r0
     244:	0000015c 	andeq	r0, r0, ip, asr r1
     248:	00637209 	rsbeq	r7, r3, r9, lsl #4
     24c:	005f5601 	subseq	r5, pc, r1, lsl #12
     250:	017c0000 	cmneq	ip, r0
     254:	ac0a0000 	stcge	0, cr0, [sl], {-0}
     258:	e1000081 	smlabb	r0, r1, r0, r0
     25c:	0d000000 	stceq	0, cr0, [r0, #-0]
     260:	000081c0 	andeq	r8, r0, r0, asr #3
     264:	0000e101 	andeq	lr, r0, r1, lsl #2
     268:	50010400 	andpl	r0, r1, r0, lsl #8
     26c:	00200802 	eoreq	r0, r0, r2, lsl #16
     270:	46010700 	strmi	r0, [r1], -r0, lsl #14
     274:	01000016 	tsteq	r0, r6, lsl r0
     278:	81c00164 	bichi	r0, r0, r4, ror #2
     27c:	81dc0000 	bicshi	r0, ip, r0
     280:	019a0000 	orrseq	r0, sl, r0
     284:	79010000 	stmdbvc	r1, {}	; <UNPREDICTABLE>
     288:	08000002 	stmdaeq	r0, {r1}
     28c:	64010064 	strvs	r0, [r1], #-100	; 0x64
     290:	0000005f 	andeq	r0, r0, pc, asr r0
     294:	000001ba 			; <UNDEFINED> instruction: 0x000001ba
     298:	0081c806 	addeq	ip, r1, r6, lsl #16
     29c:	0001bb00 	andeq	fp, r1, r0, lsl #22
     2a0:	00025500 	andeq	r5, r2, r0, lsl #10
     2a4:	50010400 	andpl	r0, r1, r0, lsl #8
     2a8:	5001f303 	andpl	pc, r1, r3, lsl #6
     2ac:	81d00600 	bicshi	r0, r0, r0, lsl #12
     2b0:	00e10000 	rsceq	r0, r1, r0
     2b4:	02680000 	rsbeq	r0, r8, #0
     2b8:	01040000 	mrseq	r0, (UNDEF: 4)
     2bc:	003d0150 	eorseq	r0, sp, r0, asr r1
     2c0:	0081dc0d 	addeq	sp, r1, sp, lsl #24
     2c4:	00e10100 	rsceq	r0, r1, r0, lsl #2
     2c8:	01040000 	mrseq	r0, (UNDEF: 4)
     2cc:	003a0150 	eorseq	r0, sl, r0, asr r1
     2d0:	fd010700 	stc2	7, cr0, [r1, #-0]
     2d4:	01000002 	tsteq	r0, r2
     2d8:	81dc016b 	bicshi	r0, ip, fp, ror #2
     2dc:	82ec0000 	rschi	r0, ip, #0
     2e0:	01db0000 	bicseq	r0, fp, r0
     2e4:	49010000 	stmdbmi	r1, {}	; <UNPREDICTABLE>
     2e8:	09000004 	stmdbeq	r0, {r2}
     2ec:	01006172 	tsteq	r0, r2, ror r1
     2f0:	00005f6d 	andeq	r5, r0, sp, ror #30
     2f4:	0001fb00 	andeq	pc, r1, r0, lsl #22
     2f8:	81ec0600 	mvnhi	r0, r0, lsl #12
     2fc:	04e30000 	strbteq	r0, [r3], #0
     300:	02bd0000 	adcseq	r0, sp, #0
     304:	01040000 	mrseq	r0, (UNDEF: 4)
     308:	04310151 	ldrteq	r0, [r1], #-337	; 0x151
     30c:	0c055001 	stceq	0, cr5, [r5], {1}
     310:	20215004 	eorcs	r5, r1, r4
     314:	81f80600 	mvnshi	r0, r0, lsl #12
     318:	04e30000 	strbteq	r0, [r3], #0
     31c:	02d90000 	sbcseq	r0, r9, #0
     320:	01040000 	mrseq	r0, (UNDEF: 4)
     324:	04300151 	ldrteq	r0, [r0], #-337	; 0x151
     328:	0c055001 	stceq	0, cr5, [r5], {1}
     32c:	20215044 	eorcs	r5, r1, r4, asr #32
     330:	82040600 	andhi	r0, r4, #0, 12
     334:	04e30000 	strbteq	r0, [r3], #0
     338:	02f50000 	rscseq	r0, r5, #0
     33c:	01040000 	mrseq	r0, (UNDEF: 4)
     340:	04300151 	ldrteq	r0, [r0], #-337	; 0x151
     344:	0c055001 	stceq	0, cr5, [r5], {1}
     348:	20215060 	eorcs	r5, r1, r0, rrx
     34c:	82100600 	andshi	r0, r0, #0, 12
     350:	04e30000 	strbteq	r0, [r3], #0
     354:	03110000 	tsteq	r1, #0
     358:	01040000 	mrseq	r0, (UNDEF: 4)
     35c:	04330151 	ldrteq	r0, [r3], #-337	; 0x151
     360:	0c055001 	stceq	0, cr5, [r5], {1}
     364:	2021504c 	eorcs	r5, r1, ip, asr #32
     368:	821c0600 	andshi	r0, ip, #0, 12
     36c:	04e30000 	strbteq	r0, [r3], #0
     370:	032d0000 	teqeq	sp, #0
     374:	01040000 	mrseq	r0, (UNDEF: 4)
     378:	04300151 	ldrteq	r0, [r0], #-337	; 0x151
     37c:	0c055001 	stceq	0, cr5, [r5], {1}
     380:	20215050 	eorcs	r5, r1, r0, asr r0
     384:	82280600 	eorhi	r0, r8, #0, 12
     388:	04e30000 	strbteq	r0, [r3], #0
     38c:	03490000 	movteq	r0, #36864	; 0x9000
     390:	01040000 	mrseq	r0, (UNDEF: 4)
     394:	04300151 	ldrteq	r0, [r0], #-337	; 0x151
     398:	0c055001 	stceq	0, cr5, [r5], {1}
     39c:	20215044 	eorcs	r5, r1, r4, asr #32
     3a0:	82340600 	eorshi	r0, r4, #0, 12
     3a4:	04e30000 	strbteq	r0, [r3], #0
     3a8:	03660000 	cmneq	r6, #0
     3ac:	01040000 	mrseq	r0, (UNDEF: 4)
     3b0:	c6080251 			; <UNDEFINED> instruction: 0xc6080251
     3b4:	05500104 	ldrbeq	r0, [r0, #-260]	; 0x104
     3b8:	2150480c 	cmpcs	r0, ip, lsl #16
     3bc:	40060020 	andmi	r0, r6, r0, lsr #32
     3c0:	e3000082 	movw	r0, #130	; 0x82
     3c4:	84000004 	strhi	r0, [r0], #-4
     3c8:	04000003 	streq	r0, [r0], #-3
     3cc:	0a035101 	beq	d47d8 <multiplylookup+0xcb108>
     3d0:	0104010e 	tsteq	r4, lr, lsl #2
     3d4:	680c0550 	stmdavs	ip, {r4, r6, r8, sl}
     3d8:	00202150 	eoreq	r2, r0, r0, asr r1
     3dc:	00824806 	addeq	r4, r2, r6, lsl #16
     3e0:	0004cb00 	andeq	ip, r4, r0, lsl #22
     3e4:	00039b00 	andeq	r9, r3, r0, lsl #22
     3e8:	50010400 	andpl	r0, r1, r0, lsl #8
     3ec:	00040c05 	andeq	r0, r4, r5, lsl #24
     3f0:	06002020 	streq	r2, [r0], -r0, lsr #32
     3f4:	00008258 	andeq	r8, r0, r8, asr r2
     3f8:	000004e3 	andeq	r0, r0, r3, ror #9
     3fc:	000003b2 			; <UNDEFINED> instruction: 0x000003b2
     400:	05500104 	ldrbeq	r0, [r0, #-260]	; 0x104
     404:	2000040c 	andcs	r0, r0, ip, lsl #8
     408:	64060020 	strvs	r0, [r6], #-32
     40c:	e3000082 	movw	r0, #130	; 0x82
     410:	ce000004 	cdpgt	0, 0, cr0, cr0, cr4, {0}
     414:	04000003 	streq	r0, [r0], #-3
     418:	30015101 	andcc	r5, r1, r1, lsl #2
     41c:	05500104 	ldrbeq	r0, [r0, #-260]	; 0x104
     420:	2000940c 	andcs	r9, r0, ip, lsl #8
     424:	74060020 	strvc	r0, [r6], #-32
     428:	fc000082 	stc2	0, cr0, [r0], {130}	; 0x82
     42c:	e2000004 	and	r0, r0, #4
     430:	04000003 	streq	r0, [r0], #-3
     434:	74025001 	strvc	r5, [r2], #-1
     438:	8806007f 	stmdahi	r6, {r0, r1, r2, r3, r4, r5, r6}
     43c:	e3000082 	movw	r0, #130	; 0x82
     440:	00000004 	andeq	r0, r0, r4
     444:	04000004 	streq	r0, [r0], #-4
     448:	0a035101 	beq	d4854 <multiplylookup+0xcb184>
     44c:	0104c000 	mrseq	ip, (UNDEF: 4)
     450:	980c0550 	stmdals	ip, {r4, r6, r8, sl}
     454:	00202000 	eoreq	r2, r0, r0
     458:	00829806 	addeq	r9, r2, r6, lsl #16
     45c:	0004fc00 	andeq	pc, r4, r0, lsl #24
     460:	00041400 	andeq	r1, r4, r0, lsl #8
     464:	50010400 	andpl	r0, r1, r0, lsl #8
     468:	007f7402 	rsbseq	r7, pc, r2, lsl #8
     46c:	0082ac06 	addeq	sl, r2, r6, lsl #24
     470:	0004e300 	andeq	lr, r4, r0, lsl #6
     474:	00043000 	andeq	r3, r4, r0
     478:	51010400 	tstpl	r1, r0, lsl #8
     47c:	01043001 	tsteq	r4, r1
     480:	980c0550 	stmdals	ip, {r4, r6, r8, sl}
     484:	00202000 	eoreq	r2, r0, r0
     488:	0082b803 	addeq	fp, r2, r3, lsl #16
     48c:	0004e300 	andeq	lr, r4, r0, lsl #6
     490:	51010400 	tstpl	r1, r0, lsl #8
     494:	01043301 	tsteq	r4, r1, lsl #6
     498:	600c0550 	andvs	r0, ip, r0, asr r5
     49c:	00202150 	eoreq	r2, r0, r0, asr r1
     4a0:	33010700 	movwcc	r0, #5888	; 0x1700
     4a4:	0100000f 	tsteq	r0, pc
     4a8:	82ec0185 	rschi	r0, ip, #1073741857	; 0x40000021
     4ac:	831c0000 	tsthi	ip, #0
     4b0:	02620000 	rsbeq	r0, r2, #0
     4b4:	99010000 	stmdbls	r1, {}	; <UNPREDICTABLE>
     4b8:	06000004 	streq	r0, [r0], -r4
     4bc:	00008300 	andeq	r8, r0, r0, lsl #6
     4c0:	000004e3 	andeq	r0, r0, r3, ror #9
     4c4:	0000047f 	andeq	r0, r0, pc, ror r4
     4c8:	04510104 	ldrbeq	r0, [r1], #-260	; 0x104
     4cc:	2440f908 	strbcs	pc, [r0], #-2312	; 0x908	; <UNPREDICTABLE>
     4d0:	02500104 	subseq	r0, r0, #4, 2
     4d4:	03000074 	movweq	r0, #116	; 0x74
     4d8:	0000830c 	andeq	r8, r0, ip, lsl #6
     4dc:	000004e3 	andeq	r0, r0, r3, ror #9
     4e0:	05510104 	ldrbeq	r0, [r1, #-260]	; 0x104
     4e4:	f902000c 			; <UNDEFINED> instruction: 0xf902000c
     4e8:	50010400 	andpl	r0, r1, r0, lsl #8
     4ec:	00007402 	andeq	r7, r0, r2, lsl #8
     4f0:	ba010200 	blt	40cf8 <multiplylookup+0x37628>
     4f4:	0100000b 	tsteq	r0, fp
     4f8:	005f018d 	subseq	r0, pc, sp, lsl #3
     4fc:	831c0000 	tsthi	ip, #0
     500:	83340000 	teqhi	r4, #0
     504:	02820000 	addeq	r0, r2, #0
     508:	cb010000 	blgt	40510 <multiplylookup+0x36e40>
     50c:	03000004 	movweq	r0, #4
     510:	00008328 	andeq	r8, r0, r8, lsr #6
     514:	000004cb 	andeq	r0, r0, fp, asr #9
     518:	05500104 	ldrbeq	r0, [r0, #-260]	; 0x104
     51c:	00b4200c 	adcseq	r2, r4, ip
     520:	0e000020 	cdpeq	0, 0, cr0, cr0, cr0, {1}
     524:	00036401 	andeq	r6, r3, r1, lsl #8
     528:	01080100 	mrseq	r0, (UNDEF: 24)
     52c:	0000005f 	andeq	r0, r0, pc, asr r0
     530:	0004e301 	andeq	lr, r4, r1, lsl #6
     534:	005f0f00 	subseq	r0, pc, r0, lsl #30
     538:	10000000 	andne	r0, r0, r0
     53c:	00231901 	eoreq	r1, r3, r1, lsl #18
     540:	01050100 	mrseq	r0, (UNDEF: 21)
     544:	0004fc01 	andeq	pc, r4, r1, lsl #24
     548:	005f0f00 	subseq	r0, pc, r0, lsl #30
     54c:	5f0f0000 	svcpl	0x000f0000
     550:	00000000 	andeq	r0, r0, r0
     554:	0b150111 	bleq	5409a0 <multiplylookup+0x5372d0>
     558:	0a010000 	beq	40560 <multiplylookup+0x36e90>
     55c:	5f0f0101 	svcpl	0x000f0101
     560:	00000000 	andeq	r0, r0, r0
     564:	00056b00 	andeq	r6, r5, r0, lsl #22
     568:	1d000200 	sfmne	f0, 4, [r0, #-0]
     56c:	04000001 	streq	r0, [r0], #-1
     570:	00140101 	andseq	r0, r4, r1, lsl #2
     574:	242c0100 	strtcs	r0, [ip], #-256	; 0x100
     578:	00230000 	eoreq	r0, r3, r0
     57c:	00600000 	rsbeq	r0, r0, r0
	...
     588:	01840000 	orreq	r0, r4, r0
     58c:	08c80000 	stmiaeq	r8, {}^	; <UNPREDICTABLE>
     590:	01020000 	mrseq	r0, (UNDEF: 2)
     594:	00002350 	andeq	r2, r0, r0, asr r3
     598:	ac013301 	stcge	3, cr3, [r1], {1}
     59c:	34000000 	strcc	r0, [r0], #-0
     5a0:	70000083 	andvc	r0, r0, r3, lsl #1
     5a4:	a2000083 	andge	r0, r0, #131	; 0x83
     5a8:	01000002 	tsteq	r0, r2
     5ac:	000000ac 	andeq	r0, r0, ip, lsr #1
     5b0:	00246c03 	eoreq	r6, r4, r3, lsl #24
     5b4:	ac330100 	ldfges	f0, [r3], #-0
     5b8:	c2000000 	andgt	r0, r0, #0
     5bc:	03000002 	movweq	r0, #2
     5c0:	00002449 	andeq	r2, r0, r9, asr #8
     5c4:	00ac3301 	adceq	r3, ip, r1, lsl #6
     5c8:	02e00000 	rsceq	r0, r0, #0
     5cc:	ab040000 	blge	1005d4 <multiplylookup+0xf6f04>
     5d0:	01000024 	tsteq	r0, r4, lsr #32
     5d4:	0000ac35 	andeq	sl, r0, r5, lsr ip
     5d8:	00b88000 	adcseq	r8, r8, r0
     5dc:	83480520 	movthi	r0, #34080	; 0x8520
     5e0:	04820000 	streq	r0, [r2], #0
     5e4:	008f0000 	addeq	r0, pc, r0
     5e8:	01060000 	mrseq	r0, (UNDEF: 6)
     5ec:	980c0550 	stmdals	ip, {r4, r6, r8, sl}
     5f0:	002000b8 	strheq	r0, [r0], -r8	; <UNPREDICTABLE>
     5f4:	00835c07 	addeq	r5, r3, r7, lsl #24
     5f8:	00049a00 	andeq	r9, r4, r0, lsl #20
     5fc:	51010600 	tstpl	r1, r0, lsl #12
     600:	74007505 	strvc	r7, [r0], #-1285	; 0x505
     604:	01062200 	mrseq	r2, LR_usr
     608:	a00c0550 	andge	r0, ip, r0, asr r5
     60c:	002000b8 	strheq	r0, [r0], -r8	; <UNPREDICTABLE>
     610:	07040800 	streq	r0, [r4, -r0, lsl #16]
     614:	000014af 	andeq	r1, r0, pc, lsr #9
     618:	24600102 	strbtcs	r0, [r0], #-258	; 0x102
     61c:	40010000 	andmi	r0, r1, r0
     620:	0000ac01 	andeq	sl, r0, r1, lsl #24
     624:	00837000 	addeq	r7, r3, r0
     628:	0083ac00 	addeq	sl, r3, r0, lsl #24
     62c:	0002fe00 	andeq	pc, r2, r0, lsl #28
     630:	01280100 	teqeq	r8, r0, lsl #2
     634:	49030000 	stmdbmi	r3, {}	; <UNPREDICTABLE>
     638:	01000024 	tsteq	r0, r4, lsr #32
     63c:	0000ac40 	andeq	sl, r0, r0, asr #24
     640:	00031e00 	andeq	r1, r3, r0, lsl #28
     644:	61720900 	cmnvs	r2, r0, lsl #18
     648:	ac420100 	stfgee	f0, [r2], {-0}
     64c:	3c000000 	stccc	0, cr0, [r0], {-0}
     650:	04000003 	streq	r0, [r0], #-3
     654:	000024ab 	andeq	r2, r0, fp, lsr #9
     658:	00ac4301 	adceq	r4, ip, r1, lsl #6
     65c:	b8800000 	stmlt	r0, {}	; <UNPREDICTABLE>
     660:	80052000 	andhi	r2, r5, r0
     664:	82000083 	andhi	r0, r0, #131	; 0x83
     668:	14000004 	strne	r0, [r0], #-4
     66c:	06000001 	streq	r0, [r0], -r1
     670:	0c055001 	stceq	0, cr5, [r5], {1}
     674:	2000b898 	mulcs	r0, r8, r8
     678:	83900700 	orrshi	r0, r0, #0, 14
     67c:	04820000 	streq	r0, [r2], #0
     680:	01060000 	mrseq	r0, (UNDEF: 6)
     684:	800c0550 	andhi	r0, ip, r0, asr r5
     688:	002000b8 	strheq	r0, [r0], -r8	; <UNPREDICTABLE>
     68c:	a3010200 	movwge	r0, #4608	; 0x1200
     690:	01000024 	tsteq	r0, r4, lsr #32
     694:	04510159 	ldrbeq	r0, [r1], #-345	; 0x159
     698:	83ac0000 			; <UNDEFINED> instruction: 0x83ac0000
     69c:	85500000 	ldrbhi	r0, [r0, #-0]
     6a0:	035a0000 	cmpeq	sl, #0
     6a4:	51010000 	mrspl	r0, (UNDEF: 1)
     6a8:	0a000004 	beq	6c0 <_start-0x7940>
     6ac:	01006172 	tsteq	r0, r2, ror r1
     6b0:	0000ac5b 	andeq	sl, r0, fp, asr ip
     6b4:	72090000 	andvc	r0, r9, #0
     6b8:	5b010062 	blpl	40848 <multiplylookup+0x37178>
     6bc:	000000ac 	andeq	r0, r0, ip, lsr #1
     6c0:	00000386 	andeq	r0, r0, r6, lsl #7
     6c4:	0079720b 	rsbseq	r7, r9, fp, lsl #4
     6c8:	00ac5c01 	adceq	r5, ip, r1, lsl #24
     6cc:	720b0000 	andvc	r0, fp, #0
     6d0:	5c010078 	stcpl	0, cr0, [r1], {120}	; 0x78
     6d4:	000000ac 	andeq	r0, r0, ip, lsr #1
     6d8:	01006909 	tsteq	r0, r9, lsl #18
     6dc:	00045170 	andeq	r5, r4, r0, ror r1
     6e0:	00039e00 	andeq	r9, r3, r0, lsl #28
     6e4:	24990c00 	ldrcs	r0, [r9], #3072	; 0xc00
     6e8:	7e010000 	cdpvc	0, 0, cr0, cr1, cr0, {0}
     6ec:	00000451 	andeq	r0, r0, r1, asr r4
     6f0:	000003be 			; <UNDEFINED> instruction: 0x000003be
     6f4:	0023a10d 	eoreq	sl, r3, sp, lsl #2
     6f8:	517f0100 	cmnpl	pc, r0, lsl #2
     6fc:	0e000004 	cdpeq	0, 0, cr0, cr0, cr4, {0}
     700:	00244001 	eoreq	r4, r4, r1
     704:	51860100 	orrpl	r0, r6, r0, lsl #2
     708:	01000004 	tsteq	r0, r4
     70c:	000001ad 	andeq	r0, r0, sp, lsr #3
     710:	9810000f 	ldmdals	r0, {r0, r1, r2, r3}
     714:	d0000084 	andle	r0, r0, r4, lsl #1
     718:	27000084 	strcs	r0, [r0, -r4, lsl #1]
     71c:	0e000002 	cdpeq	0, 0, cr0, cr0, cr2, {0}
     720:	00244001 	eoreq	r4, r4, r1
     724:	51860100 	orrpl	r0, r6, r0, lsl #2
     728:	01000004 	tsteq	r0, r4
     72c:	000001cd 	andeq	r0, r0, sp, asr #3
     730:	a011000f 	andsge	r0, r1, pc
     734:	b3000084 	movwlt	r0, #132	; 0x84
     738:	05000004 	streq	r0, [r0, #-4]
     73c:	000084bc 			; <UNDEFINED> instruction: 0x000084bc
     740:	000004c6 	andeq	r0, r0, r6, asr #9
     744:	00000205 	andeq	r0, r0, r5, lsl #4
     748:	03530106 	cmpeq	r3, #-2147483647	; 0x80000001
     74c:	06012c0a 	streq	r2, [r1], -sl, lsl #24
     750:	0a035201 	beq	d4f5c <multiplylookup+0xcb88c>
     754:	0106012c 	tsteq	r6, ip, lsr #2
     758:	32080251 	andcc	r0, r8, #268435461	; 0x10000005
     75c:	02500106 	subseq	r0, r0, #-2147483647	; 0x80000001
     760:	02063208 	andeq	r3, r6, #8, 4	; 0x80000000
     764:	7602007d 			; <UNDEFINED> instruction: 0x7602007d
     768:	c0110000 	andsgt	r0, r1, r0
     76c:	b3000084 	movwlt	r0, #132	; 0x84
     770:	11000004 	tstne	r0, r4
     774:	000084c8 	andeq	r8, r0, r8, asr #9
     778:	000004d9 	ldrdeq	r0, [r0], -r9
     77c:	0084d007 	addeq	sp, r4, r7
     780:	0004ed00 	andeq	lr, r4, r0, lsl #26
     784:	50010600 	andpl	r0, r1, r0, lsl #12
     788:	00003001 	andeq	r3, r0, r1
     78c:	0083b811 	addeq	fp, r3, r1, lsl r8
     790:	00050100 	andeq	r0, r5, r0, lsl #2
     794:	83bc1100 			; <UNDEFINED> instruction: 0x83bc1100
     798:	050b0000 	streq	r0, [fp, #-0]
     79c:	c8050000 	stmdagt	r5, {}	; <UNPREDICTABLE>
     7a0:	9a000083 	bls	9b4 <_start-0x764c>
     7a4:	57000004 	strpl	r0, [r0, -r4]
     7a8:	06000002 	streq	r0, [r0], -r2
     7ac:	0a035101 	beq	d4bb8 <multiplylookup+0xcb4e8>
     7b0:	01060280 	smlabbeq	r6, r0, r2, r0
     7b4:	000c0550 	andeq	r0, ip, r0, asr r5
     7b8:	00400400 	subeq	r0, r0, r0, lsl #8
     7bc:	0083d405 	addeq	sp, r3, r5, lsl #8
     7c0:	00049a00 	andeq	r9, r4, r0, lsl #20
     7c4:	00027500 	andeq	r7, r2, r0, lsl #10
     7c8:	51010600 	tstpl	r1, r0, lsl #12
     7cc:	01e00a03 	mvneq	r0, r3, lsl #20
     7d0:	05500106 	ldrbeq	r0, [r0, #-262]	; 0x106
     7d4:	0400040c 	streq	r0, [r0], #-1036	; 0x40c
     7d8:	e0050040 	and	r0, r5, r0, asr #32
     7dc:	9a000083 	bls	9f0 <_start-0x7610>
     7e0:	93000004 	movwls	r0, #4
     7e4:	06000002 	streq	r0, [r0], -r2
     7e8:	0a035101 	beq	d4bf4 <multiplylookup+0xcb524>
     7ec:	01060280 	smlabbeq	r6, r0, r2, r0
     7f0:	080c0550 	stmdaeq	ip, {r4, r6, r8, sl}
     7f4:	00400400 	subeq	r0, r0, r0, lsl #8
     7f8:	0083ec05 	addeq	lr, r3, r5, lsl #24
     7fc:	00049a00 	andeq	r9, r4, r0, lsl #20
     800:	0002b100 	andeq	fp, r2, r0, lsl #2
     804:	51010600 	tstpl	r1, r0, lsl #12
     808:	01e00a03 	mvneq	r0, r3, lsl #20
     80c:	05500106 	ldrbeq	r0, [r0, #-262]	; 0x106
     810:	04000c0c 	streq	r0, [r0], #-3084	; 0xc0c
     814:	f8050040 			; <UNDEFINED> instruction: 0xf8050040
     818:	9a000083 	bls	a2c <_start-0x75d4>
     81c:	cd000004 	stcgt	0, cr0, [r0, #-16]
     820:	06000002 	streq	r0, [r0], -r2
     824:	30015101 	andcc	r5, r1, r1, lsl #2
     828:	05500106 	ldrbeq	r0, [r0, #-262]	; 0x106
     82c:	0400100c 	streq	r1, [r0], #-12
     830:	04050040 	streq	r0, [r5], #-64	; 0x40
     834:	9a000084 	bls	a4c <_start-0x75b4>
     838:	e9000004 	stmdb	r0, {r2}
     83c:	06000002 	streq	r0, [r0], -r2
     840:	40015101 	andmi	r5, r1, r1, lsl #2
     844:	05500106 	ldrbeq	r0, [r0, #-262]	; 0x106
     848:	0400140c 	streq	r1, [r0], #-1036	; 0x40c
     84c:	10050040 	andne	r0, r5, r0, asr #32
     850:	9a000084 	bls	a68 <_start-0x7598>
     854:	05000004 	streq	r0, [r0, #-4]
     858:	06000003 	streq	r0, [r0], -r3
     85c:	30015101 	andcc	r5, r1, r1, lsl #2
     860:	05500106 	ldrbeq	r0, [r0, #-262]	; 0x106
     864:	0400180c 	streq	r1, [r0], #-2060	; 0x80c
     868:	1c050040 	stcne	0, cr0, [r5], {64}	; 0x40
     86c:	9a000084 	bls	a84 <_start-0x757c>
     870:	21000004 	tstcs	r0, r4
     874:	06000003 	streq	r0, [r0], -r3
     878:	30015101 	andcc	r5, r1, r1, lsl #2
     87c:	05500106 	ldrbeq	r0, [r0, #-262]	; 0x106
     880:	04001c0c 	streq	r1, [r0], #-3084	; 0xc0c
     884:	28050040 	stmdacs	r5, {r6}
     888:	9a000084 	bls	aa0 <_start-0x7560>
     88c:	3d000004 	stccc	0, cr0, [r0, #-16]
     890:	06000003 	streq	r0, [r0], -r3
     894:	30015101 	andcc	r5, r1, r1, lsl #2
     898:	05500106 	ldrbeq	r0, [r0, #-262]	; 0x106
     89c:	0400200c 	streq	r2, [r0], #-12
     8a0:	34050040 	strcc	r0, [r5], #-64	; 0x40
     8a4:	9a000084 	bls	abc <_start-0x7544>
     8a8:	59000004 	stmdbpl	r0, {r2}
     8ac:	06000003 	streq	r0, [r0], -r3
     8b0:	30015101 	andcc	r5, r1, r1, lsl #2
     8b4:	05500106 	ldrbeq	r0, [r0, #-262]	; 0x106
     8b8:	0400240c 	streq	r2, [r0], #-1036	; 0x40c
     8bc:	40050040 	andmi	r0, r5, r0, asr #32
     8c0:	2d000084 	stccs	0, cr0, [r0, #-528]	; 0xfffffdf0
     8c4:	75000000 	strvc	r0, [r0, #-0]
     8c8:	06000003 	streq	r0, [r0], -r3
     8cc:	31015101 	tstcc	r1, r1, lsl #2
     8d0:	05500106 	ldrbeq	r0, [r0, #-262]	; 0x106
     8d4:	0400000c 	streq	r0, [r0], #-12
     8d8:	48050040 	stmdami	r5, {r6}
     8dc:	b3000084 	movwlt	r0, #132	; 0x84
     8e0:	88000000 	stmdahi	r0, {}	; <UNPREDICTABLE>
     8e4:	06000003 	streq	r0, [r0], -r3
     8e8:	31015001 	tstcc	r1, r1
     8ec:	84680500 	strbthi	r0, [r8], #-1280	; 0x500
     8f0:	04820000 	streq	r0, [r2], #0
     8f4:	039f0000 	orrseq	r0, pc, #0
     8f8:	01060000 	mrseq	r0, (UNDEF: 6)
     8fc:	200c0550 	andcs	r0, ip, r0, asr r5
     900:	00400400 	subeq	r0, r0, r0, lsl #8
     904:	00848405 	addeq	r8, r4, r5, lsl #8
     908:	00051500 	andeq	r1, r5, r0, lsl #10
     90c:	0003cf00 	andeq	ip, r3, r0, lsl #30
     910:	53010600 	movwpl	r0, #5632	; 0x1600
     914:	01430a03 	cmpeq	r3, r3, lsl #20
     918:	02520106 	subseq	r0, r2, #-2147483647	; 0x80000001
     91c:	01066808 	tsteq	r6, r8, lsl #16
     920:	23080251 	movwcs	r0, #33361	; 0x8251
     924:	03500106 	cmpeq	r0, #-2147483647	; 0x80000001
     928:	06021c0a 	streq	r1, [r2], -sl, lsl #24
     92c:	03007d02 	movweq	r7, #3330	; 0xd02
     930:	00f8000a 	rscseq	r0, r8, sl
     934:	00848c05 	addeq	r8, r4, r5, lsl #24
     938:	0004ed00 	andeq	lr, r4, r0, lsl #26
     93c:	0003e200 	andeq	lr, r3, r0, lsl #4
     940:	50010600 	andpl	r0, r1, r0, lsl #12
     944:	05003001 	streq	r3, [r0, #-1]
     948:	00008494 	muleq	r0, r4, r4
     94c:	0000053d 	andeq	r0, r0, sp, lsr r5
     950:	000003f9 	strdeq	r0, [r0], -r9
     954:	05500106 	ldrbeq	r0, [r0, #-262]	; 0x106
     958:	008e9403 	addeq	r9, lr, r3, lsl #8
     95c:	f4050000 	vst4.8	{d0-d3}, [r5], r0
     960:	c6000084 	strgt	r0, [r0], -r4, lsl #1
     964:	28000004 	stmdacs	r0, {r2}
     968:	06000004 	streq	r0, [r0], -r4
     96c:	0a035301 	beq	d5578 <multiplylookup+0xcbea8>
     970:	0106012c 	tsteq	r6, ip, lsr #2
     974:	2c0a0352 	stccs	3, cr0, [sl], {82}	; 0x52
     978:	51010601 	tstpl	r1, r1, lsl #12
     97c:	06320802 	ldrteq	r0, [r2], -r2, lsl #16
     980:	08025001 	stmdaeq	r2, {r0, ip, lr}
     984:	7d020632 	stcvc	6, cr0, [r2, #-200]	; 0xffffff38
     988:	00760200 	rsbseq	r0, r6, r0, lsl #4
     98c:	84fc0500 	ldrbthi	r0, [ip], #1280	; 0x500
     990:	053d0000 	ldreq	r0, [sp, #-0]!
     994:	043f0000 	ldrteq	r0, [pc], #-0	; 99c <_start-0x7664>
     998:	01060000 	mrseq	r0, (UNDEF: 6)
     99c:	a0030550 	andge	r0, r3, r0, asr r5
     9a0:	0000008e 	andeq	r0, r0, lr, lsl #1
     9a4:	00850407 	addeq	r0, r5, r7, lsl #8
     9a8:	00055e00 	andeq	r5, r5, r0, lsl #28
     9ac:	50010600 	andpl	r0, r1, r0, lsl #12
     9b0:	13880a03 	orrne	r0, r8, #12288	; 0x3000
     9b4:	04120000 	ldreq	r0, [r2], #-0
     9b8:	746e6905 	strbtvc	r6, [lr], #-2309	; 0x905
     9bc:	04511300 	ldrbeq	r1, [r1], #-768	; 0x300
     9c0:	04690000 	strbteq	r0, [r9], #-0
     9c4:	69140000 	ldmdbvs	r4, {}	; <UNPREDICTABLE>
     9c8:	7f000004 	svcvc	0x00000004
     9cc:	04080002 	streq	r0, [r8], #-2
     9d0:	00249007 	eoreq	r9, r4, r7
     9d4:	24511500 	ldrbcs	r1, [r1], #-1280	; 0x500
     9d8:	22010000 	andcs	r0, r1, #0
     9dc:	00000458 	andeq	r0, r0, r8, asr r4
     9e0:	d0030501 	andle	r0, r3, r1, lsl #10
     9e4:	16000096 			; <UNDEFINED> instruction: 0x16000096
     9e8:	00036401 	andeq	r6, r3, r1, lsl #8
     9ec:	01040200 	mrseq	r0, R12_usr
     9f0:	000000ac 	andeq	r0, r0, ip, lsr #1
     9f4:	00049a01 	andeq	r9, r4, r1, lsl #20
     9f8:	00ac1700 	adceq	r1, ip, r0, lsl #14
     9fc:	18000000 	stmdane	r0, {}	; <UNPREDICTABLE>
     a00:	00231901 	eoreq	r1, r3, r1, lsl #18
     a04:	01010200 	mrseq	r0, R9_usr
     a08:	0004b301 	andeq	fp, r4, r1, lsl #6
     a0c:	00ac1700 	adceq	r1, ip, r0, lsl #14
     a10:	ac170000 	ldcge	0, cr0, [r7], {-0}
     a14:	00000000 	andeq	r0, r0, r0
     a18:	2343010e 	movtcs	r0, #12558	; 0x310e
     a1c:	02030000 	andeq	r0, r3, #0
     a20:	000000ac 	andeq	r0, r0, ip, lsr #1
     a24:	0004c601 	andeq	ip, r4, r1, lsl #12
     a28:	0e000f00 	cdpeq	15, 0, cr0, cr0, cr0, {0}
     a2c:	00244001 	eoreq	r4, r4, r1
     a30:	51860100 	orrpl	r0, r6, r0, lsl #2
     a34:	01000004 	tsteq	r0, r4
     a38:	000004d9 	ldrdeq	r0, [r0], -r9
     a3c:	0118000f 	tsteq	r8, pc
     a40:	00001646 	andeq	r1, r0, r6, asr #12
     a44:	01011f04 	tsteq	r1, r4, lsl #30
     a48:	000004ed 	andeq	r0, r0, sp, ror #9
     a4c:	0000ac17 	andeq	sl, r0, r7, lsl ip
     a50:	01180000 	tsteq	r8, r0
     a54:	00002436 	andeq	r2, r0, r6, lsr r4
     a58:	01010205 	tsteq	r1, r5, lsl #4
     a5c:	00000501 	andeq	r0, r0, r1, lsl #10
     a60:	00045117 	andeq	r5, r4, r7, lsl r1
     a64:	01190000 	tsteq	r9, r0
     a68:	000002fd 	strdeq	r0, [r0], -sp
     a6c:	01012004 	tsteq	r1, r4
     a70:	0f330119 	svceq	0x00330119
     a74:	21040000 	mrscs	r0, (UNDEF: 4)
     a78:	01180101 	tsteq	r8, r1, lsl #2
     a7c:	000023de 	ldrdeq	r2, [r0], -lr
     a80:	01010405 	tsteq	r1, r5, lsl #8
     a84:	0000053d 	andeq	r0, r0, sp, lsr r5
     a88:	00045117 	andeq	r5, r4, r7, lsl r1
     a8c:	04511700 	ldrbeq	r1, [r1], #-1792	; 0x700
     a90:	51170000 	tstpl	r7, r0
     a94:	17000004 	strne	r0, [r0, -r4]
     a98:	00000451 	andeq	r0, r0, r1, asr r4
     a9c:	0000ac17 	andeq	sl, r0, r7, lsl ip
     aa0:	01180000 	tsteq	r8, r0
     aa4:	0000113c 	andeq	r1, r0, ip, lsr r1
     aa8:	01011b04 	tsteq	r1, r4, lsl #22
     aac:	00000551 	andeq	r0, r0, r1, asr r5
     ab0:	00055117 	andeq	r5, r5, r7, lsl r1
     ab4:	041a0000 	ldreq	r0, [sl], #-0
     ab8:	00000557 	andeq	r0, r0, r7, asr r5
     abc:	cf080108 	svcgt	0x00080108
     ac0:	1b000007 	blne	ae4 <_start-0x751c>
     ac4:	00237201 	eoreq	r7, r3, r1, lsl #4
     ac8:	01030300 	mrseq	r0, SP_svc
     acc:	00ac1701 	adceq	r1, ip, r1, lsl #14
     ad0:	00000000 	andeq	r0, r0, r0
     ad4:	00000056 	andeq	r0, r0, r6, asr r0
     ad8:	029c0002 	addseq	r0, ip, #2
     adc:	01040000 	mrseq	r0, (UNDEF: 4)
     ae0:	0000027f 	andeq	r0, r0, pc, ror r2
     ae4:	00008550 	andeq	r8, r0, r0, asr r5
     ae8:	00008658 	andeq	r8, r0, r8, asr r6
     aec:	636e7566 	cmnvs	lr, #427819008	; 0x19800000
     af0:	6e6f6974 	mcrvs	9, 3, r6, cr15, cr4, {3}
     af4:	00732e73 	rsbseq	r2, r3, r3, ror lr
     af8:	6573552f 	ldrbvs	r5, [r3, #-1327]!	; 0x52f
     afc:	6d2f7372 	stcvs	3, cr7, [pc, #-456]!	; 93c <_start-0x76c4>
     b00:	616c6f6e 	cmnvs	ip, lr, ror #30
     b04:	69672f6e 	stmdbvs	r7!, {r1, r2, r3, r5, r6, r8, r9, sl, fp, sp}^
     b08:	61722f74 	cmnvs	r2, r4, ror pc
     b0c:	65627073 	strbvs	r7, [r2, #-115]!	; 0x73
     b10:	70797272 	rsbsvc	r7, r9, r2, ror r2
     b14:	69762f69 	ldmdbvs	r6!, {r0, r3, r5, r6, r8, r9, sl, fp, sp}^
     b18:	306f6564 	rsbcc	r6, pc, r4, ror #10
     b1c:	4e470031 	mcrmi	0, 2, r0, cr7, cr1, {1}
     b20:	53412055 	movtpl	r2, #4181	; 0x1055
     b24:	322e3220 	eorcc	r3, lr, #32, 4
     b28:	00312e33 	eorseq	r2, r1, r3, lsr lr
     b2c:	00528001 	subseq	r8, r2, r1
     b30:	00020000 	andeq	r0, r2, r0
     b34:	000002b0 			; <UNDEFINED> instruction: 0x000002b0
     b38:	03040104 	movweq	r0, #16644	; 0x4104
     b3c:	86580000 	ldrbhi	r0, [r8], -r0
     b40:	86980000 	ldrhi	r0, [r8], r0
     b44:	69740000 	ldmdbvs	r4!, {}^	; <UNPREDICTABLE>
     b48:	2e72656d 	cdpcs	5, 7, cr6, cr2, cr13, {3}
     b4c:	552f0073 	strpl	r0, [pc, #-115]!	; ae1 <_start-0x751f>
     b50:	73726573 	cmnvc	r2, #482344960	; 0x1cc00000
     b54:	6f6e6d2f 	svcvs	0x006e6d2f
     b58:	2f6e616c 	svccs	0x006e616c
     b5c:	2f746967 	svccs	0x00746967
     b60:	70736172 	rsbsvc	r6, r3, r2, ror r1
     b64:	72726562 	rsbsvc	r6, r2, #411041792	; 0x18800000
     b68:	2f697079 	svccs	0x00697079
     b6c:	65646976 	strbvs	r6, [r4, #-2422]!	; 0x976
     b70:	0031306f 	eorseq	r3, r1, pc, rrx
     b74:	20554e47 	subscs	r4, r5, r7, asr #28
     b78:	32205341 	eorcc	r5, r0, #67108865	; 0x4000001
     b7c:	2e33322e 	cdpcs	2, 3, cr3, cr3, cr14, {1}
     b80:	80010031 	andhi	r0, r1, r1, lsr r0
     b84:	00000277 	andeq	r0, r0, r7, ror r2
     b88:	02c40002 	sbceq	r0, r4, #2
     b8c:	01040000 	mrseq	r0, (UNDEF: 4)
     b90:	00001401 	andeq	r1, r0, r1, lsl #8
     b94:	0024c501 	eoreq	ip, r4, r1, lsl #10
     b98:	00002300 	andeq	r2, r0, r0, lsl #6
     b9c:	00008000 	andeq	r8, r0, r0
	...
     ba8:	00034a00 	andeq	r4, r3, r0, lsl #20
     bac:	00092000 	andeq	r2, r9, r0
     bb0:	b3010200 	movwlt	r0, #4608	; 0x1200
     bb4:	01000024 	tsteq	r0, r4, lsr #32
     bb8:	00680104 	rsbeq	r0, r8, r4, lsl #2
     bbc:	68010000 	stmdavs	r1, {}	; <UNPREDICTABLE>
     bc0:	03000000 	movweq	r0, #0
     bc4:	01007363 	tsteq	r0, r3, ror #6
     bc8:	00006f04 	andeq	r6, r0, r4, lsl #30
     bcc:	74630300 	strbtvc	r0, [r3], #-768	; 0x300
     bd0:	6f040100 	svcvs	0x00040100
     bd4:	04000000 	streq	r0, [r0], #-0
     bd8:	01003163 	tsteq	r0, r3, ror #2
     bdc:	00008106 	andeq	r8, r0, r6, lsl #2
     be0:	32630400 	rsbcc	r0, r3, #0, 8
     be4:	81060100 	mrshi	r0, (UNDEF: 22)
     be8:	00000000 	andeq	r0, r0, r0
     bec:	69050405 	stmdbvs	r5, {r0, r2, sl}
     bf0:	0600746e 	streq	r7, [r0], -lr, ror #8
     bf4:	00007504 	andeq	r7, r0, r4, lsl #10
     bf8:	007a0700 	rsbseq	r0, sl, r0, lsl #14
     bfc:	01080000 	mrseq	r0, (UNDEF: 8)
     c00:	0007cf08 	andeq	ip, r7, r8, lsl #30
     c04:	08010800 	stmdaeq	r1, {fp}
     c08:	00000660 	andeq	r0, r0, r0, ror #12
     c0c:	00002d09 	andeq	r2, r0, r9, lsl #26
     c10:	00869800 	addeq	r9, r6, r0, lsl #16
     c14:	0086c800 	addeq	ip, r6, r0, lsl #16
     c18:	007d0200 	rsbseq	r0, sp, r0, lsl #4
     c1c:	0000c201 	andeq	ip, r0, r1, lsl #4
     c20:	003f0a00 	eorseq	r0, pc, r0, lsl #20
     c24:	03dc0000 	bicseq	r0, ip, #0
     c28:	490a0000 	stmdbmi	sl, {}	; <UNPREDICTABLE>
     c2c:	33000000 	movwcc	r0, #0
     c30:	0b000004 	bleq	c48 <_start-0x73b8>
     c34:	00000053 	andeq	r0, r0, r3, asr r0
     c38:	5001f303 	andpl	pc, r1, r3, lsl #6
     c3c:	00005d0b 	andeq	r5, r0, fp, lsl #26
     c40:	01f30300 	mvnseq	r0, r0, lsl #6
     c44:	010c0051 	qaddeq	r0, r1, ip
     c48:	000024d7 	ldrdeq	r2, [r0], -r7
     c4c:	68011201 	stmdavs	r1, {r0, r9, ip}
     c50:	c8000000 	stmdagt	r0, {}	; <UNPREDICTABLE>
     c54:	1c000086 	stcne	0, cr0, [r0], {134}	; 0x86
     c58:	5f000088 	svcpl	0x00000088
     c5c:	01000004 	tsteq	r0, r4
     c60:	00000214 	andeq	r0, r0, r4, lsl r2
     c64:	0024d00d 	eoreq	sp, r4, sp
     c68:	14120100 	ldrne	r0, [r2], #-256	; 0x100
     c6c:	8c000002 	stchi	0, cr0, [r0], {2}
     c70:	0e000004 	cdpeq	0, 0, cr0, cr0, cr4, {0}
     c74:	12010078 	andne	r0, r1, #120	; 0x78
     c78:	00000068 	andeq	r0, r0, r8, rrx
     c7c:	000004c0 	andeq	r0, r0, r0, asr #9
     c80:	0100790e 	tsteq	r0, lr, lsl #18
     c84:	00006812 	andeq	r6, r0, r2, lsl r8
     c88:	0004ff00 	andeq	pc, r4, r0, lsl #30
     c8c:	6d630f00 	stclvs	15, cr0, [r3, #-0]
     c90:	13010064 	movwne	r0, #4196	; 0x1064
     c94:	0000021a 	andeq	r0, r0, sl, lsl r2
     c98:	7e989103 	cosvce	f1, f3
     c9c:	6772610f 	ldrbvs	r6, [r2, -pc, lsl #2]!
     ca0:	1a140100 	bne	5010a8 <multiplylookup+0x4f79d8>
     ca4:	03000002 	movweq	r0, #2
     ca8:	107efc91 			; <UNDEFINED> instruction: 0x107efc91
     cac:	15010069 	strne	r0, [r1, #-105]	; 0x69
     cb0:	00000068 	andeq	r0, r0, r8, rrx
     cb4:	0000053e 	andeq	r0, r0, lr, lsr r5
     cb8:	00306910 	eorseq	r6, r0, r0, lsl r9
     cbc:	00681e01 	rsbeq	r1, r8, r1, lsl #28
     cc0:	05b30000 	ldreq	r0, [r3, #0]!
     cc4:	2d110000 	ldccs	0, cr0, [r1, #-0]
     cc8:	84000000 	strhi	r0, [r0], #-0
     ccc:	9c000087 	stcls	0, cr0, [r0], {135}	; 0x87
     cd0:	01000087 	smlabbeq	r0, r7, r0, r0
     cd4:	00018027 	andeq	r8, r1, r7, lsr #32
     cd8:	00490a00 	subeq	r0, r9, r0, lsl #20
     cdc:	05d10000 	ldrbeq	r0, [r1]
     ce0:	3f0a0000 	svccc	0x000a0000
     ce4:	e9000000 	stmdb	r0, {}	; <UNPREDICTABLE>
     ce8:	12000005 	andne	r0, r0, #5
     cec:	00008784 	andeq	r8, r0, r4, lsl #15
     cf0:	0000879c 	muleq	r0, ip, r7
     cf4:	00005313 	andeq	r5, r0, r3, lsl r3
     cf8:	0005fc00 	andeq	pc, r5, r0, lsl #24
     cfc:	005d1400 	subseq	r1, sp, r0, lsl #8
     d00:	00000000 	andeq	r0, r0, r0
     d04:	00872015 	addeq	r2, r7, r5, lsl r0
     d08:	00023100 	andeq	r3, r2, r0, lsl #2
     d0c:	00019400 	andeq	r9, r1, r0, lsl #8
     d10:	50011600 	andpl	r1, r1, r0, lsl #12
     d14:	007f7402 	rsbseq	r7, pc, r2, lsl #8
     d18:	00876c15 	addeq	r6, r7, r5, lsl ip
     d1c:	00024c00 	andeq	r4, r2, r0, lsl #24
     d20:	0001a800 	andeq	sl, r1, r0, lsl #16
     d24:	50011600 	andpl	r1, r1, r0, lsl #12
     d28:	00007702 	andeq	r7, r0, r2, lsl #14
     d2c:	00877415 	addeq	r7, r7, r5, lsl r4
     d30:	00024c00 	andeq	r4, r2, r0, lsl #24
     d34:	0001bf00 	andeq	fp, r1, r0, lsl #30
     d38:	50011600 	andpl	r1, r1, r0, lsl #12
     d3c:	8ea00305 	cdphi	3, 10, cr0, cr0, cr5, {0}
     d40:	15000000 	strne	r0, [r0, #-0]
     d44:	0000877c 	andeq	r8, r0, ip, ror r7
     d48:	0000024c 	andeq	r0, r0, ip, asr #4
     d4c:	000001d3 	ldrdeq	r0, [r0], -r3
     d50:	02500116 	subseq	r0, r0, #-2147483643	; 0x80000005
     d54:	1500007a 	strne	r0, [r0, #-122]	; 0x7a
     d58:	000087b4 			; <UNDEFINED> instruction: 0x000087b4
     d5c:	0000024c 	andeq	r0, r0, ip, asr #4
     d60:	000001ea 	andeq	r0, r0, sl, ror #3
     d64:	05500116 	ldrbeq	r0, [r0, #-278]	; 0x116
     d68:	008eac03 	addeq	sl, lr, r3, lsl #24
     d6c:	c4150000 	ldrgt	r0, [r5], #-0
     d70:	60000087 	andvs	r0, r0, r7, lsl #1
     d74:	0a000002 	beq	d84 <_start-0x727c>
     d78:	16000002 	strne	r0, [r0], -r2
     d7c:	75025201 	strvc	r5, [r2, #-513]	; 0x201
     d80:	51011600 	tstpl	r1, r0, lsl #12
     d84:	16007602 	strne	r7, [r0], -r2, lsl #12
     d88:	7a025001 	bvc	94d94 <multiplylookup+0x8b6c4>
     d8c:	d8170000 	ldmdale	r7, {}	; <UNPREDICTABLE>
     d90:	31000087 	smlabbcc	r0, r7, r0, r0
     d94:	00000002 	andeq	r0, r0, r2
     d98:	007a0406 	rsbseq	r0, sl, r6, lsl #8
     d9c:	7a180000 	bvc	600da4 <multiplylookup+0x5f76d4>
     da0:	2a000000 	bcs	da8 <_start-0x7258>
     da4:	19000002 	stmdbne	r0, {r1}
     da8:	0000022a 	andeq	r0, r0, sl, lsr #4
     dac:	04080063 	streq	r0, [r8], #-99	; 0x63
     db0:	00249007 	eoreq	r9, r4, r7
     db4:	46011a00 	strmi	r1, [r1], -r0, lsl #20
     db8:	02000016 	andeq	r0, r0, #22
     dbc:	4501011f 	strmi	r0, [r1, #-287]	; 0x11f
     dc0:	1b000002 	blne	dd0 <_start-0x7230>
     dc4:	00000245 	andeq	r0, r0, r5, asr #4
     dc8:	07040800 	streq	r0, [r4, -r0, lsl #16]
     dcc:	000014af 	andeq	r1, r0, pc, lsr #9
     dd0:	113c011a 	teqne	ip, sl, lsl r1
     dd4:	1b020000 	blne	80ddc <multiplylookup+0x7770c>
     dd8:	02600101 	rsbeq	r0, r0, #1073741824	; 0x40000000
     ddc:	141b0000 	ldrne	r0, [fp], #-0
     de0:	00000002 	andeq	r0, r0, r2
     de4:	24ba011c 	ldrtcs	r0, [sl], #284	; 0x11c
     de8:	05030000 	streq	r0, [r3, #-0]
     dec:	141b0101 	ldrne	r0, [fp], #-257	; 0x101
     df0:	1b000002 	blne	e00 <_start-0x7200>
     df4:	00000068 	andeq	r0, r0, r8, rrx
     df8:	0000681b 	andeq	r6, r0, fp, lsl r8
     dfc:	92000000 	andls	r0, r0, #0
     e00:	02000008 	andeq	r0, r0, #8
     e04:	00043900 	andeq	r3, r4, r0, lsl #18
     e08:	01010400 	tsteq	r1, r0, lsl #8
     e0c:	01000014 	tsteq	r0, r4, lsl r0
     e10:	000024f2 	strdeq	r2, [r0], -r2	; <UNPREDICTABLE>
     e14:	00000023 	andeq	r0, r0, r3, lsr #32
     e18:	00000248 	andeq	r0, r0, r8, asr #4
	...
     e24:	000003f4 	strdeq	r0, [r0], -r4
     e28:	0000093e 	andeq	r0, r0, lr, lsr r9
     e2c:	25240102 	strcs	r0, [r4, #-258]!	; 0x102
     e30:	26010000 	strcs	r0, [r1], -r0
     e34:	00660301 	rsbeq	r0, r6, r1, lsl #6
     e38:	78030000 	stmdavc	r3, {}	; <UNPREDICTABLE>
     e3c:	66260100 	strtvs	r0, [r6], -r0, lsl #2
     e40:	03000000 	movweq	r0, #0
     e44:	26010079 			; <UNDEFINED> instruction: 0x26010079
     e48:	00000066 	andeq	r0, r0, r6, rrx
     e4c:	0023a104 	eoreq	sl, r3, r4, lsl #2
     e50:	66260100 	strtvs	r0, [r6], -r0, lsl #2
     e54:	05000000 	streq	r0, [r0, #-0]
     e58:	00250206 	eoreq	r0, r5, r6, lsl #4
     e5c:	66280100 	strtvs	r0, [r8], -r0, lsl #2
     e60:	00000000 	andeq	r0, r0, r0
     e64:	05040700 	streq	r0, [r4, #-1792]	; 0x700
     e68:	00746e69 	rsbseq	r6, r4, r9, ror #28
     e6c:	62610108 	rsbvs	r0, r1, #8, 2
     e70:	04010073 	streq	r0, [r1], #-115	; 0x73
     e74:	00006601 	andeq	r6, r0, r1, lsl #12
     e78:	00890100 	addeq	r0, r9, r0, lsl #2
     e7c:	61030000 	mrsvs	r0, (UNDEF: 3)
     e80:	66040100 	strvs	r0, [r4], -r0, lsl #2
     e84:	00000000 	andeq	r0, r0, r0
     e88:	6e696d09 	cdpvs	13, 6, cr6, cr9, cr9, {0}
     e8c:	01080100 	mrseq	r0, (UNDEF: 24)
     e90:	000000bf 	strheq	r0, [r0], -pc	; <UNPREDICTABLE>
     e94:	0000bf03 	andeq	fp, r0, r3, lsl #30
     e98:	00610300 	rsbeq	r0, r1, r0, lsl #6
     e9c:	00bf0801 	adcseq	r0, pc, r1, lsl #16
     ea0:	62030000 	andvs	r0, r3, #0
     ea4:	bf080100 	svclt	0x00080100
     ea8:	03000000 	movweq	r0, #0
     eac:	08010063 	stmdaeq	r1, {r0, r1, r5, r6}
     eb0:	000000bf 	strheq	r0, [r0], -pc	; <UNPREDICTABLE>
     eb4:	01006d0a 	tsteq	r0, sl, lsl #26
     eb8:	0000bf0a 	andeq	fp, r0, sl, lsl #30
     ebc:	040b0000 	streq	r0, [fp], #-0
     ec0:	0014af07 	andseq	sl, r4, r7, lsl #30
     ec4:	616d0900 	cmnvs	sp, r0, lsl #18
     ec8:	0f010078 	svceq	0x00010078
     ecc:	0000bf01 	andeq	fp, r0, r1, lsl #30
     ed0:	00fc0300 	rscseq	r0, ip, r0, lsl #6
     ed4:	61030000 	mrsvs	r0, (UNDEF: 3)
     ed8:	bf0f0100 	svclt	0x000f0100
     edc:	03000000 	movweq	r0, #0
     ee0:	0f010062 	svceq	0x00010062
     ee4:	000000bf 	strheq	r0, [r0], -pc	; <UNPREDICTABLE>
     ee8:	01006303 	tsteq	r0, r3, lsl #6
     eec:	0000bf0f 	andeq	fp, r0, pc, lsl #30
     ef0:	006d0a00 	rsbeq	r0, sp, r0, lsl #20
     ef4:	00bf1101 	adcseq	r1, pc, r1, lsl #2
     ef8:	0c000000 	stceq	0, cr0, [r0], {-0}
     efc:	0000006d 	andeq	r0, r0, sp, rrx
     f00:	0000881c 	andeq	r8, r0, ip, lsl r8
     f04:	00008828 	andeq	r8, r0, r8, lsr #16
     f08:	01007d02 	tsteq	r0, r2, lsl #26
     f0c:	0000011b 	andeq	r0, r0, fp, lsl r1
     f10:	00007f0d 	andeq	r7, r0, sp, lsl #30
     f14:	00061c00 	andeq	r1, r6, r0, lsl #24
     f18:	010e0000 	mrseq	r0, (UNDEF: 14)
     f1c:	00002436 	andeq	r2, r0, r6, lsr r4
     f20:	28011701 	stmdacs	r1, {r0, r8, r9, sl, ip}
     f24:	78000088 	stmdavc	r0, {r3, r7}
     f28:	3d000088 	stccc	0, cr0, [r0, #-544]	; 0xfffffde0
     f2c:	01000006 	tsteq	r0, r6
     f30:	00000181 	andeq	r0, r0, r1, lsl #3
     f34:	0023a10f 	eoreq	sl, r3, pc, lsl #2
     f38:	66170100 	ldrvs	r0, [r7], -r0, lsl #2
     f3c:	5d000000 	stcpl	0, cr0, [r0, #-0]
     f40:	10000006 	andne	r0, r0, r6
     f44:	18010069 	stmdane	r1, {r0, r3, r5, r6}
     f48:	00000066 	andeq	r0, r0, r6, rrx
     f4c:	0000067b 	andeq	r0, r0, fp, ror r6
     f50:	01006a10 	tsteq	r0, r0, lsl sl
     f54:	00006618 	andeq	r6, r0, r8, lsl r6
     f58:	00069100 	andeq	r9, r6, r0, lsl #2
     f5c:	251c1100 	ldrcs	r1, [ip, #-256]	; 0x100
     f60:	19010000 	stmdbne	r1, {}	; <UNPREDICTABLE>
     f64:	00000066 	andeq	r0, r0, r6, rrx
     f68:	000006a6 	andeq	r0, r0, r6, lsr #13
     f6c:	00883812 	addeq	r3, r8, r2, lsl r8
     f70:	00084a00 	andeq	r4, r8, r0, lsl #20
     f74:	50011300 	andpl	r1, r1, r0, lsl #6
     f78:	00200c05 	eoreq	r0, r0, r5, lsl #24
     f7c:	00004004 	andeq	r4, r0, r4
     f80:	00002d14 	andeq	r2, r0, r4, lsl sp
     f84:	00887800 	addeq	r7, r8, r0, lsl #16
     f88:	0088c000 	addeq	ip, r8, r0
     f8c:	0006cf00 	andeq	ip, r6, r0, lsl #30
     f90:	021c0100 	andseq	r0, ip, #0, 2
     f94:	3b0d0000 	blcc	340f9c <multiplylookup+0x3378cc>
     f98:	ef000000 	svc	0x00000000
     f9c:	0d000006 	stceq	0, cr0, [r0, #-24]	; 0xffffffe8
     fa0:	00000044 	andeq	r0, r0, r4, asr #32
     fa4:	0000071b 	andeq	r0, r0, fp, lsl r7
     fa8:	00004d0d 	andeq	r4, r0, sp, lsl #26
     fac:	00074700 	andeq	r4, r7, r0, lsl #14
     fb0:	002d1500 	eoreq	r1, sp, r0, lsl #10
     fb4:	88940000 	ldmhi	r4, {}	; <UNPREDICTABLE>
     fb8:	88b40000 	ldmhi	r4!, {}	; <UNPREDICTABLE>
     fbc:	26010000 	strcs	r0, [r1], -r0
     fc0:	00004d0d 	andeq	r4, r0, sp, lsl #26
     fc4:	00076500 	andeq	r6, r7, r0, lsl #10
     fc8:	00440d00 	subeq	r0, r4, r0, lsl #26
     fcc:	07940000 	ldreq	r0, [r4, r0]
     fd0:	3b0d0000 	blcc	340fd8 <multiplylookup+0x337908>
     fd4:	c0000000 	andgt	r0, r0, r0
     fd8:	16000007 	strne	r0, [r0], -r7
     fdc:	00008894 	muleq	r0, r4, r8
     fe0:	000088b4 			; <UNDEFINED> instruction: 0x000088b4
     fe4:	00005917 	andeq	r5, r0, r7, lsl r9
     fe8:	0007ec00 	andeq	lr, r7, r0, lsl #24
     fec:	889c1800 	ldmhi	ip, {fp, ip}
     ff0:	084a0000 	stmdaeq	sl, {}^	; <UNPREDICTABLE>
     ff4:	02050000 	andeq	r0, r5, #0
     ff8:	01130000 	tsteq	r3, r0
     ffc:	200c0550 	andcs	r0, ip, r0, asr r5
    1000:	00400400 	subeq	r0, r0, r0, lsl #8
    1004:	0088b412 	addeq	fp, r8, r2, lsl r4
    1008:	00086200 	andeq	r6, r8, r0, lsl #4
    100c:	51011300 	mrspl	r1, SP_irq
    1010:	40007606 	andmi	r7, r0, r6, lsl #12
    1014:	00254024 	eoreq	r4, r5, r4, lsr #32
    1018:	0e000000 	cdpeq	0, 0, cr0, cr0, cr0, {0}
    101c:	0023de01 	eoreq	sp, r3, r1, lsl #28
    1020:	012f0100 	teqeq	pc, r0, lsl #2
    1024:	000088c0 	andeq	r8, r0, r0, asr #17
    1028:	00008a0c 	andeq	r8, r0, ip, lsl #20
    102c:	00000842 	andeq	r0, r0, r2, asr #16
    1030:	00034d01 	andeq	r4, r3, r1, lsl #26
    1034:	30781900 	rsbscc	r1, r8, r0, lsl #18
    1038:	662f0100 	strtvs	r0, [pc], -r0, lsl #2
    103c:	6f000000 	svcvs	0x00000000
    1040:	19000008 	stmdbne	r0, {r3}
    1044:	01003079 	tsteq	r0, r9, ror r0
    1048:	0000662f 	andeq	r6, r0, pc, lsr #12
    104c:	00088d00 	andeq	r8, r8, r0, lsl #26
    1050:	31781900 	cmncc	r8, r0, lsl #18
    1054:	662f0100 	strtvs	r0, [pc], -r0, lsl #2
    1058:	ab000000 	blge	1060 <_start-0x6fa0>
    105c:	19000008 	stmdbne	r0, {r3}
    1060:	01003179 	tsteq	r0, r9, ror r1
    1064:	0000662f 	andeq	r6, r0, pc, lsr #12
    1068:	0008c900 	andeq	ip, r8, r0, lsl #18
    106c:	23a11a00 			; <UNDEFINED> instruction: 0x23a11a00
    1070:	2f010000 	svccs	0x00010000
    1074:	000000bf 	strheq	r0, [r0], -pc	; <UNPREDICTABLE>
    1078:	0a009102 	beq	25488 <multiplylookup+0x1bdb8>
    107c:	01007864 	tsteq	r0, r4, ror #16
    1080:	00006634 	andeq	r6, r0, r4, lsr r6
    1084:	79640a00 	stmdbvc	r4!, {r9, fp}^
    1088:	66340100 	ldrtvs	r0, [r4], -r0, lsl #2
    108c:	10000000 	andne	r0, r0, r0
    1090:	01007873 	tsteq	r0, r3, ror r8
    1094:	00006634 	andeq	r6, r0, r4, lsr r6
    1098:	0008e700 	andeq	lr, r8, r0, lsl #14
    109c:	79731000 	ldmdbvc	r3!, {ip}^
    10a0:	66340100 	ldrtvs	r0, [r4], -r0, lsl #2
    10a4:	06000000 	streq	r0, [r0], -r0
    10a8:	10000009 	andne	r0, r0, r9
    10ac:	00727265 	rsbseq	r7, r2, r5, ror #4
    10b0:	00663401 	rsbeq	r3, r6, r1, lsl #8
    10b4:	09250000 	stmdbeq	r5!, {}	; <UNPREDICTABLE>
    10b8:	65100000 	ldrvs	r0, [r0, #-0]
    10bc:	34010032 	strcc	r0, [r1], #-50	; 0x32
    10c0:	00000066 	andeq	r0, r0, r6, rrx
    10c4:	00000959 	andeq	r0, r0, r9, asr r9
    10c8:	00002d1b 	andeq	r2, r0, fp, lsl sp
    10cc:	00893800 	addeq	r3, r9, r0, lsl #16
    10d0:	00009800 	andeq	r9, r0, r0, lsl #16
    10d4:	1c3a0100 	ldfnes	f0, [sl], #-0
    10d8:	0000004d 	andeq	r0, r0, sp, asr #32
    10dc:	0000441d 	andeq	r4, r0, sp, lsl r4
    10e0:	0d540100 	ldfeqe	f0, [r4, #-0]
    10e4:	0000003b 	andeq	r0, r0, fp, lsr r0
    10e8:	00000977 	andeq	r0, r0, r7, ror r9
    10ec:	00002d1b 	andeq	r2, r0, fp, lsl sp
    10f0:	00893800 	addeq	r3, r9, r0, lsl #16
    10f4:	0000d000 	andeq	sp, r0, r0
    10f8:	1c2f0100 	stfnes	f0, [pc], #-0	; 1100 <_start-0x6f00>
    10fc:	0000004d 	andeq	r0, r0, sp, asr #32
    1100:	0000440d 	andeq	r4, r0, sp, lsl #8
    1104:	00099500 	andeq	r9, r9, r0, lsl #10
    1108:	003b0d00 	eorseq	r0, fp, r0, lsl #26
    110c:	09a80000 	stmibeq	r8!, {}	; <UNPREDICTABLE>
    1110:	001e0000 	andseq	r0, lr, r0
    1114:	17000001 	strne	r0, [r0, -r1]
    1118:	00000059 	andeq	r0, r0, r9, asr r0
    111c:	000009bb 			; <UNDEFINED> instruction: 0x000009bb
    1120:	00898818 	addeq	r8, r9, r8, lsl r8
    1124:	00084a00 	andeq	r4, r8, r0, lsl #20
    1128:	00033800 	andeq	r3, r3, r0, lsl #16
    112c:	50011300 	andpl	r1, r1, r0, lsl #6
    1130:	00200c05 	eoreq	r0, r0, r5, lsl #24
    1134:	12004004 	andne	r4, r0, #4
    1138:	0000899c 	muleq	r0, ip, r9
    113c:	00000862 	andeq	r0, r0, r2, ror #16
    1140:	03510113 	cmpeq	r1, #-1073741820	; 0xc0000004
    1144:	00064c91 	muleq	r6, r1, ip
    1148:	00000000 	andeq	r0, r0, r0
    114c:	24e3010e 	strbtcs	r0, [r3], #270	; 0x10e
    1150:	49010000 	stmdbmi	r1, {}	; <UNPREDICTABLE>
    1154:	008a0c01 	addeq	r0, sl, r1, lsl #24
    1158:	008aac00 	addeq	sl, sl, r0, lsl #24
    115c:	0009dc00 	andeq	sp, r9, r0, lsl #24
    1160:	041e0100 	ldreq	r0, [lr], #-256	; 0x100
    1164:	78190000 	ldmdavc	r9, {}	; <UNPREDICTABLE>
    1168:	66490100 	strbvs	r0, [r9], -r0, lsl #2
    116c:	08000000 	stmdaeq	r0, {}	; <UNPREDICTABLE>
    1170:	1900000a 	stmdbne	r0, {r1, r3}
    1174:	49010079 	stmdbmi	r1, {r0, r3, r4, r5, r6}
    1178:	00000066 	andeq	r0, r0, r6, rrx
    117c:	00000a2b 	andeq	r0, r0, fp, lsr #20
    1180:	00307810 	eorseq	r7, r0, r0, lsl r8
    1184:	00664a01 	rsbeq	r4, r6, r1, lsl #20
    1188:	0a490000 	beq	1241190 <multiplylookup+0x1237ac0>
    118c:	79100000 	ldmdbvc	r0, {}	; <UNPREDICTABLE>
    1190:	4a010030 	bmi	41258 <multiplylookup+0x37b88>
    1194:	00000066 	andeq	r0, r0, r6, rrx
    1198:	00000a67 	andeq	r0, r0, r7, ror #20
    119c:	00002d1b 	andeq	r2, r0, fp, lsl sp
    11a0:	008a2000 	addeq	r2, sl, r0
    11a4:	00013000 	andeq	r3, r1, r0
    11a8:	1f4d0100 	svcne	0x004d0100
    11ac:	0000004d 	andeq	r0, r0, sp, asr #32
    11b0:	00440d00 	subeq	r0, r4, r0, lsl #26
    11b4:	0a9d0000 	beq	fe7411bc <multiplylookup+0xfe737aec>
    11b8:	3b1c0000 	blcc	7011c0 <multiplylookup+0x6f7af0>
    11bc:	15000000 	strne	r0, [r0, #-0]
    11c0:	0000002d 	andeq	r0, r0, sp, lsr #32
    11c4:	00008a64 	andeq	r8, r0, r4, ror #20
    11c8:	00008a78 	andeq	r8, r0, r8, ror sl
    11cc:	4d0d4901 	stcmi	9, cr4, [sp, #-4]
    11d0:	bd000000 	stclt	0, cr0, [r0, #-0]
    11d4:	1c00000a 	stcne	0, cr0, [r0], {10}
    11d8:	00000044 	andeq	r0, r0, r4, asr #32
    11dc:	00003b1c 	andeq	r3, r0, ip, lsl fp
    11e0:	8a641600 	bhi	19069e8 <multiplylookup+0x18fd318>
    11e4:	8a780000 	bhi	1e011ec <multiplylookup+0x1df7b1c>
    11e8:	59170000 	ldmdbpl	r7, {}	; <UNPREDICTABLE>
    11ec:	d1000000 	mrsle	r0, (UNDEF: 0)
    11f0:	1800000a 	stmdane	r0, {r1, r3}
    11f4:	00008a6c 	andeq	r8, r0, ip, ror #20
    11f8:	0000084a 	andeq	r0, r0, sl, asr #16
    11fc:	0000040b 	andeq	r0, r0, fp, lsl #8
    1200:	05500113 	ldrbeq	r0, [r0, #-275]	; 0x113
    1204:	0400200c 	streq	r2, [r0], #-12
    1208:	78120040 	ldmdavc	r2, {r6}
    120c:	6200008a 	andvs	r0, r0, #138	; 0x8a
    1210:	13000008 	movwne	r0, #8
    1214:	30015101 	andcc	r5, r1, r1, lsl #2
    1218:	00000000 	andeq	r0, r0, r0
    121c:	38010e00 	stmdacc	r1, {r9, sl, fp}
    1220:	01000025 	tsteq	r0, r5, lsr #32
    1224:	8aac0142 	bhi	feb01734 <multiplylookup+0xfeaf8064>
    1228:	8ad40000 	bhi	ff501230 <multiplylookup+0xff4f7b60>
    122c:	0aeb0000 	beq	ffac1234 <multiplylookup+0xffab7b64>
    1230:	af010000 	svcge	0x00010000
    1234:	19000004 	stmdbne	r0, {r2}
    1238:	42010063 	andmi	r0, r1, #99	; 0x63
    123c:	000004af 	andeq	r0, r0, pc, lsr #9
    1240:	00000b0b 	andeq	r0, r0, fp, lsl #22
    1244:	01007819 	tsteq	r0, r9, lsl r8
    1248:	00006642 	andeq	r6, r0, r2, asr #12
    124c:	000b4500 	andeq	r4, fp, r0, lsl #10
    1250:	00791900 	rsbseq	r1, r9, r0, lsl #18
    1254:	00664201 	rsbeq	r4, r6, r1, lsl #4
    1258:	0b8a0000 	bleq	fe281260 <multiplylookup+0xfe277b90>
    125c:	50200000 	eorpl	r0, r0, r0
    1260:	96000001 	strls	r0, [r0], -r1
    1264:	0a000004 	beq	127c <_start-0x6d84>
    1268:	01003078 	tsteq	r0, r8, ror r0
    126c:	00006644 	andeq	r6, r0, r4, asr #12
    1270:	30790a00 	rsbscc	r0, r9, r0, lsl #20
    1274:	66440100 	strbvs	r0, [r4], -r0, lsl #2
    1278:	21000000 	mrscs	r0, (UNDEF: 0)
    127c:	00008ad4 	ldrdeq	r8, [r0], -r4
    1280:	00034d01 	andeq	r4, r3, r1, lsl #26
    1284:	51011300 	mrspl	r1, SP_irq
    1288:	5201f303 	andpl	pc, r1, #201326592	; 0xc000000
    128c:	03500113 	cmpeq	r0, #-1073741820	; 0xc0000004
    1290:	005101f3 	ldrsheq	r0, [r1], #-19	; 0xffffffed
    1294:	8abc1200 	bhi	fef05a9c <multiplylookup+0xfeefc3cc>
    1298:	087b0000 	ldmdaeq	fp!, {}^	; <UNPREDICTABLE>
    129c:	01130000 	tsteq	r3, r0
    12a0:	01f30352 	mvnseq	r0, r2, asr r3
    12a4:	51011352 	tstpl	r1, r2, asr r3
    12a8:	5101f303 	tstpl	r1, r3, lsl #6
    12ac:	010b0000 	mrseq	r0, (UNDEF: 11)
    12b0:	0007cf08 	andeq	ip, r7, r8, lsl #30
    12b4:	ba010e00 	blt	44abc <multiplylookup+0x3b3ec>
    12b8:	01000024 	tsteq	r0, r4, lsr #32
    12bc:	8ad40152 	bhi	ff50180c <multiplylookup+0xff4f813c>
    12c0:	8b280000 	blhi	a012c8 <multiplylookup+0x9f7bf8>
    12c4:	0bc40000 	bleq	ff1012cc <multiplylookup+0xff0f7bfc>
    12c8:	1e010000 	cdpne	0, 0, cr0, cr1, cr0, {0}
    12cc:	19000005 	stmdbne	r0, {r0, r2}
    12d0:	00727473 	rsbseq	r7, r2, r3, ror r4
    12d4:	051e5201 	ldreq	r5, [lr, #-513]	; 0x201
    12d8:	0be40000 	bleq	ff9012e0 <multiplylookup+0xff8f7c10>
    12dc:	78190000 	ldmdavc	r9, {}	; <UNPREDICTABLE>
    12e0:	66520100 	ldrbvs	r0, [r2], -r0, lsl #2
    12e4:	10000000 	andne	r0, r0, r0
    12e8:	1900000c 	stmdbne	r0, {r2, r3}
    12ec:	52010079 	andpl	r0, r1, #121	; 0x79
    12f0:	00000066 	andeq	r0, r0, r6, rrx
    12f4:	00000c39 	andeq	r0, r0, r9, lsr ip
    12f8:	00317810 	eorseq	r7, r1, r0, lsl r8
    12fc:	00665301 	rsbeq	r5, r6, r1, lsl #6
    1300:	0c570000 	mraeq	r0, r7, acc0
    1304:	69100000 	ldmdbvs	r0, {}	; <UNPREDICTABLE>
    1308:	66530100 	ldrbvs	r0, [r3], -r0, lsl #2
    130c:	75000000 	strvc	r0, [r0, #-0]
    1310:	2200000c 	andcs	r0, r0, #12
    1314:	00008b10 	andeq	r8, r0, r0, lsl fp
    1318:	0000087b 	andeq	r0, r0, fp, ror r8
    131c:	af042300 	svcge	0x00042300
    1320:	0e000004 	cdpeq	0, 0, cr0, cr0, cr4, {0}
    1324:	00244001 	eoreq	r4, r4, r1
    1328:	01630100 	cmneq	r3, r0, lsl #2
    132c:	00008b28 	andeq	r8, r0, r8, lsr #22
    1330:	00008bd8 	ldrdeq	r8, [r0], -r8	; <UNPREDICTABLE>
    1334:	00000c89 	andeq	r0, r0, r9, lsl #25
    1338:	00061901 	andeq	r1, r6, r1, lsl #18
    133c:	00781900 	rsbseq	r1, r8, r0, lsl #18
    1340:	00666301 	rsbeq	r6, r6, r1, lsl #6
    1344:	0cb50000 	ldceq	0, cr0, [r5]
    1348:	79190000 	ldmdbvc	r9, {}	; <UNPREDICTABLE>
    134c:	66630100 	strbtvs	r0, [r3], -r0, lsl #2
    1350:	d3000000 	movwle	r0, #0
    1354:	0f00000c 	svceq	0x0000000c
    1358:	000024fc 	strdeq	r2, [r0], -ip
    135c:	00666301 	rsbeq	r6, r6, r1, lsl #6
    1360:	0cf20000 	ldcleq	0, cr0, [r2]
    1364:	eb0f0000 	bl	3c136c <multiplylookup+0x3b7c9c>
    1368:	01000024 	tsteq	r0, r4, lsr #32
    136c:	00006663 	andeq	r6, r0, r3, ror #12
    1370:	000d1300 	andeq	r1, sp, r0, lsl #6
    1374:	23a11a00 			; <UNDEFINED> instruction: 0x23a11a00
    1378:	63010000 	movwvs	r0, #4096	; 0x1000
    137c:	00000066 	andeq	r0, r0, r6, rrx
    1380:	10009102 	andne	r9, r0, r2, lsl #2
    1384:	64010069 	strvs	r0, [r1], #-105	; 0x69
    1388:	000000bf 	strheq	r0, [r0], -pc	; <UNPREDICTABLE>
    138c:	00000d34 	andeq	r0, r0, r4, lsr sp
    1390:	01006a24 	tsteq	r0, r4, lsr #20
    1394:	0000bf64 	andeq	fp, r0, r4, ror #30
    1398:	1b550100 	blne	15417a0 <multiplylookup+0x15380d0>
    139c:	0000002d 	andeq	r0, r0, sp, lsr #32
    13a0:	00008b40 	andeq	r8, r0, r0, asr #22
    13a4:	00000168 	andeq	r0, r0, r8, ror #2
    13a8:	4d1c6801 	ldcmi	8, cr6, [ip, #-4]
    13ac:	1c000000 	stcne	0, cr0, [r0], {-0}
    13b0:	00000044 	andeq	r0, r0, r4, asr #32
    13b4:	00003b0d 	andeq	r3, r0, sp, lsl #22
    13b8:	000d5200 	andeq	r5, sp, r0, lsl #4
    13bc:	002d1b00 	eoreq	r1, sp, r0, lsl #22
    13c0:	8b400000 	blhi	10013c8 <multiplylookup+0xff7cf8>
    13c4:	01800000 	orreq	r0, r0, r0
    13c8:	63010000 	movwvs	r0, #4096	; 0x1000
    13cc:	00004d1c 	andeq	r4, r0, ip, lsl sp
    13d0:	00441c00 	subeq	r1, r4, r0, lsl #24
    13d4:	3b0d0000 	blcc	3413dc <multiplylookup+0x337d0c>
    13d8:	72000000 	andvc	r0, r0, #0
    13dc:	1e00000d 	cdpne	0, 0, cr0, cr0, cr13, {0}
    13e0:	000001a8 	andeq	r0, r0, r8, lsr #3
    13e4:	00005917 	andeq	r5, r0, r7, lsl r9
    13e8:	000d8500 	andeq	r8, sp, r0, lsl #10
    13ec:	8b941800 	blhi	fe5073f4 <multiplylookup+0xfe4fdd24>
    13f0:	084a0000 	stmdaeq	sl, {}^	; <UNPREDICTABLE>
    13f4:	06050000 	streq	r0, [r5], -r0
    13f8:	01130000 	tsteq	r3, r0
    13fc:	200c0550 	andcs	r0, ip, r0, asr r5
    1400:	00400400 	subeq	r0, r0, r0, lsl #8
    1404:	008ba412 	addeq	sl, fp, r2, lsl r4
    1408:	00086200 	andeq	r6, r8, r0, lsl #4
    140c:	51011300 	mrspl	r1, SP_irq
    1410:	00007702 	andeq	r7, r0, r2, lsl #14
    1414:	00000000 	andeq	r0, r0, r0
    1418:	2546010e 	strbcs	r0, [r6, #-270]	; 0x10e
    141c:	6f010000 	svcvs	0x00010000
    1420:	008bd801 	addeq	sp, fp, r1, lsl #16
    1424:	008e9400 	addeq	r9, lr, r0, lsl #8
    1428:	000da200 	andeq	sl, sp, r0, lsl #4
    142c:	084a0100 	stmdaeq	sl, {r8}^
    1430:	78190000 	ldmdavc	r9, {}	; <UNPREDICTABLE>
    1434:	6f010031 	svcvs	0x00010031
    1438:	00000066 	andeq	r0, r0, r6, rrx
    143c:	00000dcf 	andeq	r0, r0, pc, asr #27
    1440:	00317919 	eorseq	r7, r1, r9, lsl r9
    1444:	00666f01 	rsbeq	r6, r6, r1, lsl #30
    1448:	115c0000 	cmpne	ip, r0
    144c:	78190000 	ldmdavc	r9, {}	; <UNPREDICTABLE>
    1450:	6f010032 	svcvs	0x00010032
    1454:	00000066 	andeq	r0, r0, r6, rrx
    1458:	0000119a 	muleq	r0, sl, r1
    145c:	00327919 	eorseq	r7, r2, r9, lsl r9
    1460:	00666f01 	rsbeq	r6, r6, r1, lsl #30
    1464:	12100000 	andsne	r0, r0, #0
    1468:	78190000 	ldmdavc	r9, {}	; <UNPREDICTABLE>
    146c:	6f010033 	svcvs	0x00010033
    1470:	00000066 	andeq	r0, r0, r6, rrx
    1474:	0000124e 	andeq	r1, r0, lr, asr #4
    1478:	00337919 	eorseq	r7, r3, r9, lsl r9
    147c:	00666f01 	rsbeq	r6, r6, r1, lsl #30
    1480:	12b70000 	adcsne	r0, r7, #0
    1484:	a10f0000 	mrsge	r0, CPSR
    1488:	01000023 	tsteq	r0, r3, lsr #32
    148c:	0000666f 	andeq	r6, r0, pc, ror #12
    1490:	0012e800 	andseq	lr, r2, r0, lsl #16
    1494:	25411100 	strbcs	r1, [r1, #-256]	; 0x100
    1498:	7d010000 	stcvc	0, cr0, [r1, #-0]
    149c:	00000066 	andeq	r0, r0, r6, rrx
    14a0:	0000130e 	andeq	r1, r0, lr, lsl #6
    14a4:	00251711 	eoreq	r1, r5, r1, lsl r7
    14a8:	667d0100 	ldrbtvs	r0, [sp], -r0, lsl #2
    14ac:	2d000000 	stccs	0, cr0, [r0, #-0]
    14b0:	25000013 	strcs	r0, [r0, #-19]
    14b4:	00002512 	andeq	r2, r0, r2, lsl r5
    14b8:	00667d01 	rsbeq	r7, r6, r1, lsl #26
    14bc:	58010000 	stmdapl	r1, {}	; <UNPREDICTABLE>
    14c0:	00253311 	eoreq	r3, r5, r1, lsl r3
    14c4:	667d0100 	ldrbtvs	r0, [sp], -r0, lsl #2
    14c8:	82000000 	andhi	r0, r0, #0
    14cc:	24000013 	strcs	r0, [r0], #-19
    14d0:	00323179 	eorseq	r3, r2, r9, ror r1
    14d4:	00668201 	rsbeq	r8, r6, r1, lsl #4
    14d8:	5a010000 	bpl	414e0 <multiplylookup+0x37e10>
    14dc:	33327924 	teqcc	r2, #36, 18	; 0x90000
    14e0:	66820100 	strvs	r0, [r2], r0, lsl #2
    14e4:	01000000 	mrseq	r0, (UNDEF: 0)
    14e8:	33792459 	cmncc	r9, #1493172224	; 0x59000000
    14ec:	82010031 	andhi	r0, r1, #49	; 0x31
    14f0:	00000066 	andeq	r0, r0, r6, rrx
    14f4:	78245b01 	stmdavc	r4!, {r0, r8, r9, fp, ip, lr}
    14f8:	01003231 	tsteq	r0, r1, lsr r2
    14fc:	00006686 	andeq	r6, r0, r6, lsl #13
    1500:	44910200 	ldrmi	r0, [r1], #512	; 0x200
    1504:	33327824 	teqcc	r2, #36, 16	; 0x240000
    1508:	66860100 	strvs	r0, [r6], r0, lsl #2
    150c:	02000000 	andeq	r0, r0, #0
    1510:	78244891 	stmdavc	r4!, {r0, r4, r7, fp, lr}
    1514:	01003133 	tsteq	r0, r3, lsr r1
    1518:	00006686 	andeq	r6, r0, r6, lsl #13
    151c:	4c910200 	lfmmi	f0, 4, [r1], {0}
    1520:	00316310 	eorseq	r6, r1, r0, lsl r3
    1524:	00668a01 	rsbeq	r8, r6, r1, lsl #20
    1528:	13a20000 			; <UNDEFINED> instruction: 0x13a20000
    152c:	63100000 	tstvs	r0, #0
    1530:	8a010032 	bhi	41600 <multiplylookup+0x37f30>
    1534:	00000066 	andeq	r0, r0, r6, rrx
    1538:	00001728 	andeq	r1, r0, r8, lsr #14
    153c:	00336310 	eorseq	r6, r3, r0, lsl r3
    1540:	00668a01 	rsbeq	r8, r6, r1, lsl #20
    1544:	17a30000 	strne	r0, [r3, r0]!
    1548:	63100000 	tstvs	r0, #0
    154c:	01003179 	tsteq	r0, r9, ror r1
    1550:	0000668e 	andeq	r6, r0, lr, lsl #13
    1554:	00180300 	andseq	r0, r8, r0, lsl #6
    1558:	79631000 	stmdbvc	r3!, {ip}^
    155c:	8e010032 	mcrhi	0, 0, r0, cr1, cr2, {1}
    1560:	00000066 	andeq	r0, r0, r6, rrx
    1564:	00001832 	andeq	r1, r0, r2, lsr r8
    1568:	33796310 	cmncc	r9, #16, 6	; 0x40000000
    156c:	668e0100 	strvs	r0, [lr], r0, lsl #2
    1570:	6c000000 	stcvs	0, cr0, [r0], {-0}
    1574:	10000018 	andne	r0, r0, r8, lsl r0
    1578:	92010069 	andls	r0, r1, #105	; 0x69
    157c:	00000066 	andeq	r0, r0, r6, rrx
    1580:	000018aa 	andeq	r1, r0, sl, lsr #17
    1584:	01006a10 	tsteq	r0, r0, lsl sl
    1588:	00006692 	muleq	r0, r2, r6
    158c:	0018e200 	andseq	lr, r8, r0, lsl #4
    1590:	78631000 	stmdavc	r3!, {ip}^
    1594:	92010031 	andls	r0, r1, #49	; 0x31
    1598:	00000066 	andeq	r0, r0, r6, rrx
    159c:	0000190b 	andeq	r1, r0, fp, lsl #18
    15a0:	32786310 	rsbscc	r6, r8, #16, 6	; 0x40000000
    15a4:	66920100 	ldrvs	r0, [r2], r0, lsl #2
    15a8:	29000000 	stmdbcs	r0, {}	; <UNPREDICTABLE>
    15ac:	10000019 	andne	r0, r0, r9, lsl r0
    15b0:	00337863 	eorseq	r7, r3, r3, ror #16
    15b4:	00669201 	rsbeq	r9, r6, r1, lsl #4
    15b8:	19470000 	stmdbne	r7, {}^	; <UNPREDICTABLE>
    15bc:	2d1b0000 	ldccs	0, cr0, [fp, #-0]
    15c0:	88000000 	stmdahi	r0, {}	; <UNPREDICTABLE>
    15c4:	d000008d 	andle	r0, r0, sp, lsl #1
    15c8:	01000001 	tsteq	r0, r1
    15cc:	004d0d99 	umaaleq	r0, sp, r9, sp
    15d0:	19670000 	stmdbne	r7!, {}^	; <UNPREDICTABLE>
    15d4:	440d0000 	strmi	r0, [sp], #-0
    15d8:	81000000 	mrshi	r0, (UNDEF: 0)
    15dc:	0d000019 	stceq	0, cr0, [r0, #-100]	; 0xffffff9c
    15e0:	0000003b 	andeq	r0, r0, fp, lsr r0
    15e4:	00001994 	muleq	r0, r4, r9
    15e8:	00002d1b 	andeq	r2, r0, fp, lsl sp
    15ec:	008d8800 	addeq	r8, sp, r0, lsl #16
    15f0:	0001f800 	andeq	pc, r1, r0, lsl #16
    15f4:	0d6f0100 	stfeqe	f0, [pc, #-0]	; 15fc <_start-0x6a04>
    15f8:	0000004d 	andeq	r0, r0, sp, asr #32
    15fc:	000019a7 	andeq	r1, r0, r7, lsr #19
    1600:	0000441c 	andeq	r4, r0, ip, lsl r4
    1604:	003b0d00 	eorseq	r0, fp, r0, lsl #26
    1608:	19c10000 	stmibne	r1, {}^	; <UNPREDICTABLE>
    160c:	201e0000 	andscs	r0, lr, r0
    1610:	17000002 	strne	r0, [r0, -r2]
    1614:	00000059 	andeq	r0, r0, r9, asr r0
    1618:	000019d4 	ldrdeq	r1, [r0], -r4
    161c:	008e0818 	addeq	r0, lr, r8, lsl r8
    1620:	00084a00 	andeq	r4, r8, r0, lsl #20
    1624:	00083400 	andeq	r3, r8, r0, lsl #8
    1628:	50011300 	andpl	r1, r1, r0, lsl #6
    162c:	00200c05 	eoreq	r0, r0, r5, lsl #24
    1630:	12004004 	andne	r4, r0, #4
    1634:	00008e1c 	andeq	r8, r0, ip, lsl lr
    1638:	00000862 	andeq	r0, r0, r2, ror #16
    163c:	04510113 	ldrbeq	r0, [r1], #-275	; 0x113
    1640:	067fbc91 			; <UNDEFINED> instruction: 0x067fbc91
    1644:	00000000 	andeq	r0, r0, r0
    1648:	64012600 	strvs	r2, [r1], #-1536	; 0x600
    164c:	02000003 	andeq	r0, r0, #3
    1650:	00bf0104 	adcseq	r0, pc, r4, lsl #2
    1654:	62010000 	andvs	r0, r1, #0
    1658:	27000008 	strcs	r0, [r0, -r8]
    165c:	000000bf 	strheq	r0, [r0], -pc	; <UNPREDICTABLE>
    1660:	2d012800 	stccs	8, cr2, [r1, #-0]
    1664:	02000025 	andeq	r0, r0, #37	; 0x25
    1668:	7b010102 	blvc	41a78 <multiplylookup+0x383a8>
    166c:	27000008 	strcs	r0, [r0, -r8]
    1670:	000000bf 	strheq	r0, [r0], -pc	; <UNPREDICTABLE>
    1674:	0000bf27 	andeq	fp, r0, r7, lsr #30
    1678:	01290000 	teqeq	r9, r0
    167c:	00002509 	andeq	r2, r0, r9, lsl #10
    1680:	01010403 	tsteq	r1, r3, lsl #8
    1684:	0004af27 	andeq	sl, r4, r7, lsr #30
    1688:	00662700 	rsbeq	r2, r6, r0, lsl #14
    168c:	66270000 	strtvs	r0, [r7], -r0
    1690:	00000000 	andeq	r0, r0, r0
	...

Disassembly of section .debug_abbrev:

00000000 <.debug_abbrev>:
   0:	10001101 	andne	r1, r0, r1, lsl #2
   4:	12011106 	andne	r1, r1, #-2147483647	; 0x80000001
   8:	1b080301 	blne	200c14 <multiplylookup+0x1f7544>
   c:	13082508 	movwne	r2, #34056	; 0x8508
  10:	00000005 	andeq	r0, r0, r5
  14:	25011101 	strcs	r1, [r1, #-257]	; 0x101
  18:	030b130e 	movweq	r1, #45838	; 0xb30e
  1c:	550e1b0e 	strpl	r1, [lr, #-2830]	; 0xb0e
  20:	52011106 	andpl	r1, r1, #-2147483647	; 0x80000001
  24:	99061001 	stmdbls	r6, {r0, ip}
  28:	00000642 	andeq	r0, r0, r2, asr #12
  2c:	3f012e02 	svccc	0x00012e02
  30:	3a0e030c 	bcc	380c68 <multiplylookup+0x377598>
  34:	270b3b0b 	strcs	r3, [fp, -fp, lsl #22]
  38:	1113490c 	tstne	r3, ip, lsl #18
  3c:	40011201 	andmi	r1, r1, r1, lsl #4
  40:	0c429706 	mcrreq	7, 0, r9, r2, cr6
  44:	00001301 	andeq	r1, r0, r1, lsl #6
  48:	01828903 	orreq	r8, r2, r3, lsl #18
  4c:	31011101 	tstcc	r1, r1, lsl #2
  50:	04000013 	streq	r0, [r0], #-19
  54:	0001828a 	andeq	r8, r1, sl, lsl #5
  58:	42910a02 	addsmi	r0, r1, #8192	; 0x2000
  5c:	0500000a 	streq	r0, [r0, #-10]
  60:	0b0b0024 	bleq	2c00f8 <multiplylookup+0x2b6a28>
  64:	0e030b3e 	vmoveq.16	d3[0], r0
  68:	89060000 	stmdbhi	r6, {}	; <UNPREDICTABLE>
  6c:	11010182 	smlabbne	r1, r2, r1, r0
  70:	01133101 	tsteq	r3, r1, lsl #2
  74:	07000013 	smladeq	r0, r3, r0, r0
  78:	0c3f012e 	ldfeqs	f0, [pc], #-184	; ffffffc8 <multiplylookup+0xffff68f8>
  7c:	0b3a0e03 	bleq	e83890 <multiplylookup+0xe7a1c0>
  80:	0c270b3b 	stceq	11, cr0, [r7], #-236	; 0xffffff14
  84:	01120111 	tsteq	r2, r1, lsl r1
  88:	42970640 	addsmi	r0, r7, #64, 12	; 0x4000000
  8c:	0013010c 	andseq	r0, r3, ip, lsl #2
  90:	00050800 	andeq	r0, r5, r0, lsl #16
  94:	0b3a0803 	bleq	e820a8 <multiplylookup+0xe789d8>
  98:	13490b3b 	movtne	r0, #39739	; 0x9b3b
  9c:	00000602 	andeq	r0, r0, r2, lsl #12
  a0:	03003409 	movweq	r3, #1033	; 0x409
  a4:	3b0b3a08 	blcc	2ce8cc <multiplylookup+0x2c51fc>
  a8:	0213490b 	andseq	r4, r3, #180224	; 0x2c000
  ac:	0a000006 	beq	cc <_start-0x7f34>
  b0:	00018289 	andeq	r8, r1, r9, lsl #5
  b4:	13310111 	teqne	r1, #1073741828	; 0x40000004
  b8:	0f0b0000 	svceq	0x000b0000
  bc:	490b0b00 	stmdbmi	fp, {r8, r9, fp}
  c0:	0c000013 	stceq	0, cr0, [r0], {19}
  c4:	0b0b0024 	bleq	2c015c <multiplylookup+0x2b6a8c>
  c8:	08030b3e 	stmdaeq	r3, {r1, r2, r3, r4, r5, r8, r9, fp}
  cc:	890d0000 	stmdbhi	sp, {}	; <UNPREDICTABLE>
  d0:	11010182 	smlabbne	r1, r2, r1, r0
  d4:	0c429501 	cfstr64eq	mvdx9, [r2], {1}
  d8:	00001331 	andeq	r1, r0, r1, lsr r3
  dc:	3f012e0e 	svccc	0x00012e0e
  e0:	3a0e030c 	bcc	380d18 <multiplylookup+0x377648>
  e4:	270b3b0b 	strcs	r3, [fp, -fp, lsl #22]
  e8:	3c13490c 	ldccc	9, cr4, [r3], {12}
  ec:	0013010c 	andseq	r0, r3, ip, lsl #2
  f0:	00050f00 	andeq	r0, r5, r0, lsl #30
  f4:	00001349 	andeq	r1, r0, r9, asr #6
  f8:	3f012e10 	svccc	0x00012e10
  fc:	3a0e030c 	bcc	380d34 <multiplylookup+0x377664>
 100:	270b3b0b 	strcs	r3, [fp, -fp, lsl #22]
 104:	010c3c0c 	tsteq	ip, ip, lsl #24
 108:	11000013 	tstne	r0, r3, lsl r0
 10c:	0c3f012e 	ldfeqs	f0, [pc], #-184	; 5c <_start-0x7fa4>
 110:	0b3a0e03 	bleq	e83924 <multiplylookup+0xe7a254>
 114:	0c270b3b 	stceq	11, cr0, [r7], #-236	; 0xffffff14
 118:	00000c3c 	andeq	r0, r0, ip, lsr ip
 11c:	01110100 	tsteq	r1, r0, lsl #2
 120:	0b130e25 	bleq	4c39bc <multiplylookup+0x4ba2ec>
 124:	0e1b0e03 	cdpeq	14, 1, cr0, cr11, cr3, {0}
 128:	01110655 	tsteq	r1, r5, asr r6
 12c:	06100152 			; <UNDEFINED> instruction: 0x06100152
 130:	00064299 	muleq	r6, r9, r2
 134:	012e0200 	teqeq	lr, r0, lsl #4
 138:	0e030c3f 	mcreq	12, 0, r0, cr3, cr15, {1}
 13c:	0b3b0b3a 	bleq	ec2e2c <multiplylookup+0xeb975c>
 140:	13490c27 	movtne	r0, #39975	; 0x9c27
 144:	01120111 	tsteq	r2, r1, lsl r1
 148:	42970640 	addsmi	r0, r7, #64, 12	; 0x4000000
 14c:	0013010c 	andseq	r0, r3, ip, lsl #2
 150:	00050300 	andeq	r0, r5, r0, lsl #6
 154:	0b3a0e03 	bleq	e83968 <multiplylookup+0xe7a298>
 158:	13490b3b 	movtne	r0, #39739	; 0x9b3b
 15c:	00000602 	andeq	r0, r0, r2, lsl #12
 160:	03003404 	movweq	r3, #1028	; 0x404
 164:	3b0b3a0e 	blcc	2ce9a4 <multiplylookup+0x2c52d4>
 168:	1c13490b 	ldcne	9, cr4, [r3], {11}
 16c:	05000006 	streq	r0, [r0, #-6]
 170:	01018289 	smlabbeq	r1, r9, r2, r8
 174:	13310111 	teqne	r1, #1073741828	; 0x40000004
 178:	00001301 	andeq	r1, r0, r1, lsl #6
 17c:	01828a06 	orreq	r8, r2, r6, lsl #20
 180:	910a0200 	mrsls	r0, R10_fiq
 184:	00000a42 	andeq	r0, r0, r2, asr #20
 188:	01828907 	orreq	r8, r2, r7, lsl #18
 18c:	31011101 	tstcc	r1, r1, lsl #2
 190:	08000013 	stmdaeq	r0, {r0, r1, r4}
 194:	0b0b0024 	bleq	2c022c <multiplylookup+0x2b6b5c>
 198:	0e030b3e 	vmoveq.16	d3[0], r0
 19c:	34090000 	strcc	r0, [r9], #-0
 1a0:	3a080300 	bcc	200da8 <multiplylookup+0x1f76d8>
 1a4:	490b3b0b 	stmdbmi	fp, {r0, r1, r3, r8, r9, fp, ip, sp}
 1a8:	00060213 	andeq	r0, r6, r3, lsl r2
 1ac:	00340a00 	eorseq	r0, r4, r0, lsl #20
 1b0:	0b3a0803 	bleq	e821c4 <multiplylookup+0xe78af4>
 1b4:	13490b3b 	movtne	r0, #39739	; 0x9b3b
 1b8:	00000b1c 	andeq	r0, r0, ip, lsl fp
 1bc:	0300340b 	movweq	r3, #1035	; 0x40b
 1c0:	3b0b3a08 	blcc	2ce9e8 <multiplylookup+0x2c5318>
 1c4:	0013490b 	andseq	r4, r3, fp, lsl #18
 1c8:	00340c00 	eorseq	r0, r4, r0, lsl #24
 1cc:	0b3a0e03 	bleq	e839e0 <multiplylookup+0xe7a310>
 1d0:	13490b3b 	movtne	r0, #39739	; 0x9b3b
 1d4:	00000602 	andeq	r0, r0, r2, lsl #12
 1d8:	0300340d 	movweq	r3, #1037	; 0x40d
 1dc:	3b0b3a0e 	blcc	2cea1c <multiplylookup+0x2c534c>
 1e0:	0013490b 	andseq	r4, r3, fp, lsl #18
 1e4:	012e0e00 	teqeq	lr, r0, lsl #28
 1e8:	0e030c3f 	mcreq	12, 0, r0, cr3, cr15, {1}
 1ec:	0b3b0b3a 	bleq	ec2edc <multiplylookup+0xeb980c>
 1f0:	0c3c1349 	ldceq	3, cr1, [ip], #-292	; 0xfffffedc
 1f4:	00001301 	andeq	r1, r0, r1, lsl #6
 1f8:	0000180f 	andeq	r1, r0, pc, lsl #16
 1fc:	010b1000 	mrseq	r1, (UNDEF: 11)
 200:	01120111 	tsteq	r2, r1, lsl r1
 204:	00001301 	andeq	r1, r0, r1, lsl #6
 208:	01828911 	orreq	r8, r2, r1, lsl r9
 20c:	31011100 	mrscc	r1, (UNDEF: 17)
 210:	12000013 	andne	r0, r0, #19
 214:	0b0b0024 	bleq	2c02ac <multiplylookup+0x2b6bdc>
 218:	08030b3e 	stmdaeq	r3, {r1, r2, r3, r4, r5, r8, r9, fp}
 21c:	01130000 	tsteq	r3, r0
 220:	01134901 	tsteq	r3, r1, lsl #18
 224:	14000013 	strne	r0, [r0], #-19
 228:	13490021 	movtne	r0, #36897	; 0x9021
 22c:	0000052f 	andeq	r0, r0, pc, lsr #10
 230:	03003415 	movweq	r3, #1045	; 0x415
 234:	3b0b3a0e 	blcc	2cea74 <multiplylookup+0x2c53a4>
 238:	3f13490b 	svccc	0x0013490b
 23c:	000a020c 	andeq	r0, sl, ip, lsl #4
 240:	012e1600 	teqeq	lr, r0, lsl #12
 244:	0e030c3f 	mcreq	12, 0, r0, cr3, cr15, {1}
 248:	0b3b0b3a 	bleq	ec2f38 <multiplylookup+0xeb9868>
 24c:	13490c27 	movtne	r0, #39975	; 0x9c27
 250:	13010c3c 	movwne	r0, #7228	; 0x1c3c
 254:	05170000 	ldreq	r0, [r7, #-0]
 258:	00134900 	andseq	r4, r3, r0, lsl #18
 25c:	012e1800 	teqeq	lr, r0, lsl #16
 260:	0e030c3f 	mcreq	12, 0, r0, cr3, cr15, {1}
 264:	0b3b0b3a 	bleq	ec2f54 <multiplylookup+0xeb9884>
 268:	0c3c0c27 	ldceq	12, cr0, [ip], #-156	; 0xffffff64
 26c:	00001301 	andeq	r1, r0, r1, lsl #6
 270:	3f002e19 	svccc	0x00002e19
 274:	3a0e030c 	bcc	380eac <multiplylookup+0x3777dc>
 278:	270b3b0b 	strcs	r3, [fp, -fp, lsl #22]
 27c:	000c3c0c 	andeq	r3, ip, ip, lsl #24
 280:	000f1a00 	andeq	r1, pc, r0, lsl #20
 284:	13490b0b 	movtne	r0, #39691	; 0x9b0b
 288:	2e1b0000 	cdpcs	0, 1, cr0, cr11, cr0, {0}
 28c:	030c3f01 	movweq	r3, #52993	; 0xcf01
 290:	3b0b3a0e 	blcc	2cead0 <multiplylookup+0x2c5400>
 294:	3c0c270b 	stccc	7, cr2, [ip], {11}
 298:	0000000c 	andeq	r0, r0, ip
 29c:	10001101 	andne	r1, r0, r1, lsl #2
 2a0:	12011106 	andne	r1, r1, #-2147483647	; 0x80000001
 2a4:	1b080301 	blne	200eb0 <multiplylookup+0x1f77e0>
 2a8:	13082508 	movwne	r2, #34056	; 0x8508
 2ac:	00000005 	andeq	r0, r0, r5
 2b0:	10001101 	andne	r1, r0, r1, lsl #2
 2b4:	12011106 	andne	r1, r1, #-2147483647	; 0x80000001
 2b8:	1b080301 	blne	200ec4 <multiplylookup+0x1f77f4>
 2bc:	13082508 	movwne	r2, #34056	; 0x8508
 2c0:	00000005 	andeq	r0, r0, r5
 2c4:	25011101 	strcs	r1, [r1, #-257]	; 0x101
 2c8:	030b130e 	movweq	r1, #45838	; 0xb30e
 2cc:	550e1b0e 	strpl	r1, [lr, #-2830]	; 0xb0e
 2d0:	52011106 	andpl	r1, r1, #-2147483647	; 0x80000001
 2d4:	99061001 	stmdbls	r6, {r0, ip}
 2d8:	00000642 	andeq	r0, r0, r2, asr #12
 2dc:	3f012e02 	svccc	0x00012e02
 2e0:	3a0e030c 	bcc	380f18 <multiplylookup+0x377848>
 2e4:	270b3b0b 	strcs	r3, [fp, -fp, lsl #22]
 2e8:	2013490c 	andscs	r4, r3, ip, lsl #18
 2ec:	0013010b 	andseq	r0, r3, fp, lsl #2
 2f0:	00050300 	andeq	r0, r5, r0, lsl #6
 2f4:	0b3a0803 	bleq	e82308 <multiplylookup+0xe78c38>
 2f8:	13490b3b 	movtne	r0, #39739	; 0x9b3b
 2fc:	34040000 	strcc	r0, [r4], #-0
 300:	3a080300 	bcc	200f08 <multiplylookup+0x1f7838>
 304:	490b3b0b 	stmdbmi	fp, {r0, r1, r3, r8, r9, fp, ip, sp}
 308:	05000013 	streq	r0, [r0, #-19]
 30c:	0b0b0024 	bleq	2c03a4 <multiplylookup+0x2b6cd4>
 310:	08030b3e 	stmdaeq	r3, {r1, r2, r3, r4, r5, r8, r9, fp}
 314:	0f060000 	svceq	0x00060000
 318:	490b0b00 	stmdbmi	fp, {r8, r9, fp}
 31c:	07000013 	smladeq	r0, r3, r0, r0
 320:	13490026 	movtne	r0, #36902	; 0x9026
 324:	24080000 	strcs	r0, [r8], #-0
 328:	3e0b0b00 	vmlacc.f64	d0, d11, d0
 32c:	000e030b 	andeq	r0, lr, fp, lsl #6
 330:	012e0900 	teqeq	lr, r0, lsl #18
 334:	01111331 	tsteq	r1, r1, lsr r3
 338:	0a400112 	beq	1000788 <multiplylookup+0xff70b8>
 33c:	010c4297 			; <UNDEFINED> instruction: 0x010c4297
 340:	0a000013 	beq	394 <_start-0x7c6c>
 344:	13310005 	teqne	r1, #5
 348:	00000602 	andeq	r0, r0, r2, lsl #12
 34c:	3100340b 	tstcc	r0, fp, lsl #8
 350:	000a0213 	andeq	r0, sl, r3, lsl r2
 354:	012e0c00 	teqeq	lr, r0, lsl #24
 358:	0e030c3f 	mcreq	12, 0, r0, cr3, cr15, {1}
 35c:	0b3b0b3a 	bleq	ec304c <multiplylookup+0xeb997c>
 360:	13490c27 	movtne	r0, #39975	; 0x9c27
 364:	01120111 	tsteq	r2, r1, lsl r1
 368:	42970640 	addsmi	r0, r7, #64, 12	; 0x4000000
 36c:	0013010c 	andseq	r0, r3, ip, lsl #2
 370:	00050d00 	andeq	r0, r5, r0, lsl #26
 374:	0b3a0e03 	bleq	e83b88 <multiplylookup+0xe7a4b8>
 378:	13490b3b 	movtne	r0, #39739	; 0x9b3b
 37c:	00000602 	andeq	r0, r0, r2, lsl #12
 380:	0300050e 	movweq	r0, #1294	; 0x50e
 384:	3b0b3a08 	blcc	2cebac <multiplylookup+0x2c54dc>
 388:	0213490b 	andseq	r4, r3, #180224	; 0x2c000
 38c:	0f000006 	svceq	0x00000006
 390:	08030034 	stmdaeq	r3, {r2, r4, r5}
 394:	0b3b0b3a 	bleq	ec3084 <multiplylookup+0xeb99b4>
 398:	0a021349 	beq	850c4 <multiplylookup+0x7b9f4>
 39c:	34100000 	ldrcc	r0, [r0], #-0
 3a0:	3a080300 	bcc	200fa8 <multiplylookup+0x1f78d8>
 3a4:	490b3b0b 	stmdbmi	fp, {r0, r1, r3, r8, r9, fp, ip, sp}
 3a8:	00060213 	andeq	r0, r6, r3, lsl r2
 3ac:	011d1100 	tsteq	sp, r0, lsl #2
 3b0:	01111331 	tsteq	r1, r1, lsr r3
 3b4:	0b580112 	bleq	1600804 <multiplylookup+0x15f7134>
 3b8:	13010b59 	movwne	r0, #7001	; 0x1b59
 3bc:	0b120000 	bleq	4803c4 <multiplylookup+0x476cf4>
 3c0:	12011101 	andne	r1, r1, #1073741824	; 0x40000000
 3c4:	13000001 	movwne	r0, #1
 3c8:	13310034 	teqne	r1, #52	; 0x34
 3cc:	00000602 	andeq	r0, r0, r2, lsl #12
 3d0:	31003414 	tstcc	r0, r4, lsl r4
 3d4:	15000013 	strne	r0, [r0, #-19]
 3d8:	01018289 	smlabbeq	r1, r9, r2, r8
 3dc:	13310111 	teqne	r1, #1073741828	; 0x40000004
 3e0:	00001301 	andeq	r1, r0, r1, lsl #6
 3e4:	01828a16 	orreq	r8, r2, r6, lsl sl
 3e8:	910a0200 	mrsls	r0, R10_fiq
 3ec:	00000a42 	andeq	r0, r0, r2, asr #20
 3f0:	01828917 	orreq	r8, r2, r7, lsl r9
 3f4:	31011100 	mrscc	r1, (UNDEF: 17)
 3f8:	18000013 	stmdane	r0, {r0, r1, r4}
 3fc:	13490101 	movtne	r0, #37121	; 0x9101
 400:	00001301 	andeq	r1, r0, r1, lsl #6
 404:	49002119 	stmdbmi	r0, {r0, r3, r4, r8, sp}
 408:	000b2f13 	andeq	r2, fp, r3, lsl pc
 40c:	012e1a00 	teqeq	lr, r0, lsl #20
 410:	0e030c3f 	mcreq	12, 0, r0, cr3, cr15, {1}
 414:	0b3b0b3a 	bleq	ec3104 <multiplylookup+0xeb9a34>
 418:	0c3c0c27 	ldceq	12, cr0, [ip], #-156	; 0xffffff64
 41c:	00001301 	andeq	r1, r0, r1, lsl #6
 420:	4900051b 	stmdbmi	r0, {r0, r1, r3, r4, r8, sl}
 424:	1c000013 	stcne	0, cr0, [r0], {19}
 428:	0c3f012e 	ldfeqs	f0, [pc], #-184	; 378 <_start-0x7c88>
 42c:	0b3a0e03 	bleq	e83c40 <multiplylookup+0xe7a570>
 430:	0c270b3b 	stceq	11, cr0, [r7], #-236	; 0xffffff14
 434:	00000c3c 	andeq	r0, r0, ip, lsr ip
 438:	01110100 	tsteq	r1, r0, lsl #2
 43c:	0b130e25 	bleq	4c3cd8 <multiplylookup+0x4ba608>
 440:	0e1b0e03 	cdpeq	14, 1, cr0, cr11, cr3, {0}
 444:	01110655 	tsteq	r1, r5, asr r6
 448:	06100152 			; <UNDEFINED> instruction: 0x06100152
 44c:	00064299 	muleq	r6, r9, r2
 450:	012e0200 	teqeq	lr, r0, lsl #4
 454:	0e030c3f 	mcreq	12, 0, r0, cr3, cr15, {1}
 458:	0b3b0b3a 	bleq	ec3148 <multiplylookup+0xeb9a78>
 45c:	0b200c27 	bleq	803500 <multiplylookup+0x7f9e30>
 460:	00001301 	andeq	r1, r0, r1, lsl #6
 464:	03000503 	movweq	r0, #1283	; 0x503
 468:	3b0b3a08 	blcc	2cec90 <multiplylookup+0x2c55c0>
 46c:	0013490b 	andseq	r4, r3, fp, lsl #18
 470:	00050400 	andeq	r0, r5, r0, lsl #8
 474:	0b3a0e03 	bleq	e83c88 <multiplylookup+0xe7a5b8>
 478:	13490b3b 	movtne	r0, #39739	; 0x9b3b
 47c:	0b050000 	bleq	140484 <multiplylookup+0x136db4>
 480:	06000001 	streq	r0, [r0], -r1
 484:	0e030034 	mcreq	0, 0, r0, cr3, cr4, {1}
 488:	0b3b0b3a 	bleq	ec3178 <multiplylookup+0xeb9aa8>
 48c:	00001349 	andeq	r1, r0, r9, asr #6
 490:	0b002407 	bleq	94b4 <font+0x5e4>
 494:	030b3e0b 	movweq	r3, #48651	; 0xbe0b
 498:	08000008 	stmdaeq	r0, {r3}
 49c:	0c3f012e 	ldfeqs	f0, [pc], #-184	; 3ec <_start-0x7c14>
 4a0:	0b3a0803 	bleq	e824b4 <multiplylookup+0xe78de4>
 4a4:	0c270b3b 	stceq	11, cr0, [r7], #-236	; 0xffffff14
 4a8:	0b201349 	bleq	8051d4 <multiplylookup+0x7fbb04>
 4ac:	00001301 	andeq	r1, r0, r1, lsl #6
 4b0:	03012e09 	movweq	r2, #7689	; 0x1e09
 4b4:	3b0b3a08 	blcc	2cecdc <multiplylookup+0x2c560c>
 4b8:	490c270b 	stmdbmi	ip, {r0, r1, r3, r8, r9, sl, sp}
 4bc:	010b2013 	tsteq	fp, r3, lsl r0
 4c0:	0a000013 	beq	514 <_start-0x7aec>
 4c4:	08030034 	stmdaeq	r3, {r2, r4, r5}
 4c8:	0b3b0b3a 	bleq	ec31b8 <multiplylookup+0xeb9ae8>
 4cc:	00001349 	andeq	r1, r0, r9, asr #6
 4d0:	0b00240b 	bleq	9504 <font+0x634>
 4d4:	030b3e0b 	movweq	r3, #48651	; 0xbe0b
 4d8:	0c00000e 	stceq	0, cr0, [r0], {14}
 4dc:	1331012e 	teqne	r1, #-2147483637	; 0x8000000b
 4e0:	01120111 	tsteq	r2, r1, lsl r1
 4e4:	42970a40 	addsmi	r0, r7, #64, 20	; 0x40000
 4e8:	0013010c 	andseq	r0, r3, ip, lsl #2
 4ec:	00050d00 	andeq	r0, r5, r0, lsl #26
 4f0:	06021331 			; <UNDEFINED> instruction: 0x06021331
 4f4:	2e0e0000 	cdpcs	0, 0, cr0, cr14, cr0, {0}
 4f8:	030c3f01 	movweq	r3, #52993	; 0xcf01
 4fc:	3b0b3a0e 	blcc	2ced3c <multiplylookup+0x2c566c>
 500:	110c270b 	tstne	ip, fp, lsl #14
 504:	40011201 	andmi	r1, r1, r1, lsl #4
 508:	0c429706 	mcrreq	7, 0, r9, r2, cr6
 50c:	00001301 	andeq	r1, r0, r1, lsl #6
 510:	0300050f 	movweq	r0, #1295	; 0x50f
 514:	3b0b3a0e 	blcc	2ced54 <multiplylookup+0x2c5684>
 518:	0213490b 	andseq	r4, r3, #180224	; 0x2c000
 51c:	10000006 	andne	r0, r0, r6
 520:	08030034 	stmdaeq	r3, {r2, r4, r5}
 524:	0b3b0b3a 	bleq	ec3214 <multiplylookup+0xeb9b44>
 528:	06021349 	streq	r1, [r2], -r9, asr #6
 52c:	34110000 	ldrcc	r0, [r1], #-0
 530:	3a0e0300 	bcc	381138 <multiplylookup+0x377a68>
 534:	490b3b0b 	stmdbmi	fp, {r0, r1, r3, r8, r9, fp, ip, sp}
 538:	00060213 	andeq	r0, r6, r3, lsl r2
 53c:	82891200 	addhi	r1, r9, #0, 4
 540:	01110101 	tsteq	r1, r1, lsl #2
 544:	00001331 	andeq	r1, r0, r1, lsr r3
 548:	01828a13 	orreq	r8, r2, r3, lsl sl
 54c:	910a0200 	mrsls	r0, R10_fiq
 550:	00000a42 	andeq	r0, r0, r2, asr #20
 554:	31012e14 	tstcc	r1, r4, lsl lr
 558:	12011113 	andne	r1, r1, #-1073741820	; 0xc0000004
 55c:	97064001 	strls	r4, [r6, -r1]
 560:	13010c42 	movwne	r0, #7234	; 0x1c42
 564:	1d150000 	ldcne	0, cr0, [r5, #-0]
 568:	11133101 	tstne	r3, r1, lsl #2
 56c:	58011201 	stmdapl	r1, {r0, r9, ip}
 570:	000b590b 	andeq	r5, fp, fp, lsl #18
 574:	010b1600 	tsteq	fp, r0, lsl #12
 578:	01120111 	tsteq	r2, r1, lsl r1
 57c:	34170000 	ldrcc	r0, [r7], #-0
 580:	02133100 	andseq	r3, r3, #0, 2
 584:	18000006 	stmdane	r0, {r1, r2}
 588:	01018289 	smlabbeq	r1, r9, r2, r8
 58c:	13310111 	teqne	r1, #1073741828	; 0x40000004
 590:	00001301 	andeq	r1, r0, r1, lsl #6
 594:	03000519 	movweq	r0, #1305	; 0x519
 598:	3b0b3a08 	blcc	2cedc0 <multiplylookup+0x2c56f0>
 59c:	0213490b 	andseq	r4, r3, #180224	; 0x2c000
 5a0:	1a000006 	bne	5c0 <_start-0x7a40>
 5a4:	0e030005 	cdpeq	0, 0, cr0, cr3, cr5, {0}
 5a8:	0b3b0b3a 	bleq	ec3298 <multiplylookup+0xeb9bc8>
 5ac:	0a021349 	beq	852d8 <multiplylookup+0x7bc08>
 5b0:	1d1b0000 	ldcne	0, cr0, [fp, #-0]
 5b4:	52133101 	andspl	r3, r3, #1073741824	; 0x40000000
 5b8:	58065501 	stmdapl	r6, {r0, r8, sl, ip, lr}
 5bc:	000b590b 	andeq	r5, fp, fp, lsl #18
 5c0:	00051c00 	andeq	r1, r5, r0, lsl #24
 5c4:	00001331 	andeq	r1, r0, r1, lsr r3
 5c8:	3100051d 	tstcc	r0, sp, lsl r5
 5cc:	000a0213 	andeq	r0, sl, r3, lsl r2
 5d0:	010b1e00 	tsteq	fp, r0, lsl #28
 5d4:	00000655 	andeq	r0, r0, r5, asr r6
 5d8:	3100051f 	tstcc	r0, pc, lsl r5
 5dc:	000b1c13 	andeq	r1, fp, r3, lsl ip
 5e0:	010b2000 	mrseq	r2, (UNDEF: 11)
 5e4:	13010655 	movwne	r0, #5717	; 0x1655
 5e8:	89210000 	stmdbhi	r1!, {}	; <UNPREDICTABLE>
 5ec:	11010182 	smlabbne	r1, r2, r1, r0
 5f0:	0c429501 	cfstr64eq	mvdx9, [r2], {1}
 5f4:	00001331 	andeq	r1, r0, r1, lsr r3
 5f8:	01828922 	orreq	r8, r2, r2, lsr #18
 5fc:	31011100 	mrscc	r1, (UNDEF: 17)
 600:	23000013 	movwcs	r0, #19
 604:	0b0b000f 	bleq	2c0648 <multiplylookup+0x2b6f78>
 608:	00001349 	andeq	r1, r0, r9, asr #6
 60c:	03003424 	movweq	r3, #1060	; 0x424
 610:	3b0b3a08 	blcc	2cee38 <multiplylookup+0x2c5768>
 614:	0213490b 	andseq	r4, r3, #180224	; 0x2c000
 618:	2500000a 	strcs	r0, [r0, #-10]
 61c:	0e030034 	mcreq	0, 0, r0, cr3, cr4, {1}
 620:	0b3b0b3a 	bleq	ec3310 <multiplylookup+0xeb9c40>
 624:	0a021349 	beq	85350 <multiplylookup+0x7bc80>
 628:	2e260000 	cdpcs	0, 2, cr0, cr6, cr0, {0}
 62c:	030c3f01 	movweq	r3, #52993	; 0xcf01
 630:	3b0b3a0e 	blcc	2cee70 <multiplylookup+0x2c57a0>
 634:	490c270b 	stmdbmi	ip, {r0, r1, r3, r8, r9, sl, sp}
 638:	010c3c13 	tsteq	ip, r3, lsl ip
 63c:	27000013 	smladcs	r0, r3, r0, r0
 640:	13490005 	movtne	r0, #36869	; 0x9005
 644:	2e280000 	cdpcs	0, 2, cr0, cr8, cr0, {0}
 648:	030c3f01 	movweq	r3, #52993	; 0xcf01
 64c:	3b0b3a0e 	blcc	2cee8c <multiplylookup+0x2c57bc>
 650:	3c0c270b 	stccc	7, cr2, [ip], {11}
 654:	0013010c 	andseq	r0, r3, ip, lsl #2
 658:	012e2900 	teqeq	lr, r0, lsl #18
 65c:	0e030c3f 	mcreq	12, 0, r0, cr3, cr15, {1}
 660:	0b3b0b3a 	bleq	ec3350 <multiplylookup+0xeb9c80>
 664:	0c3c0c27 	ldceq	12, cr0, [ip], #-156	; 0xffffff64
 668:	Address 0x0000000000000668 is out of bounds.


Disassembly of section .debug_aranges:

00000000 <.debug_aranges>:
   0:	0000001c 	andeq	r0, r0, ip, lsl r0
   4:	00000002 	andeq	r0, r0, r2
   8:	00040000 	andeq	r0, r4, r0
   c:	00000000 	andeq	r0, r0, r0
  10:	00008000 	andeq	r8, r0, r0
  14:	000000a0 	andeq	r0, r0, r0, lsr #1
	...
  20:	0000006c 	andeq	r0, r0, ip, rrx
  24:	00580002 	subseq	r0, r8, r2
  28:	00040000 	andeq	r0, r4, r0
  2c:	00000000 	andeq	r0, r0, r0
  30:	000080a0 	andeq	r8, r0, r0, lsr #1
  34:	00000018 	andeq	r0, r0, r8, lsl r0
  38:	000080b8 	strheq	r8, [r0], -r8	; <UNPREDICTABLE>
  3c:	00000030 	andeq	r0, r0, r0, lsr r0
  40:	000080e8 	andeq	r8, r0, r8, ror #1
  44:	0000001c 	andeq	r0, r0, ip, lsl r0
  48:	00008104 	andeq	r8, r0, r4, lsl #2
  4c:	00000034 	andeq	r0, r0, r4, lsr r0
  50:	00008138 	andeq	r8, r0, r8, lsr r1
  54:	0000002c 	andeq	r0, r0, ip, lsr #32
  58:	00008164 	andeq	r8, r0, r4, ror #2
  5c:	00000020 	andeq	r0, r0, r0, lsr #32
  60:	00008184 	andeq	r8, r0, r4, lsl #3
  64:	0000003c 	andeq	r0, r0, ip, lsr r0
  68:	000081c0 	andeq	r8, r0, r0, asr #3
  6c:	0000001c 	andeq	r0, r0, ip, lsl r0
  70:	000081dc 	ldrdeq	r8, [r0], -ip
  74:	00000110 	andeq	r0, r0, r0, lsl r1
  78:	000082ec 	andeq	r8, r0, ip, ror #5
  7c:	00000030 	andeq	r0, r0, r0, lsr r0
  80:	0000831c 	andeq	r8, r0, ip, lsl r3
  84:	00000018 	andeq	r0, r0, r8, lsl r0
	...
  90:	0000002c 	andeq	r0, r0, ip, lsr #32
  94:	05650002 	strbeq	r0, [r5, #-2]!
  98:	00040000 	andeq	r0, r4, r0
  9c:	00000000 	andeq	r0, r0, r0
  a0:	00008334 	andeq	r8, r0, r4, lsr r3
  a4:	0000003c 	andeq	r0, r0, ip, lsr r0
  a8:	00008370 	andeq	r8, r0, r0, ror r3
  ac:	0000003c 	andeq	r0, r0, ip, lsr r0
  b0:	000083ac 	andeq	r8, r0, ip, lsr #7
  b4:	000001a4 	andeq	r0, r0, r4, lsr #3
	...
  c0:	0000001c 	andeq	r0, r0, ip, lsl r0
  c4:	0ad40002 	beq	ff5000d4 <multiplylookup+0xff4f6a04>
  c8:	00040000 	andeq	r0, r4, r0
  cc:	00000000 	andeq	r0, r0, r0
  d0:	00008550 	andeq	r8, r0, r0, asr r5
  d4:	00000108 	andeq	r0, r0, r8, lsl #2
	...
  e0:	0000001c 	andeq	r0, r0, ip, lsl r0
  e4:	0b2e0002 	bleq	b800f4 <multiplylookup+0xb76a24>
  e8:	00040000 	andeq	r0, r4, r0
  ec:	00000000 	andeq	r0, r0, r0
  f0:	00008658 	andeq	r8, r0, r8, asr r6
  f4:	00000040 	andeq	r0, r0, r0, asr #32
	...
 100:	00000024 	andeq	r0, r0, r4, lsr #32
 104:	0b840002 	bleq	fe100114 <multiplylookup+0xfe0f6a44>
 108:	00040000 	andeq	r0, r4, r0
 10c:	00000000 	andeq	r0, r0, r0
 110:	00008698 	muleq	r0, r8, r6
 114:	00000030 	andeq	r0, r0, r0, lsr r0
 118:	000086c8 	andeq	r8, r0, r8, asr #13
 11c:	00000154 	andeq	r0, r0, r4, asr r1
	...
 128:	0000005c 	andeq	r0, r0, ip, asr r0
 12c:	0dff0002 	ldcleq	0, cr0, [pc, #8]!	; 13c <_start-0x7ec4>
 130:	00040000 	andeq	r0, r4, r0
 134:	00000000 	andeq	r0, r0, r0
 138:	0000881c 	andeq	r8, r0, ip, lsl r8
 13c:	0000000c 	andeq	r0, r0, ip
 140:	00008828 	andeq	r8, r0, r8, lsr #16
 144:	00000050 	andeq	r0, r0, r0, asr r0
 148:	00008878 	andeq	r8, r0, r8, ror r8
 14c:	00000048 	andeq	r0, r0, r8, asr #32
 150:	000088c0 	andeq	r8, r0, r0, asr #17
 154:	0000014c 	andeq	r0, r0, ip, asr #2
 158:	00008a0c 	andeq	r8, r0, ip, lsl #20
 15c:	000000a0 	andeq	r0, r0, r0, lsr #1
 160:	00008aac 	andeq	r8, r0, ip, lsr #21
 164:	00000028 	andeq	r0, r0, r8, lsr #32
 168:	00008ad4 	ldrdeq	r8, [r0], -r4
 16c:	00000054 	andeq	r0, r0, r4, asr r0
 170:	00008b28 	andeq	r8, r0, r8, lsr #22
 174:	000000b0 	strheq	r0, [r0], -r0	; <UNPREDICTABLE>
 178:	00008bd8 	ldrdeq	r8, [r0], -r8	; <UNPREDICTABLE>
 17c:	000002bc 			; <UNDEFINED> instruction: 0x000002bc
	...

Disassembly of section .debug_loc:

00000000 <.debug_loc>:
       0:	000080a0 	andeq	r8, r0, r0, lsr #1
       4:	000080a4 	andeq	r8, r0, r4, lsr #1
       8:	007d0002 	rsbseq	r0, sp, r2
       c:	000080a4 	andeq	r8, r0, r4, lsr #1
      10:	000080b8 	strheq	r8, [r0], -r8	; <UNPREDICTABLE>
      14:	087d0002 	ldmdaeq	sp!, {r1}^
	...
      20:	000080b8 	strheq	r8, [r0], -r8	; <UNPREDICTABLE>
      24:	000080bc 	strheq	r8, [r0], -ip
      28:	007d0002 	rsbseq	r0, sp, r2
      2c:	000080bc 	strheq	r8, [r0], -ip
      30:	000080e8 	andeq	r8, r0, r8, ror #1
      34:	087d0002 	ldmdaeq	sp!, {r1}^
	...
      40:	000080e8 	andeq	r8, r0, r8, ror #1
      44:	000080ec 	andeq	r8, r0, ip, ror #1
      48:	007d0002 	rsbseq	r0, sp, r2
      4c:	000080ec 	andeq	r8, r0, ip, ror #1
      50:	00008104 	andeq	r8, r0, r4, lsl #2
      54:	087d0002 	ldmdaeq	sp!, {r1}^
	...
      60:	00008104 	andeq	r8, r0, r4, lsl #2
      64:	00008108 	andeq	r8, r0, r8, lsl #2
      68:	007d0002 	rsbseq	r0, sp, r2
      6c:	00008108 	andeq	r8, r0, r8, lsl #2
      70:	00008138 	andeq	r8, r0, r8, lsr r1
      74:	087d0002 	ldmdaeq	sp!, {r1}^
	...
      80:	00008104 	andeq	r8, r0, r4, lsl #2
      84:	0000810c 	andeq	r8, r0, ip, lsl #2
      88:	0c500001 	mrrceq	0, 0, r0, r0, cr1	; <UNPREDICTABLE>
      8c:	38000081 	stmdacc	r0, {r0, r7}
      90:	01000081 	smlabbeq	r0, r1, r0, r0
      94:	00005400 	andeq	r5, r0, r0, lsl #8
      98:	00000000 	andeq	r0, r0, r0
      9c:	81380000 	teqhi	r8, r0
      a0:	813c0000 	teqhi	ip, r0
      a4:	00020000 	andeq	r0, r2, r0
      a8:	813c007d 	teqhi	ip, sp, ror r0
      ac:	81640000 	cmnhi	r4, r0
      b0:	00020000 	andeq	r0, r2, r0
      b4:	0000087d 	andeq	r0, r0, sp, ror r8
      b8:	00000000 	andeq	r0, r0, r0
      bc:	81380000 	teqhi	r8, r0
      c0:	81440000 	mrshi	r0, (UNDEF: 68)
      c4:	00010000 	andeq	r0, r1, r0
      c8:	00814450 	addeq	r4, r1, r0, asr r4
      cc:	00814c00 	addeq	r4, r1, r0, lsl #24
      d0:	54000100 	strpl	r0, [r0], #-256	; 0x100
      d4:	0000814c 	andeq	r8, r0, ip, asr #2
      d8:	00008164 	andeq	r8, r0, r4, ror #2
      dc:	01f30004 	mvnseq	r0, r4
      e0:	00009f50 	andeq	r9, r0, r0, asr pc
      e4:	00000000 	andeq	r0, r0, r0
      e8:	81380000 	teqhi	r8, r0
      ec:	814c0000 	mrshi	r0, (UNDEF: 76)
      f0:	00020000 	andeq	r0, r2, r0
      f4:	00009f30 	andeq	r9, r0, r0, lsr pc
      f8:	00000000 	andeq	r0, r0, r0
      fc:	81640000 	cmnhi	r4, r0
     100:	81680000 	cmnhi	r8, r0
     104:	00020000 	andeq	r0, r2, r0
     108:	8168007d 	smchi	32781	; 0x800d
     10c:	81840000 	orrhi	r0, r4, r0
     110:	00020000 	andeq	r0, r2, r0
     114:	0000087d 	andeq	r0, r0, sp, ror r8
     118:	00000000 	andeq	r0, r0, r0
     11c:	81840000 	orrhi	r0, r4, r0
     120:	81880000 	orrhi	r0, r8, r0
     124:	00020000 	andeq	r0, r2, r0
     128:	8188007d 	orrhi	r0, r8, sp, ror r0
     12c:	81c00000 	bichi	r0, r0, r0
     130:	00020000 	andeq	r0, r2, r0
     134:	0000107d 	andeq	r1, r0, sp, ror r0
     138:	00000000 	andeq	r0, r0, r0
     13c:	81840000 	orrhi	r0, r4, r0
     140:	81900000 	orrshi	r0, r0, r0
     144:	00010000 	andeq	r0, r1, r0
     148:	00819050 	addeq	r9, r1, r0, asr r0
     14c:	0081c000 	addeq	ip, r1, r0
     150:	55000100 	strpl	r0, [r0, #-256]	; 0x100
	...
     15c:	00008184 	andeq	r8, r0, r4, lsl #3
     160:	00008190 	muleq	r0, r0, r1
     164:	20080003 	andcs	r0, r8, r3
     168:	0081909f 	umulleq	r9, r1, pc, r0	; <UNPREDICTABLE>
     16c:	0081c000 	addeq	ip, r1, r0
     170:	54000100 	strpl	r0, [r0], #-256	; 0x100
	...
     17c:	0000819c 	muleq	r0, ip, r1
     180:	000081a4 	andeq	r8, r0, r4, lsr #3
     184:	a4530001 	ldrbge	r0, [r3], #-1
     188:	ab000081 	blge	394 <_start-0x7c6c>
     18c:	01000081 	smlabbeq	r0, r1, r0, r0
     190:	00005000 	andeq	r5, r0, r0
     194:	00000000 	andeq	r0, r0, r0
     198:	81c00000 	bichi	r0, r0, r0
     19c:	81c40000 	bichi	r0, r4, r0
     1a0:	00020000 	andeq	r0, r2, r0
     1a4:	81c4007d 	bichi	r0, r4, sp, ror r0
     1a8:	81dc0000 	bicshi	r0, ip, r0
     1ac:	00020000 	andeq	r0, r2, r0
     1b0:	0000087d 	andeq	r0, r0, sp, ror r8
     1b4:	00000000 	andeq	r0, r0, r0
     1b8:	81c00000 	bichi	r0, r0, r0
     1bc:	81c70000 	bichi	r0, r7, r0
     1c0:	00010000 	andeq	r0, r1, r0
     1c4:	0081c750 	addeq	ip, r1, r0, asr r7
     1c8:	0081dc00 	addeq	sp, r1, r0, lsl #24
     1cc:	f3000400 	vshl.u8	d0, d0, d0
     1d0:	009f5001 	addseq	r5, pc, r1
     1d4:	00000000 	andeq	r0, r0, r0
     1d8:	dc000000 	stcle	0, cr0, [r0], {-0}
     1dc:	e0000081 	and	r0, r0, r1, lsl #1
     1e0:	02000081 	andeq	r0, r0, #129	; 0x81
     1e4:	e0007d00 	and	r7, r0, r0, lsl #26
     1e8:	ec000081 	stc	0, cr0, [r0], {129}	; 0x81
     1ec:	02000082 	andeq	r0, r0, #130	; 0x82
     1f0:	00087d00 	andeq	r7, r8, r0, lsl #26
     1f4:	00000000 	andeq	r0, r0, r0
     1f8:	48000000 	stmdami	r0, {}	; <UNPREDICTABLE>
     1fc:	4c000082 	stcmi	0, cr0, [r0], {130}	; 0x82
     200:	0b000082 	bleq	410 <_start-0x7bf0>
     204:	0b007000 	bleq	1c20c <multiplylookup+0x12b3c>
     208:	0a1a8fff 	beq	6a420c <multiplylookup+0x69ab3c>
     20c:	9f212000 	svcls	0x00212000
     210:	0000824c 	andeq	r8, r0, ip, asr #4
     214:	00008250 	andeq	r8, r0, r0, asr r2
     218:	00710007 	rsbseq	r0, r1, r7
     21c:	21243c42 	teqcs	r4, r2, asr #24
     220:	0082509f 	umulleq	r5, r2, pc, r0	; <UNPREDICTABLE>
     224:	00825700 	addeq	r5, r2, r0, lsl #14
     228:	51000100 	mrspl	r0, (UNDEF: 16)
     22c:	00008264 	andeq	r8, r0, r4, ror #4
     230:	00008268 	andeq	r8, r0, r8, ror #4
     234:	9f300002 	svcls	0x00300002
     238:	00008274 	andeq	r8, r0, r4, ror r2
     23c:	00008288 	andeq	r8, r0, r8, lsl #5
     240:	88540001 	ldmdahi	r4, {r0}^
     244:	8c000082 	stchi	0, cr0, [r0], {130}	; 0x82
     248:	02000082 	andeq	r0, r0, #130	; 0x82
     24c:	989f3000 	ldmls	pc, {ip, sp}	; <UNPREDICTABLE>
     250:	ec000082 	stc	0, cr0, [r0], {130}	; 0x82
     254:	01000082 	smlabbeq	r0, r2, r0, r0
     258:	00005400 	andeq	r5, r0, r0, lsl #8
     25c:	00000000 	andeq	r0, r0, r0
     260:	82ec0000 	rschi	r0, ip, #0
     264:	82f00000 	rscshi	r0, r0, #0
     268:	00020000 	andeq	r0, r2, r0
     26c:	82f0007d 	rscshi	r0, r0, #125	; 0x7d
     270:	831c0000 	tsthi	ip, #0
     274:	00020000 	andeq	r0, r2, r0
     278:	0000087d 	andeq	r0, r0, sp, ror r8
     27c:	00000000 	andeq	r0, r0, r0
     280:	831c0000 	tsthi	ip, #0
     284:	83200000 	teqhi	r0, #0
     288:	00020000 	andeq	r0, r2, r0
     28c:	8320007d 	teqhi	r0, #125	; 0x7d
     290:	83340000 	teqhi	r4, #0
     294:	00020000 	andeq	r0, r2, r0
     298:	0000087d 	andeq	r0, r0, sp, ror r8
     29c:	00000000 	andeq	r0, r0, r0
     2a0:	83340000 	teqhi	r4, #0
     2a4:	83380000 	teqhi	r8, #0
     2a8:	00020000 	andeq	r0, r2, r0
     2ac:	8338007d 	teqhi	r8, #125	; 0x7d
     2b0:	83700000 	cmnhi	r0, #0
     2b4:	00020000 	andeq	r0, r2, r0
     2b8:	0000107d 	andeq	r1, r0, sp, ror r0
     2bc:	00000000 	andeq	r0, r0, r0
     2c0:	83340000 	teqhi	r4, #0
     2c4:	83400000 	movthi	r0, #0
     2c8:	00010000 	andeq	r0, r1, r0
     2cc:	00834050 	addeq	r4, r3, r0, asr r0
     2d0:	00837000 	addeq	r7, r3, r0
     2d4:	54000100 	strpl	r0, [r0], #-256	; 0x100
	...
     2e0:	00008334 	andeq	r8, r0, r4, lsr r3
     2e4:	00008340 	andeq	r8, r0, r0, asr #6
     2e8:	40510001 	subsmi	r0, r1, r1
     2ec:	70000083 	andvc	r0, r0, r3, lsl #1
     2f0:	01000083 	smlabbeq	r0, r3, r0, r0
     2f4:	00005500 	andeq	r5, r0, r0, lsl #10
     2f8:	00000000 	andeq	r0, r0, r0
     2fc:	83700000 	cmnhi	r0, #0
     300:	83740000 	cmnhi	r4, #0
     304:	00020000 	andeq	r0, r2, r0
     308:	8374007d 	cmnhi	r4, #125	; 0x7d
     30c:	83ac0000 			; <UNDEFINED> instruction: 0x83ac0000
     310:	00020000 	andeq	r0, r2, r0
     314:	0000087d 	andeq	r0, r0, sp, ror r8
     318:	00000000 	andeq	r0, r0, r0
     31c:	83700000 	cmnhi	r0, #0
     320:	83780000 	cmnhi	r8, #0
     324:	00010000 	andeq	r0, r1, r0
     328:	00837850 	addeq	r7, r3, r0, asr r8
     32c:	0083ac00 	addeq	sl, r3, r0, lsl #24
     330:	54000100 	strpl	r0, [r0], #-256	; 0x100
	...
     33c:	00008380 	andeq	r8, r0, r0, lsl #7
     340:	0000838c 	andeq	r8, r0, ip, lsl #7
     344:	90500001 	subsls	r0, r0, r1
     348:	ac000083 	stcge	0, cr0, [r0], {131}	; 0x83
     34c:	01000083 	smlabbeq	r0, r3, r0, r0
     350:	00005000 	andeq	r5, r0, r0
     354:	00000000 	andeq	r0, r0, r0
     358:	83ac0000 			; <UNDEFINED> instruction: 0x83ac0000
     35c:	83b00000 	movshi	r0, #0
     360:	00020000 	andeq	r0, r2, r0
     364:	83b0007d 	movshi	r0, #125	; 0x7d
     368:	83b40000 			; <UNDEFINED> instruction: 0x83b40000
     36c:	00020000 	andeq	r0, r2, r0
     370:	83b4107d 			; <UNDEFINED> instruction: 0x83b4107d
     374:	85500000 	ldrbhi	r0, [r0, #-0]
     378:	00020000 	andeq	r0, r2, r0
     37c:	0000187d 	andeq	r1, r0, sp, ror r8
     380:	00000000 	andeq	r0, r0, r0
     384:	84480000 	strbhi	r0, [r8], #-0
     388:	84680000 	strbthi	r0, [r8], #-0
     38c:	00060000 	andeq	r0, r6, r0
     390:	0400000c 	streq	r0, [r0], #-12
     394:	00009f40 	andeq	r9, r0, r0, asr #30
     398:	00000000 	andeq	r0, r0, r0
     39c:	84480000 	strbhi	r0, [r8], #-0
     3a0:	84500000 	ldrbhi	r0, [r0], #-0
     3a4:	00020000 	andeq	r0, r2, r0
     3a8:	84949f30 	ldrhi	r9, [r4], #3888	; 0xf30
     3ac:	849c0000 	ldrhi	r0, [ip], #0
     3b0:	00020000 	andeq	r0, r2, r0
     3b4:	00009f30 	andeq	r9, r0, r0, lsr pc
     3b8:	00000000 	andeq	r0, r0, r0
     3bc:	84a80000 	strthi	r0, [r8], #0
     3c0:	84ac0000 	strthi	r0, [ip], #0
     3c4:	00010000 	andeq	r0, r1, r0
     3c8:	0084ac50 	addeq	sl, r4, r0, asr ip
     3cc:	00855000 	addeq	r5, r5, r0
     3d0:	55000100 	strpl	r0, [r0, #-256]	; 0x100
	...
     3dc:	00008698 	muleq	r0, r8, r6
     3e0:	00008698 	muleq	r0, r8, r6
     3e4:	98500001 	ldmdals	r0, {r0}^
     3e8:	9c000086 	stcls	0, cr0, [r0], {134}	; 0x86
     3ec:	04000086 	streq	r0, [r0], #-134	; 0x86
     3f0:	5001f300 	andpl	pc, r1, r0, lsl #6
     3f4:	00869c9f 	umulleq	r9, r6, pc, ip	; <UNPREDICTABLE>
     3f8:	0086b400 	addeq	fp, r6, r0, lsl #8
     3fc:	50000100 	andpl	r0, r0, r0, lsl #2
     400:	000086b4 			; <UNDEFINED> instruction: 0x000086b4
     404:	000086b8 			; <UNDEFINED> instruction: 0x000086b8
     408:	01f30006 	mvnseq	r0, r6
     40c:	9f012350 	svcls	0x00012350
     410:	000086b8 			; <UNDEFINED> instruction: 0x000086b8
     414:	000086c4 	andeq	r8, r0, r4, asr #13
     418:	c4500001 	ldrbgt	r0, [r0], #-1
     41c:	c8000086 	stmdagt	r0, {r1, r2, r7}
     420:	06000086 	streq	r0, [r0], -r6, lsl #1
     424:	5001f300 	andpl	pc, r1, r0, lsl #6
     428:	009f0123 	addseq	r0, pc, r3, lsr #2
     42c:	00000000 	andeq	r0, r0, r0
     430:	98000000 	stmdals	r0, {}	; <UNPREDICTABLE>
     434:	98000086 	stmdals	r0, {r1, r2, r7}
     438:	01000086 	smlabbeq	r0, r6, r0, r0
     43c:	86985100 	ldrhi	r5, [r8], r0, lsl #2
     440:	86a00000 	strthi	r0, [r0], r0
     444:	00040000 	andeq	r0, r4, r0
     448:	9f5101f3 	svcls	0x005101f3
     44c:	000086a0 	andeq	r8, r0, r0, lsr #13
     450:	000086c8 	andeq	r8, r0, r8, asr #13
     454:	00510001 	subseq	r0, r1, r1
     458:	00000000 	andeq	r0, r0, r0
     45c:	c8000000 	stmdagt	r0, {}	; <UNPREDICTABLE>
     460:	cc000086 	stcgt	0, cr0, [r0], {134}	; 0x86
     464:	02000086 	andeq	r0, r0, #134	; 0x86
     468:	cc007d00 	stcgt	13, cr7, [r0], {-0}
     46c:	d8000086 	stmdale	r0, {r1, r2, r7}
     470:	02000086 	andeq	r0, r0, #134	; 0x86
     474:	d81c7d00 	ldmdale	ip, {r8, sl, fp, ip, sp, lr}
     478:	1c000086 	stcne	0, cr0, [r0], {134}	; 0x86
     47c:	03000088 	movweq	r0, #136	; 0x88
     480:	01e87d00 	mvneq	r7, r0, lsl #26
	...
     48c:	000086c8 	andeq	r8, r0, r8, asr #13
     490:	000086f8 	strdeq	r8, [r0], -r8	; <UNPREDICTABLE>
     494:	f8500001 			; <UNDEFINED> instruction: 0xf8500001
     498:	fc000086 	stc2	0, cr0, [r0], {134}	; 0x86
     49c:	01000087 	smlabbeq	r0, r7, r0, r0
     4a0:	87fc5800 	ldrbhi	r5, [ip, r0, lsl #16]!
     4a4:	88080000 	stmdahi	r8, {}	; <UNPREDICTABLE>
     4a8:	00010000 	andeq	r0, r1, r0
     4ac:	00880850 	addeq	r0, r8, r0, asr r8
     4b0:	00881c00 	addeq	r1, r8, r0, lsl #24
     4b4:	58000100 	stmdapl	r0, {r8}
	...
     4c0:	000086c8 	andeq	r8, r0, r8, asr #13
     4c4:	0000871f 	andeq	r8, r0, pc, lsl r7
     4c8:	1f510001 	svcne	0x00510001
     4cc:	cc000087 	stcgt	0, cr0, [r0], {135}	; 0x87
     4d0:	01000087 	smlabbeq	r0, r7, r0, r0
     4d4:	87cc5600 	strbhi	r5, [ip, r0, lsl #12]
     4d8:	87d70000 	ldrbhi	r0, [r7, r0]
     4dc:	00010000 	andeq	r0, r1, r0
     4e0:	0087d751 	addeq	sp, r7, r1, asr r7
     4e4:	0087fc00 	addeq	pc, r7, r0, lsl #24
     4e8:	56000100 	strpl	r0, [r0], -r0, lsl #2
     4ec:	000087fc 	strdeq	r8, [r0], -ip
     4f0:	0000881c 	andeq	r8, r0, ip, lsl r8
     4f4:	00510001 	subseq	r0, r1, r1
     4f8:	00000000 	andeq	r0, r0, r0
     4fc:	c8000000 	stmdagt	r0, {}	; <UNPREDICTABLE>
     500:	1f000086 	svcne	0x00000086
     504:	01000087 	smlabbeq	r0, r7, r0, r0
     508:	871f5200 	ldrhi	r5, [pc, -r0, lsl #4]
     50c:	87cc0000 	strbhi	r0, [ip, r0]
     510:	00010000 	andeq	r0, r1, r0
     514:	0087cc55 	addeq	ip, r7, r5, asr ip
     518:	0087d700 	addeq	sp, r7, r0, lsl #14
     51c:	52000100 	andpl	r0, r0, #0, 2
     520:	000087d7 	ldrdeq	r8, [r0], -r7
     524:	000087fc 	strdeq	r8, [r0], -ip
     528:	fc550001 	mrrc2	0, 0, r0, r5, cr1
     52c:	1c000087 	stcne	0, cr0, [r0], {135}	; 0x87
     530:	01000088 	smlabbeq	r0, r8, r0, r0
     534:	00005200 	andeq	r5, r0, r0, lsl #4
     538:	00000000 	andeq	r0, r0, r0
     53c:	86c80000 	strbhi	r0, [r8], r0
     540:	86f80000 	ldrbthi	r0, [r8], r0
     544:	00020000 	andeq	r0, r2, r0
     548:	86f89f30 			; <UNDEFINED> instruction: 0x86f89f30
     54c:	87000000 	strhi	r0, [r0, -r0]
     550:	00030000 	andeq	r0, r3, r0
     554:	0c9f7f70 	ldceq	15, cr7, [pc], {112}	; 0x70
     558:	14000087 	strne	r0, [r0], #-135	; 0x87
     55c:	01000087 	smlabbeq	r0, r7, r0, r0
     560:	87145c00 	ldrhi	r5, [r4, -r0, lsl #24]
     564:	871f0000 	ldrhi	r0, [pc, -r0]
     568:	00030000 	andeq	r0, r3, r0
     56c:	1f9f7f70 	svcne	0x009f7f70
     570:	34000087 	strcc	r0, [r0], #-135	; 0x87
     574:	03000087 	movweq	r0, #135	; 0x87
     578:	9f7e7400 	svcls	0x007e7400
     57c:	00008734 	andeq	r8, r0, r4, lsr r7
     580:	000087cc 	andeq	r8, r0, ip, asr #15
     584:	cc540001 	mrrcgt	0, 0, r0, r4, cr1
     588:	d4000087 	strle	r0, [r0], #-135	; 0x87
     58c:	03000087 	movweq	r0, #135	; 0x87
     590:	9f7f7000 	svcls	0x007f7000
     594:	000087f0 	strdeq	r8, [r0], -r0
     598:	000087fc 	strdeq	r8, [r0], -ip
     59c:	fc540001 	mrrc2	0, 0, r0, r4, cr1
     5a0:	1c000087 	stcne	0, cr0, [r0], {135}	; 0x87
     5a4:	02000088 	andeq	r0, r0, #136	; 0x88
     5a8:	009f3000 	addseq	r3, pc, r0
     5ac:	00000000 	andeq	r0, r0, r0
     5b0:	34000000 	strcc	r0, [r0], #-0
     5b4:	48000087 	stmdami	r0, {r0, r1, r2, r7}
     5b8:	01000087 	smlabbeq	r0, r7, r0, r0
     5bc:	87f05400 	ldrbhi	r5, [r0, r0, lsl #8]!
     5c0:	87fc0000 	ldrbhi	r0, [ip, r0]!
     5c4:	00010000 	andeq	r0, r1, r0
     5c8:	00000054 	andeq	r0, r0, r4, asr r0
     5cc:	00000000 	andeq	r0, r0, r0
     5d0:	00877c00 	addeq	r7, r7, r0, lsl #24
     5d4:	00878400 	addeq	r8, r7, r0, lsl #8
     5d8:	03000600 	movweq	r0, #1536	; 0x600
     5dc:	00008ea4 	andeq	r8, r0, r4, lsr #29
     5e0:	0000009f 	muleq	r0, pc, r0	; <UNPREDICTABLE>
     5e4:	00000000 	andeq	r0, r0, r0
     5e8:	00877c00 	addeq	r7, r7, r0, lsl #24
     5ec:	00878400 	addeq	r8, r7, r0, lsl #8
     5f0:	57000100 	strpl	r0, [r0, -r0, lsl #2]
	...
     5fc:	0000878c 	andeq	r8, r0, ip, lsl #15
     600:	0000879c 	muleq	r0, ip, r7
     604:	00720002 	rsbseq	r0, r2, r2
     608:	000087ac 	andeq	r8, r0, ip, lsr #15
     60c:	000087b3 			; <UNDEFINED> instruction: 0x000087b3
     610:	00720002 	rsbseq	r0, r2, r2
	...
     61c:	0000881c 	andeq	r8, r0, ip, lsl r8
     620:	00008824 	andeq	r8, r0, r4, lsr #16
     624:	24500001 	ldrbcs	r0, [r0], #-1
     628:	28000088 	stmdacs	r0, {r3, r7}
     62c:	04000088 	streq	r0, [r0], #-136	; 0x88
     630:	5001f300 	andpl	pc, r1, r0, lsl #6
     634:	0000009f 	muleq	r0, pc, r0	; <UNPREDICTABLE>
     638:	00000000 	andeq	r0, r0, r0
     63c:	00882800 	addeq	r2, r8, r0, lsl #16
     640:	00882c00 	addeq	r2, r8, r0, lsl #24
     644:	7d000200 	sfmvc	f0, 4, [r0, #-0]
     648:	00882c00 	addeq	r2, r8, r0, lsl #24
     64c:	00887800 	addeq	r7, r8, r0, lsl #16
     650:	7d000200 	sfmvc	f0, 4, [r0, #-0]
     654:	00000008 	andeq	r0, r0, r8
     658:	00000000 	andeq	r0, r0, r0
     65c:	00882800 	addeq	r2, r8, r0, lsl #16
     660:	00883000 	addeq	r3, r8, r0
     664:	50000100 	andpl	r0, r0, r0, lsl #2
     668:	00008830 	andeq	r8, r0, r0, lsr r8
     66c:	00008878 	andeq	r8, r0, r8, ror r8
     670:	00540001 	subseq	r0, r4, r1
     674:	00000000 	andeq	r0, r0, r0
     678:	38000000 	stmdacc	r0, {}	; <UNPREDICTABLE>
     67c:	3c000088 	stccc	0, cr0, [r0], {136}	; 0x88
     680:	04000088 	streq	r0, [r0], #-136	; 0x88
     684:	01e00a00 	mvneq	r0, r0, lsl #20
     688:	0000009f 	muleq	r0, pc, r0	; <UNPREDICTABLE>
     68c:	00000000 	andeq	r0, r0, r0
     690:	00883c00 	addeq	r3, r8, r0, lsl #24
     694:	00884400 	addeq	r4, r8, r0, lsl #8
     698:	08000300 	stmdaeq	r0, {r8, r9}
     69c:	00009f50 	andeq	r9, r0, r0, asr pc
     6a0:	00000000 	andeq	r0, r0, r0
     6a4:	88380000 	ldmdahi	r8!, {}	; <UNPREDICTABLE>
     6a8:	88440000 	stmdahi	r4, {}^	; <UNPREDICTABLE>
     6ac:	00010000 	andeq	r0, r1, r0
     6b0:	00884450 	addeq	r4, r8, r0, asr r4
     6b4:	00886800 	addeq	r6, r8, r0, lsl #16
     6b8:	53000100 	movwpl	r0, #256	; 0x100
     6bc:	00008868 	andeq	r8, r0, r8, ror #16
     6c0:	00008878 	andeq	r8, r0, r8, ror r8
     6c4:	00500001 	subseq	r0, r0, r1
     6c8:	00000000 	andeq	r0, r0, r0
     6cc:	78000000 	stmdavc	r0, {}	; <UNPREDICTABLE>
     6d0:	84000088 	strhi	r0, [r0], #-136	; 0x88
     6d4:	02000088 	andeq	r0, r0, #136	; 0x88
     6d8:	84007d00 	strhi	r7, [r0], #-3328	; 0xd00
     6dc:	c0000088 	andgt	r0, r0, r8, lsl #1
     6e0:	02000088 	andeq	r0, r0, #136	; 0x88
     6e4:	00107d00 	andseq	r7, r0, r0, lsl #26
     6e8:	00000000 	andeq	r0, r0, r0
     6ec:	78000000 	stmdavc	r0, {}	; <UNPREDICTABLE>
     6f0:	98000088 	stmdals	r0, {r3, r7}
     6f4:	01000088 	smlabbeq	r0, r8, r0, r0
     6f8:	88985000 	ldmhi	r8, {ip, lr}
     6fc:	88a40000 	stmiahi	r4!, {}	; <UNPREDICTABLE>
     700:	00010000 	andeq	r0, r1, r0
     704:	0088a455 	addeq	sl, r8, r5, asr r4
     708:	0088c000 	addeq	ip, r8, r0
     70c:	f3000400 	vshl.u8	d0, d0, d0
     710:	009f5001 	addseq	r5, pc, r1
     714:	00000000 	andeq	r0, r0, r0
     718:	78000000 	stmdavc	r0, {}	; <UNPREDICTABLE>
     71c:	9b000088 	blls	944 <_start-0x76bc>
     720:	01000088 	smlabbeq	r0, r8, r0, r0
     724:	889b5100 	ldmhi	fp, {r8, ip, lr}
     728:	88a00000 	stmiahi	r0!, {}	; <UNPREDICTABLE>
     72c:	00010000 	andeq	r0, r1, r0
     730:	0088a054 	addeq	sl, r8, r4, asr r0
     734:	0088c000 	addeq	ip, r8, r0
     738:	f3000400 	vshl.u8	d0, d0, d0
     73c:	009f5101 	addseq	r5, pc, r1, lsl #2
     740:	00000000 	andeq	r0, r0, r0
     744:	78000000 	stmdavc	r0, {}	; <UNPREDICTABLE>
     748:	9b000088 	blls	970 <_start-0x7690>
     74c:	01000088 	smlabbeq	r0, r8, r0, r0
     750:	889b5200 	ldmhi	fp, {r9, ip, lr}
     754:	88c00000 	stmiahi	r0, {}^	; <UNPREDICTABLE>
     758:	00010000 	andeq	r0, r1, r0
     75c:	00000056 	andeq	r0, r0, r6, asr r0
     760:	00000000 	andeq	r0, r0, r0
     764:	00889400 	addeq	r9, r8, r0, lsl #8
     768:	00889b00 	addeq	r9, r8, r0, lsl #22
     76c:	52000100 	andpl	r0, r0, #0, 2
     770:	0000889b 	muleq	r0, fp, r8
     774:	0000889c 	muleq	r0, ip, r8
     778:	9c560001 	mrrcls	0, 0, r0, r6, cr1
     77c:	b4000088 	strlt	r0, [r0], #-136	; 0x88
     780:	07000088 	streq	r0, [r0, -r8, lsl #1]
     784:	0a007600 	beq	1df8c <multiplylookup+0x148bc>
     788:	9f1affff 	svcls	0x001affff
	...
     794:	00008894 	muleq	r0, r4, r8
     798:	0000889b 	muleq	r0, fp, r8
     79c:	9b510001 	blls	14407a8 <multiplylookup+0x14370d8>
     7a0:	a0000088 	andge	r0, r0, r8, lsl #1
     7a4:	01000088 	smlabbeq	r0, r8, r0, r0
     7a8:	88a05400 	stmiahi	r0!, {sl, ip, lr}
     7ac:	88b40000 	ldmhi	r4!, {}	; <UNPREDICTABLE>
     7b0:	00040000 	andeq	r0, r4, r0
     7b4:	9f5101f3 	svcls	0x005101f3
	...
     7c0:	00008894 	muleq	r0, r4, r8
     7c4:	00008898 	muleq	r0, r8, r8
     7c8:	98500001 	ldmdals	r0, {r0}^
     7cc:	a4000088 	strge	r0, [r0], #-136	; 0x88
     7d0:	01000088 	smlabbeq	r0, r8, r0, r0
     7d4:	88a45500 	stmiahi	r4!, {r8, sl, ip, lr}
     7d8:	88b40000 	ldmhi	r4!, {}	; <UNPREDICTABLE>
     7dc:	00040000 	andeq	r0, r4, r0
     7e0:	9f5001f3 	svcls	0x005001f3
	...
     7ec:	0000889c 	muleq	r0, ip, r8
     7f0:	000088a0 	andeq	r8, r0, r0, lsr #17
     7f4:	0074000f 	rsbseq	r0, r4, pc
     7f8:	1e02800a 	cdpne	0, 0, cr8, cr2, cr10, {0}
     7fc:	31220075 	teqcc	r2, r5, ror r0
     800:	22007024 	andcs	r7, r0, #36	; 0x24
     804:	0088a09f 	umulleq	sl, r8, pc, r0	; <UNPREDICTABLE>
     808:	0088a400 	addeq	sl, r8, r0, lsl #8
     80c:	f3001000 	vhadd.u8	d1, d0, d0
     810:	800a5101 	andhi	r5, sl, r1, lsl #2
     814:	00751e02 	rsbseq	r1, r5, r2, lsl #28
     818:	70243122 	eorvc	r3, r4, r2, lsr #2
     81c:	a49f2200 	ldrge	r2, [pc], #512	; 824 <_start-0x77dc>
     820:	ac000088 	stcge	0, cr0, [r0], {136}	; 0x88
     824:	11000088 	smlabbne	r0, r8, r0, r0
     828:	5101f300 	mrspl	pc, SP_irq	; <UNPREDICTABLE>
     82c:	1e02800a 	cdpne	0, 0, cr8, cr2, cr10, {0}
     830:	225001f3 	subscs	r0, r0, #-1073741764	; 0xc000003c
     834:	00702431 	rsbseq	r2, r0, r1, lsr r4
     838:	00009f22 	andeq	r9, r0, r2, lsr #30
     83c:	00000000 	andeq	r0, r0, r0
     840:	88c00000 	stmiahi	r0, {}^	; <UNPREDICTABLE>
     844:	88c40000 	stmiahi	r4, {}^	; <UNPREDICTABLE>
     848:	00020000 	andeq	r0, r2, r0
     84c:	88c4007d 	stmiahi	r4, {r0, r2, r3, r4, r5, r6}^
     850:	88fc0000 	ldmhi	ip!, {}^	; <UNPREDICTABLE>
     854:	00020000 	andeq	r0, r2, r0
     858:	88fc247d 	ldmhi	ip!, {r0, r2, r3, r4, r5, r6, sl, sp}^
     85c:	8a0c0000 	bhi	300864 <multiplylookup+0x2f7194>
     860:	00030000 	andeq	r0, r3, r0
     864:	0000c07d 	andeq	ip, r0, sp, ror r0
     868:	00000000 	andeq	r0, r0, r0
     86c:	c0000000 	andgt	r0, r0, r0
     870:	d0000088 	andle	r0, r0, r8, lsl #1
     874:	01000088 	smlabbeq	r0, r8, r0, r0
     878:	88d05000 	ldmhi	r0, {ip, lr}^
     87c:	8a0c0000 	bhi	300884 <multiplylookup+0x2f71b4>
     880:	00010000 	andeq	r0, r1, r0
     884:	00000055 	andeq	r0, r0, r5, asr r0
     888:	00000000 	andeq	r0, r0, r0
     88c:	0088c000 	addeq	ip, r8, r0
     890:	0088e800 	addeq	lr, r8, r0, lsl #16
     894:	51000100 	mrspl	r0, (UNDEF: 16)
     898:	000088e8 	andeq	r8, r0, r8, ror #17
     89c:	00008a0c 	andeq	r8, r0, ip, lsl #20
     8a0:	00540001 	subseq	r0, r4, r1
     8a4:	00000000 	andeq	r0, r0, r0
     8a8:	c0000000 	andgt	r0, r0, r0
     8ac:	dc000088 	stcle	0, cr0, [r0], {136}	; 0x88
     8b0:	01000088 	smlabbeq	r0, r8, r0, r0
     8b4:	88dc5200 	ldmhi	ip, {r9, ip, lr}^
     8b8:	8a0c0000 	bhi	3008c0 <multiplylookup+0x2f71f0>
     8bc:	00010000 	andeq	r0, r1, r0
     8c0:	00000058 	andeq	r0, r0, r8, asr r0
     8c4:	00000000 	andeq	r0, r0, r0
     8c8:	0088c000 	addeq	ip, r8, r0
     8cc:	0088f800 	addeq	pc, r8, r0, lsl #16
     8d0:	53000100 	movwpl	r0, #256	; 0x100
     8d4:	000088f8 	strdeq	r8, [r0], -r8	; <UNPREDICTABLE>
     8d8:	00008a0c 	andeq	r8, r0, ip, lsl #20
     8dc:	005a0001 	subseq	r0, sl, r1
     8e0:	00000000 	andeq	r0, r0, r0
     8e4:	28000000 	stmdacs	r0, {}	; <UNPREDICTABLE>
     8e8:	30000089 	andcc	r0, r0, r9, lsl #1
     8ec:	01000089 	smlabbeq	r0, r9, r0, r0
     8f0:	89305300 	ldmdbhi	r0!, {r8, r9, ip, lr}
     8f4:	8a0c0000 	bhi	3008fc <multiplylookup+0x2f722c>
     8f8:	00020000 	andeq	r0, r2, r0
     8fc:	00004491 	muleq	r0, r1, r4
     900:	00000000 	andeq	r0, r0, r0
     904:	89340000 	ldmdbhi	r4!, {}	; <UNPREDICTABLE>
     908:	89380000 	ldmdbhi	r8!, {}	; <UNPREDICTABLE>
     90c:	00010000 	andeq	r0, r1, r0
     910:	00893853 	addeq	r3, r9, r3, asr r8
     914:	008a0c00 	addeq	r0, sl, r0, lsl #24
     918:	91000200 	mrsls	r0, R8_usr
     91c:	00000048 	andeq	r0, r0, r8, asr #32
     920:	00000000 	andeq	r0, r0, r0
     924:	00897000 	addeq	r7, r9, r0
     928:	0089b800 	addeq	fp, r9, r0, lsl #16
     92c:	56000100 	strpl	r0, [r0], -r0, lsl #2
     930:	000089b8 			; <UNDEFINED> instruction: 0x000089b8
     934:	000089bc 			; <UNDEFINED> instruction: 0x000089bc
     938:	c0530001 	subsgt	r0, r3, r1
     93c:	d4000089 	strle	r0, [r0], #-137	; 0x89
     940:	01000089 	smlabbeq	r0, r9, r0, r0
     944:	89d45300 	ldmibhi	r4, {r8, r9, ip, lr}^
     948:	8a0c0000 	bhi	300950 <multiplylookup+0x2f7280>
     94c:	00010000 	andeq	r0, r1, r0
     950:	00000056 	andeq	r0, r0, r6, asr r0
     954:	00000000 	andeq	r0, r0, r0
     958:	0089a000 	addeq	sl, r9, r0
     95c:	0089c800 	addeq	ip, r9, r0, lsl #16
     960:	56000100 	strpl	r0, [r0], -r0, lsl #2
     964:	000089e8 	andeq	r8, r0, r8, ror #19
     968:	00008a0c 	andeq	r8, r0, ip, lsl #20
     96c:	00560001 	subseq	r0, r6, r1
     970:	00000000 	andeq	r0, r0, r0
     974:	70000000 	andvc	r0, r0, r0
     978:	c0000089 	andgt	r0, r0, r9, lsl #1
     97c:	01000089 	smlabbeq	r0, r9, r0, r0
     980:	89dc5500 	ldmibhi	ip, {r8, sl, ip, lr}^
     984:	8a0c0000 	bhi	30098c <multiplylookup+0x2f72bc>
     988:	00010000 	andeq	r0, r1, r0
     98c:	00000055 	andeq	r0, r0, r5, asr r0
     990:	00000000 	andeq	r0, r0, r0
     994:	00897c00 	addeq	r7, r9, r0, lsl #24
     998:	0089a000 	addeq	sl, r9, r0
     99c:	54000100 	strpl	r0, [r0], #-256	; 0x100
	...
     9a8:	0000897c 	andeq	r8, r0, ip, ror r9
     9ac:	000089a0 	andeq	r8, r0, r0, lsr #19
     9b0:	00550001 	subseq	r0, r5, r1
     9b4:	00000000 	andeq	r0, r0, r0
     9b8:	88000000 	stmdahi	r0, {}	; <UNPREDICTABLE>
     9bc:	94000089 	strls	r0, [r0], #-137	; 0x89
     9c0:	0f000089 	svceq	0x00000089
     9c4:	0a007400 	beq	1d9cc <multiplylookup+0x142fc>
     9c8:	751e0280 	ldrvc	r0, [lr, #-640]	; 0x280
     9cc:	24312200 	ldrtcs	r2, [r1], #-512	; 0x200
     9d0:	9f220070 	svcls	0x00220070
	...
     9dc:	00008a0c 	andeq	r8, r0, ip, lsl #20
     9e0:	00008a10 	andeq	r8, r0, r0, lsl sl
     9e4:	007d0002 	rsbseq	r0, sp, r2
     9e8:	00008a10 	andeq	r8, r0, r0, lsl sl
     9ec:	00008a18 	andeq	r8, r0, r8, lsl sl
     9f0:	247d0002 	ldrbtcs	r0, [sp], #-2
     9f4:	00008a18 	andeq	r8, r0, r8, lsl sl
     9f8:	00008aac 	andeq	r8, r0, ip, lsr #21
     9fc:	307d0002 	rsbscc	r0, sp, r2
	...
     a08:	00008a0c 	andeq	r8, r0, ip, lsl #20
     a0c:	00008a34 	andeq	r8, r0, r4, lsr sl
     a10:	34500001 	ldrbcc	r0, [r0], #-1
     a14:	ac00008a 	stcge	0, cr0, [r0], {138}	; 0x8a
     a18:	0600008a 	streq	r0, [r0], -sl, lsl #1
     a1c:	064c9100 	strbeq	r9, [ip], -r0, lsl #2
     a20:	009f1c37 	addseq	r1, pc, r7, lsr ip	; <UNPREDICTABLE>
     a24:	00000000 	andeq	r0, r0, r0
     a28:	0c000000 	stceq	0, cr0, [r0], {-0}
     a2c:	3400008a 	strcc	r0, [r0], #-138	; 0x8a
     a30:	0100008a 	smlabbeq	r0, sl, r0, r0
     a34:	8a345100 	bhi	d14e3c <multiplylookup+0xd0b76c>
     a38:	8aac0000 	bhi	feb00a40 <multiplylookup+0xfeaf7370>
     a3c:	00010000 	andeq	r0, r1, r0
     a40:	00000057 	andeq	r0, r0, r7, asr r0
     a44:	00000000 	andeq	r0, r0, r0
     a48:	008a2800 	addeq	r2, sl, r0, lsl #16
     a4c:	008a3400 	addeq	r3, sl, r0, lsl #8
     a50:	50000100 	andpl	r0, r0, r0, lsl #2
     a54:	00008a34 	andeq	r8, r0, r4, lsr sl
     a58:	00008aac 	andeq	r8, r0, ip, lsr #21
     a5c:	00560001 	subseq	r0, r6, r1
     a60:	00000000 	andeq	r0, r0, r0
     a64:	34000000 	strcc	r0, [r0], #-0
     a68:	4c00008a 	stcmi	0, cr0, [r0], {138}	; 0x8a
     a6c:	0100008a 	smlabbeq	r0, sl, r0, r0
     a70:	8a4c5700 	bhi	1316678 <multiplylookup+0x130cfa8>
     a74:	8a600000 	bhi	1800a7c <multiplylookup+0x17f73ac>
     a78:	00010000 	andeq	r0, r1, r0
     a7c:	008a6054 	addeq	r6, sl, r4, asr r0
     a80:	008a7800 	addeq	r7, sl, r0, lsl #16
     a84:	74000300 	strvc	r0, [r0], #-768	; 0x300
     a88:	8a789f7f 	bhi	1e2888c <multiplylookup+0x1e1f1bc>
     a8c:	8aac0000 	bhi	feb00a94 <multiplylookup+0xfeaf73c4>
     a90:	00010000 	andeq	r0, r1, r0
     a94:	00000054 	andeq	r0, r0, r4, asr r0
     a98:	00000000 	andeq	r0, r0, r0
     a9c:	008a4c00 	addeq	r4, sl, r0, lsl #24
     aa0:	008a6000 	addeq	r6, sl, r0
     aa4:	54000100 	strpl	r0, [r0], #-256	; 0x100
     aa8:	00008a60 	andeq	r8, r0, r0, ror #20
     aac:	00008aac 	andeq	r8, r0, ip, lsr #21
     ab0:	7f740003 	svcvc	0x00740003
     ab4:	0000009f 	muleq	r0, pc, r0	; <UNPREDICTABLE>
     ab8:	00000000 	andeq	r0, r0, r0
     abc:	008a6400 	addeq	r6, sl, r0, lsl #8
     ac0:	008a7800 	addeq	r7, sl, r0, lsl #16
     ac4:	30000200 	andcc	r0, r0, r0, lsl #4
     ac8:	0000009f 	muleq	r0, pc, r0	; <UNPREDICTABLE>
     acc:	00000000 	andeq	r0, r0, r0
     ad0:	008a6c00 	addeq	r6, sl, r0, lsl #24
     ad4:	008a7400 	addeq	r7, sl, r0, lsl #8
     ad8:	75000800 	strvc	r0, [r0, #-2048]	; 0x800
     adc:	70243100 	eorvc	r3, r4, r0, lsl #2
     ae0:	009f2200 	addseq	r2, pc, r0, lsl #4
     ae4:	00000000 	andeq	r0, r0, r0
     ae8:	ac000000 	stcge	0, cr0, [r0], {-0}
     aec:	b400008a 	strlt	r0, [r0], #-138	; 0x8a
     af0:	0200008a 	andeq	r0, r0, #138	; 0x8a
     af4:	b4007d00 	strlt	r7, [r0], #-3328	; 0xd00
     af8:	d400008a 	strle	r0, [r0], #-138	; 0x8a
     afc:	0200008a 	andeq	r0, r0, #138	; 0x8a
     b00:	00087d00 	andeq	r7, r8, r0, lsl #26
     b04:	00000000 	andeq	r0, r0, r0
     b08:	ac000000 	stcge	0, cr0, [r0], {-0}
     b0c:	bb00008a 	bllt	d3c <_start-0x72c4>
     b10:	0100008a 	smlabbeq	r0, sl, r0, r0
     b14:	8abb5000 	bhi	feed4b1c <multiplylookup+0xfeecb44c>
     b18:	8ac40000 	bhi	ff100b20 <multiplylookup+0xff0f7450>
     b1c:	00040000 	andeq	r0, r4, r0
     b20:	9f5001f3 	svcls	0x005001f3
     b24:	00008ac4 	andeq	r8, r0, r4, asr #21
     b28:	00008ac8 	andeq	r8, r0, r8, asr #21
     b2c:	c8500001 	ldmdagt	r0, {r0}^
     b30:	d400008a 	strle	r0, [r0], #-138	; 0x8a
     b34:	0400008a 	streq	r0, [r0], #-138	; 0x8a
     b38:	5001f300 	andpl	pc, r1, r0, lsl #6
     b3c:	0000009f 	muleq	r0, pc, r0	; <UNPREDICTABLE>
     b40:	00000000 	andeq	r0, r0, r0
     b44:	008aac00 	addeq	sl, sl, r0, lsl #24
     b48:	008abb00 	addeq	fp, sl, r0, lsl #22
     b4c:	51000100 	mrspl	r0, (UNDEF: 16)
     b50:	00008abb 			; <UNDEFINED> instruction: 0x00008abb
     b54:	00008ac4 	andeq	r8, r0, r4, asr #21
     b58:	01f30004 	mvnseq	r0, r4
     b5c:	8ac49f51 	bhi	ff1288a8 <multiplylookup+0xff11f1d8>
     b60:	8acc0000 	bhi	ff300b68 <multiplylookup+0xff2f7498>
     b64:	00010000 	andeq	r0, r1, r0
     b68:	008acc51 	addeq	ip, sl, r1, asr ip
     b6c:	008ad300 	addeq	sp, sl, r0, lsl #6
     b70:	50000100 	andpl	r0, r0, r0, lsl #2
     b74:	00008ad3 	ldrdeq	r8, [r0], -r3
     b78:	00008ad4 	ldrdeq	r8, [r0], -r4
     b7c:	01f30004 	mvnseq	r0, r4
     b80:	00009f51 	andeq	r9, r0, r1, asr pc
     b84:	00000000 	andeq	r0, r0, r0
     b88:	8aac0000 	bhi	feb00b90 <multiplylookup+0xfeaf74c0>
     b8c:	8abb0000 	bhi	feec0b94 <multiplylookup+0xfeeb74c4>
     b90:	00010000 	andeq	r0, r1, r0
     b94:	008abb52 	addeq	fp, sl, r2, asr fp
     b98:	008ac400 	addeq	ip, sl, r0, lsl #8
     b9c:	f3000400 	vshl.u8	d0, d0, d0
     ba0:	c49f5201 	ldrgt	r5, [pc], #513	; ba8 <_start-0x7458>
     ba4:	d300008a 	movwle	r0, #138	; 0x8a
     ba8:	0100008a 	smlabbeq	r0, sl, r0, r0
     bac:	8ad35200 	bhi	ff4d53b4 <multiplylookup+0xff4cbce4>
     bb0:	8ad40000 	bhi	ff500bb8 <multiplylookup+0xff4f74e8>
     bb4:	00040000 	andeq	r0, r4, r0
     bb8:	9f5201f3 	svcls	0x005201f3
	...
     bc4:	00008ad4 	ldrdeq	r8, [r0], -r4
     bc8:	00008ad8 	ldrdeq	r8, [r0], -r8	; <UNPREDICTABLE>
     bcc:	007d0002 	rsbseq	r0, sp, r2
     bd0:	00008ad8 	ldrdeq	r8, [r0], -r8	; <UNPREDICTABLE>
     bd4:	00008b28 	andeq	r8, r0, r8, lsr #22
     bd8:	187d0002 	ldmdane	sp!, {r1}^
	...
     be4:	00008ad4 	ldrdeq	r8, [r0], -r4
     be8:	00008ae0 	andeq	r8, r0, r0, ror #21
     bec:	e0500001 	subs	r0, r0, r1
     bf0:	f400008a 	vst4.32	{d0-d3}, [r0], sl
     bf4:	0100008a 	smlabbeq	r0, sl, r0, r0
     bf8:	8af45500 	bhi	ffd16000 <multiplylookup+0xffd0c930>
     bfc:	8b280000 	blhi	a00c04 <multiplylookup+0x9f7534>
     c00:	00040000 	andeq	r0, r4, r0
     c04:	9f5001f3 	svcls	0x005001f3
	...
     c10:	00008ad4 	ldrdeq	r8, [r0], -r4
     c14:	00008af4 	strdeq	r8, [r0], -r4
     c18:	f4510001 			; <UNDEFINED> instruction: 0xf4510001
     c1c:	1400008a 	strne	r0, [r0], #-138	; 0x8a
     c20:	0100008b 	smlabbeq	r0, fp, r0, r0
     c24:	8b145700 	blhi	51682c <multiplylookup+0x50d15c>
     c28:	8b200000 	blhi	800c30 <multiplylookup+0x7f7560>
     c2c:	00010000 	andeq	r0, r1, r0
     c30:	00000054 	andeq	r0, r0, r4, asr r0
     c34:	00000000 	andeq	r0, r0, r0
     c38:	008ad400 	addeq	sp, sl, r0, lsl #8
     c3c:	008af400 	addeq	pc, sl, r0, lsl #8
     c40:	52000100 	andpl	r0, r0, #0, 2
     c44:	00008af4 	strdeq	r8, [r0], -r4
     c48:	00008b28 	andeq	r8, r0, r8, lsr #22
     c4c:	00560001 	subseq	r0, r6, r1
     c50:	00000000 	andeq	r0, r0, r0
     c54:	e8000000 	stmda	r0, {}	; <UNPREDICTABLE>
     c58:	f400008a 	vst4.32	{d0-d3}, [r0], sl
     c5c:	0100008a 	smlabbeq	r0, sl, r0, r0
     c60:	8af45100 	bhi	ffd15068 <multiplylookup+0xffd0b998>
     c64:	8b280000 	blhi	a00c6c <multiplylookup+0x9f759c>
     c68:	00010000 	andeq	r0, r1, r0
     c6c:	00000057 	andeq	r0, r0, r7, asr r0
     c70:	00000000 	andeq	r0, r0, r0
     c74:	008ae800 	addeq	lr, sl, r0, lsl #16
     c78:	008af400 	addeq	pc, sl, r0, lsl #8
     c7c:	30000200 	andcc	r0, r0, r0, lsl #4
     c80:	0000009f 	muleq	r0, pc, r0	; <UNPREDICTABLE>
     c84:	00000000 	andeq	r0, r0, r0
     c88:	008b2800 	addeq	r2, fp, r0, lsl #16
     c8c:	008b2c00 	addeq	r2, fp, r0, lsl #24
     c90:	7d000200 	sfmvc	f0, 4, [r0, #-0]
     c94:	008b2c00 	addeq	r2, fp, r0, lsl #24
     c98:	008b3400 	addeq	r3, fp, r0, lsl #8
     c9c:	7d000200 	sfmvc	f0, 4, [r0, #-0]
     ca0:	008b3424 	addeq	r3, fp, r4, lsr #8
     ca4:	008bd800 	addeq	sp, fp, r0, lsl #16
     ca8:	7d000200 	sfmvc	f0, 4, [r0, #-0]
     cac:	00000030 	andeq	r0, r0, r0, lsr r0
     cb0:	00000000 	andeq	r0, r0, r0
     cb4:	008b2800 	addeq	r2, fp, r0, lsl #16
     cb8:	008b5400 	addeq	r5, fp, r0, lsl #8
     cbc:	50000100 	andpl	r0, r0, r0, lsl #2
     cc0:	00008b54 	andeq	r8, r0, r4, asr fp
     cc4:	00008bd8 	ldrdeq	r8, [r0], -r8	; <UNPREDICTABLE>
     cc8:	005b0001 	subseq	r0, fp, r1
     ccc:	00000000 	andeq	r0, r0, r0
     cd0:	28000000 	stmdacs	r0, {}	; <UNPREDICTABLE>
     cd4:	5400008b 	strpl	r0, [r0], #-139	; 0x8b
     cd8:	0100008b 	smlabbeq	r0, fp, r0, r0
     cdc:	8b545100 	blhi	15150e4 <multiplylookup+0x150ba14>
     ce0:	8bd80000 	blhi	ff600ce8 <multiplylookup+0xff5f7618>
     ce4:	00020000 	andeq	r0, r2, r0
     ce8:	00004c91 	muleq	r0, r1, ip
     cec:	00000000 	andeq	r0, r0, r0
     cf0:	8b280000 	blhi	a00cf8 <multiplylookup+0x9f7628>
     cf4:	8b540000 	blhi	1500cfc <multiplylookup+0x14f762c>
     cf8:	00010000 	andeq	r0, r1, r0
     cfc:	008b5452 	addeq	r5, fp, r2, asr r4
     d00:	008bd800 	addeq	sp, fp, r0, lsl #16
     d04:	f3000400 	vshl.u8	d0, d0, d0
     d08:	009f5201 	addseq	r5, pc, r1, lsl #4
     d0c:	00000000 	andeq	r0, r0, r0
     d10:	28000000 	stmdacs	r0, {}	; <UNPREDICTABLE>
     d14:	5400008b 	strpl	r0, [r0], #-139	; 0x8b
     d18:	0100008b 	smlabbeq	r0, fp, r0, r0
     d1c:	8b545300 	blhi	1515924 <multiplylookup+0x150c254>
     d20:	8bd80000 	blhi	ff600d28 <multiplylookup+0xff5f7658>
     d24:	00040000 	andeq	r0, r4, r0
     d28:	9f5301f3 	svcls	0x005301f3
	...
     d34:	00008b54 	andeq	r8, r0, r4, asr fp
     d38:	00008b78 	andeq	r8, r0, r8, ror fp
     d3c:	78580001 	ldmdavc	r8, {r0}^
     d40:	b000008b 	andlt	r0, r0, fp, lsl #1
     d44:	0100008b 	smlabbeq	r0, fp, r0, r0
     d48:	00005400 	andeq	r5, r0, r0, lsl #8
     d4c:	00000000 	andeq	r0, r0, r0
     d50:	8b780000 	blhi	1e00d58 <multiplylookup+0x1df7688>
     d54:	8ba80000 	blhi	fea00d5c <multiplylookup+0xfe9f768c>
     d58:	00010000 	andeq	r0, r1, r0
     d5c:	008ba854 	addeq	sl, fp, r4, asr r8
     d60:	008bb000 	addeq	fp, fp, r0
     d64:	74000300 	strvc	r0, [r0], #-768	; 0x300
     d68:	00009f01 	andeq	r9, r0, r1, lsl #30
     d6c:	00000000 	andeq	r0, r0, r0
     d70:	8b8c0000 	blhi	fe300d78 <multiplylookup+0xfe2f76a8>
     d74:	8ba40000 	blhi	fe900d7c <multiplylookup+0xfe8f76ac>
     d78:	00010000 	andeq	r0, r1, r0
     d7c:	00000054 	andeq	r0, r0, r4, asr r0
     d80:	00000000 	andeq	r0, r0, r0
     d84:	008b9400 	addeq	r9, fp, r0, lsl #8
     d88:	008b9c00 	addeq	r9, fp, r0, lsl #24
     d8c:	74000b00 	strvc	r0, [r0], #-2816	; 0xb00
     d90:	22007600 	andcs	r7, r0, #0, 12
     d94:	00702431 	rsbseq	r2, r0, r1, lsr r4
     d98:	00009f22 	andeq	r9, r0, r2, lsr #30
     d9c:	00000000 	andeq	r0, r0, r0
     da0:	8bd80000 	blhi	ff600da8 <multiplylookup+0xff5f76d8>
     da4:	8bdc0000 	blhi	ff700dac <multiplylookup+0xff6f76dc>
     da8:	00020000 	andeq	r0, r2, r0
     dac:	8bdc007d 	blhi	ff700fa8 <multiplylookup+0xff6f78d8>
     db0:	8be00000 	blhi	ff800db8 <multiplylookup+0xff7f76e8>
     db4:	00020000 	andeq	r0, r2, r0
     db8:	8be0247d 	blhi	ff809fb4 <multiplylookup+0xff8008e4>
     dbc:	8e940000 	cdphi	0, 9, cr0, cr4, cr0, {0}
     dc0:	00030000 	andeq	r0, r3, r0
     dc4:	0000e07d 	andeq	lr, r0, sp, ror r0
     dc8:	00000000 	andeq	r0, r0, r0
     dcc:	d8000000 	stmdale	r0, {}	; <UNPREDICTABLE>
     dd0:	e400008b 	str	r0, [r0], #-139	; 0x8b
     dd4:	0100008b 	smlabbeq	r0, fp, r0, r0
     dd8:	8be45000 	blhi	ff914de0 <multiplylookup+0xff90b710>
     ddc:	8bec0000 	blhi	ffb00de4 <multiplylookup+0xffaf7714>
     de0:	00040000 	andeq	r0, r4, r0
     de4:	9f5001f3 	svcls	0x005001f3
     de8:	00008bec 	andeq	r8, r0, ip, ror #23
     dec:	00008c00 	andeq	r8, r0, r0, lsl #24
     df0:	00500001 	subseq	r0, r0, r1
     df4:	3800008c 	stmdacc	r0, {r2, r3, r7}
     df8:	0800008c 	stmdaeq	r0, {r2, r3, r7}
     dfc:	5001f300 	andpl	pc, r1, r0, lsl #6
     e00:	25462446 	strbcs	r2, [r6, #-1094]	; 0x446
     e04:	008c389f 	umulleq	r3, ip, pc, r8	; <UNPREDICTABLE>
     e08:	008d6800 	addeq	r6, sp, r0, lsl #16
     e0c:	50000100 	andpl	r0, r0, r0, lsl #2
     e10:	00008d68 	andeq	r8, r0, r8, ror #26
     e14:	00008db0 			; <UNDEFINED> instruction: 0x00008db0
     e18:	01f30193 			; <UNDEFINED> instruction: 0x01f30193
     e1c:	46244650 			; <UNDEFINED> instruction: 0x46244650
     e20:	02800a25 	addeq	r0, r0, #151552	; 0x25000
     e24:	5001f31c 	andpl	pc, r1, ip, lsl r3	; <UNPREDICTABLE>
     e28:	25462446 	strbcs	r2, [r6, #-1094]	; 0x446
     e2c:	465001f3 			; <UNDEFINED> instruction: 0x465001f3
     e30:	0a254624 	beq	9526c8 <multiplylookup+0x948ff8>
     e34:	282a0280 	stmdacs	sl!, {r7, r9}
     e38:	13160001 	tstne	r6, #1
     e3c:	1c01e00a 	stcne	0, cr14, [r1], {10}
     e40:	465001f3 			; <UNDEFINED> instruction: 0x465001f3
     e44:	0a254624 	beq	9526dc <multiplylookup+0x94900c>
     e48:	f31c0280 	vhsub.u16	d0, d28, d0
     e4c:	24465001 	strbcs	r5, [r6], #-1
     e50:	01f32546 	mvnseq	r2, r6, asr #10
     e54:	46244650 			; <UNDEFINED> instruction: 0x46244650
     e58:	02800a25 	addeq	r0, r0, #151552	; 0x25000
     e5c:	0001282a 	andeq	r2, r1, sl, lsr #16
     e60:	01f31316 	mvnseq	r1, r6, lsl r3
     e64:	47244751 			; <UNDEFINED> instruction: 0x47244751
     e68:	01e00a25 	mvneq	r0, r5, lsr #20
     e6c:	0001282a 	andeq	r2, r1, sl, lsr #16
     e70:	e00a1316 	and	r1, sl, r6, lsl r3
     e74:	01f31c01 	mvnseq	r1, r1, lsl #24
     e78:	46244650 			; <UNDEFINED> instruction: 0x46244650
     e7c:	02800a25 	addeq	r0, r0, #151552	; 0x25000
     e80:	5001f31c 	andpl	pc, r1, ip, lsl r3	; <UNPREDICTABLE>
     e84:	25462446 	strbcs	r2, [r6, #-1094]	; 0x446
     e88:	465001f3 			; <UNDEFINED> instruction: 0x465001f3
     e8c:	0a254624 	beq	952724 <multiplylookup+0x949054>
     e90:	282a0280 	stmdacs	sl!, {r7, r9}
     e94:	13160001 	tstne	r6, #1
     e98:	1c01e00a 	stcne	0, cr14, [r1], {10}
     e9c:	465001f3 			; <UNDEFINED> instruction: 0x465001f3
     ea0:	0a254624 	beq	952738 <multiplylookup+0x949068>
     ea4:	f31c0280 	vhsub.u16	d0, d28, d0
     ea8:	24465001 	strbcs	r5, [r6], #-1
     eac:	01f32546 	mvnseq	r2, r6, asr #10
     eb0:	46244650 			; <UNDEFINED> instruction: 0x46244650
     eb4:	02800a25 	addeq	r0, r0, #151552	; 0x25000
     eb8:	0001282a 	andeq	r2, r1, sl, lsr #16
     ebc:	01f31316 	mvnseq	r1, r6, lsl r3
     ec0:	47244751 			; <UNDEFINED> instruction: 0x47244751
     ec4:	01e00a25 	mvneq	r0, r5, lsr #20
     ec8:	0001282a 	andeq	r2, r1, sl, lsr #16
     ecc:	00741316 	rsbseq	r1, r4, r6, lsl r3
     ed0:	2a01e00a 	bcs	78f00 <multiplylookup+0x6f830>
     ed4:	16000128 	strne	r0, [r0], -r8, lsr #2
     ed8:	01e00a13 	mvneq	r0, r3, lsl sl
     edc:	5001f31c 	andpl	pc, r1, ip, lsl r3	; <UNPREDICTABLE>
     ee0:	25462446 	strbcs	r2, [r6, #-1094]	; 0x446
     ee4:	1c02800a 	stcne	0, cr8, [r2], {10}
     ee8:	465001f3 			; <UNDEFINED> instruction: 0x465001f3
     eec:	f3254624 	vmax.u32	d4, d5, d20
     ef0:	24465001 	strbcs	r5, [r6], #-1
     ef4:	800a2546 	andhi	r2, sl, r6, asr #10
     ef8:	01282a02 	teqeq	r8, r2, lsl #20
     efc:	0a131600 	beq	4c6704 <multiplylookup+0x4bd034>
     f00:	f31c01e0 	vrhadd.u16	q0, q14, q8
     f04:	24465001 	strbcs	r5, [r6], #-1
     f08:	800a2546 	andhi	r2, sl, r6, asr #10
     f0c:	01f31c02 	mvnseq	r1, r2, lsl #24
     f10:	46244650 			; <UNDEFINED> instruction: 0x46244650
     f14:	5001f325 	andpl	pc, r1, r5, lsr #6
     f18:	25462446 	strbcs	r2, [r6, #-1094]	; 0x446
     f1c:	2a02800a 	bcs	a0f4c <multiplylookup+0x9787c>
     f20:	16000128 	strne	r0, [r0], -r8, lsr #2
     f24:	5101f313 	tstpl	r1, r3, lsl r3
     f28:	25472447 	strbcs	r2, [r7, #-1095]	; 0x447
     f2c:	2a01e00a 	bcs	78f5c <multiplylookup+0x6f88c>
     f30:	16000128 	strne	r0, [r0], -r8, lsr #2
     f34:	01e00a13 	mvneq	r0, r3, lsl sl
     f38:	5001f31c 	andpl	pc, r1, ip, lsl r3	; <UNPREDICTABLE>
     f3c:	25462446 	strbcs	r2, [r6, #-1094]	; 0x446
     f40:	1c02800a 	stcne	0, cr8, [r2], {10}
     f44:	465001f3 			; <UNDEFINED> instruction: 0x465001f3
     f48:	f3254624 	vmax.u32	d4, d5, d20
     f4c:	24465001 	strbcs	r5, [r6], #-1
     f50:	800a2546 	andhi	r2, sl, r6, asr #10
     f54:	01282a02 	teqeq	r8, r2, lsl #20
     f58:	0a131600 	beq	4c6760 <multiplylookup+0x4bd090>
     f5c:	f31c01e0 	vrhadd.u16	q0, q14, q8
     f60:	24465001 	strbcs	r5, [r6], #-1
     f64:	800a2546 	andhi	r2, sl, r6, asr #10
     f68:	01f31c02 	mvnseq	r1, r2, lsl #24
     f6c:	46244650 			; <UNDEFINED> instruction: 0x46244650
     f70:	5001f325 	andpl	pc, r1, r5, lsr #6
     f74:	25462446 	strbcs	r2, [r6, #-1094]	; 0x446
     f78:	2a02800a 	bcs	a0fa8 <multiplylookup+0x978d8>
     f7c:	16000128 	strne	r0, [r0], -r8, lsr #2
     f80:	5101f313 	tstpl	r1, r3, lsl r3
     f84:	25472447 	strbcs	r2, [r7, #-1095]	; 0x447
     f88:	2a01e00a 	bcs	78fb8 <multiplylookup+0x6f8e8>
     f8c:	16000128 	strne	r0, [r0], -r8, lsr #2
     f90:	0a007413 	beq	1dfe4 <multiplylookup+0x14914>
     f94:	282a01e0 	stmdacs	sl!, {r5, r6, r7, r8}
     f98:	13160001 	tstne	r6, #1
     f9c:	47067c91 			; <UNDEFINED> instruction: 0x47067c91
     fa0:	0a254724 	beq	952c38 <multiplylookup+0x949568>
     fa4:	282a01e0 	stmdacs	sl!, {r5, r6, r7, r8}
     fa8:	13160001 	tstne	r6, #1
     fac:	008db09f 	umulleq	fp, sp, pc, r0	; <UNPREDICTABLE>
     fb0:	008e9400 	addeq	r9, lr, r0, lsl #8
     fb4:	f3019d00 	vpadd.f32	d9, d1, d0
     fb8:	24465001 	strbcs	r5, [r6], #-1
     fbc:	800a2546 	andhi	r2, sl, r6, asr #10
     fc0:	01f31c02 	mvnseq	r1, r2, lsl #24
     fc4:	46244650 			; <UNDEFINED> instruction: 0x46244650
     fc8:	5001f325 	andpl	pc, r1, r5, lsr #6
     fcc:	25462446 	strbcs	r2, [r6, #-1094]	; 0x446
     fd0:	2a02800a 	bcs	a1000 <multiplylookup+0x97930>
     fd4:	16000128 	strne	r0, [r0], -r8, lsr #2
     fd8:	01e00a13 	mvneq	r0, r3, lsl sl
     fdc:	5001f31c 	andpl	pc, r1, ip, lsl r3	; <UNPREDICTABLE>
     fe0:	25462446 	strbcs	r2, [r6, #-1094]	; 0x446
     fe4:	1c02800a 	stcne	0, cr8, [r2], {10}
     fe8:	465001f3 			; <UNDEFINED> instruction: 0x465001f3
     fec:	f3254624 	vmax.u32	d4, d5, d20
     ff0:	24465001 	strbcs	r5, [r6], #-1
     ff4:	800a2546 	andhi	r2, sl, r6, asr #10
     ff8:	01282a02 	teqeq	r8, r2, lsl #20
     ffc:	f3131600 	vmax.u16	d1, d3, d0
    1000:	24475101 	strbcs	r5, [r7], #-257	; 0x101
    1004:	e00a2547 	and	r2, sl, r7, asr #10
    1008:	01282a01 	teqeq	r8, r1, lsl #20
    100c:	0a131600 	beq	4c6814 <multiplylookup+0x4bd144>
    1010:	f31c01e0 	vrhadd.u16	q0, q14, q8
    1014:	24465001 	strbcs	r5, [r6], #-1
    1018:	800a2546 	andhi	r2, sl, r6, asr #10
    101c:	01f31c02 	mvnseq	r1, r2, lsl #24
    1020:	46244650 			; <UNDEFINED> instruction: 0x46244650
    1024:	5001f325 	andpl	pc, r1, r5, lsr #6
    1028:	25462446 	strbcs	r2, [r6, #-1094]	; 0x446
    102c:	2a02800a 	bcs	a105c <multiplylookup+0x9798c>
    1030:	16000128 	strne	r0, [r0], -r8, lsr #2
    1034:	01e00a13 	mvneq	r0, r3, lsl sl
    1038:	5001f31c 	andpl	pc, r1, ip, lsl r3	; <UNPREDICTABLE>
    103c:	25462446 	strbcs	r2, [r6, #-1094]	; 0x446
    1040:	1c02800a 	stcne	0, cr8, [r2], {10}
    1044:	465001f3 			; <UNDEFINED> instruction: 0x465001f3
    1048:	f3254624 	vmax.u32	d4, d5, d20
    104c:	24465001 	strbcs	r5, [r6], #-1
    1050:	800a2546 	andhi	r2, sl, r6, asr #10
    1054:	01282a02 	teqeq	r8, r2, lsl #20
    1058:	f3131600 	vmax.u16	d1, d3, d0
    105c:	24475101 	strbcs	r5, [r7], #-257	; 0x101
    1060:	e00a2547 	and	r2, sl, r7, asr #10
    1064:	01282a01 	teqeq	r8, r1, lsl #20
    1068:	f3131600 	vmax.u16	d1, d3, d0
    106c:	24475301 	strbcs	r5, [r7], #-769	; 0x301
    1070:	e00a2547 	and	r2, sl, r7, asr #10
    1074:	01282a01 	teqeq	r8, r1, lsl #20
    1078:	0a131600 	beq	4c6880 <multiplylookup+0x4bd1b0>
    107c:	f31c01e0 	vrhadd.u16	q0, q14, q8
    1080:	24465001 	strbcs	r5, [r6], #-1
    1084:	800a2546 	andhi	r2, sl, r6, asr #10
    1088:	01f31c02 	mvnseq	r1, r2, lsl #24
    108c:	46244650 			; <UNDEFINED> instruction: 0x46244650
    1090:	5001f325 	andpl	pc, r1, r5, lsr #6
    1094:	25462446 	strbcs	r2, [r6, #-1094]	; 0x446
    1098:	2a02800a 	bcs	a10c8 <multiplylookup+0x979f8>
    109c:	16000128 	strne	r0, [r0], -r8, lsr #2
    10a0:	01e00a13 	mvneq	r0, r3, lsl sl
    10a4:	5001f31c 	andpl	pc, r1, ip, lsl r3	; <UNPREDICTABLE>
    10a8:	25462446 	strbcs	r2, [r6, #-1094]	; 0x446
    10ac:	1c02800a 	stcne	0, cr8, [r2], {10}
    10b0:	465001f3 			; <UNDEFINED> instruction: 0x465001f3
    10b4:	f3254624 	vmax.u32	d4, d5, d20
    10b8:	24465001 	strbcs	r5, [r6], #-1
    10bc:	800a2546 	andhi	r2, sl, r6, asr #10
    10c0:	01282a02 	teqeq	r8, r2, lsl #20
    10c4:	f3131600 	vmax.u16	d1, d3, d0
    10c8:	24475101 	strbcs	r5, [r7], #-257	; 0x101
    10cc:	e00a2547 	and	r2, sl, r7, asr #10
    10d0:	01282a01 	teqeq	r8, r1, lsl #20
    10d4:	0a131600 	beq	4c68dc <multiplylookup+0x4bd20c>
    10d8:	f31c01e0 	vrhadd.u16	q0, q14, q8
    10dc:	24465001 	strbcs	r5, [r6], #-1
    10e0:	800a2546 	andhi	r2, sl, r6, asr #10
    10e4:	01f31c02 	mvnseq	r1, r2, lsl #24
    10e8:	46244650 			; <UNDEFINED> instruction: 0x46244650
    10ec:	5001f325 	andpl	pc, r1, r5, lsr #6
    10f0:	25462446 	strbcs	r2, [r6, #-1094]	; 0x446
    10f4:	2a02800a 	bcs	a1124 <multiplylookup+0x97a54>
    10f8:	16000128 	strne	r0, [r0], -r8, lsr #2
    10fc:	01e00a13 	mvneq	r0, r3, lsl sl
    1100:	5001f31c 	andpl	pc, r1, ip, lsl r3	; <UNPREDICTABLE>
    1104:	25462446 	strbcs	r2, [r6, #-1094]	; 0x446
    1108:	1c02800a 	stcne	0, cr8, [r2], {10}
    110c:	465001f3 			; <UNDEFINED> instruction: 0x465001f3
    1110:	f3254624 	vmax.u32	d4, d5, d20
    1114:	24465001 	strbcs	r5, [r6], #-1
    1118:	800a2546 	andhi	r2, sl, r6, asr #10
    111c:	01282a02 	teqeq	r8, r2, lsl #20
    1120:	f3131600 	vmax.u16	d1, d3, d0
    1124:	24475101 	strbcs	r5, [r7], #-257	; 0x101
    1128:	e00a2547 	and	r2, sl, r7, asr #10
    112c:	01282a01 	teqeq	r8, r1, lsl #20
    1130:	f3131600 	vmax.u16	d1, d3, d0
    1134:	24475301 	strbcs	r5, [r7], #-769	; 0x301
    1138:	e00a2547 	and	r2, sl, r7, asr #10
    113c:	01282a01 	teqeq	r8, r1, lsl #20
    1140:	91131600 	tstls	r3, r0, lsl #12
    1144:	2447067c 	strbcs	r0, [r7], #-1660	; 0x67c
    1148:	e00a2547 	and	r2, sl, r7, asr #10
    114c:	01282a01 	teqeq	r8, r1, lsl #20
    1150:	9f131600 	svcls	0x00131600
	...
    115c:	00008bd8 	ldrdeq	r8, [r0], -r8	; <UNPREDICTABLE>
    1160:	00008c0c 	andeq	r8, r0, ip, lsl #24
    1164:	0c510001 	mrrceq	0, 0, r0, r1, cr1
    1168:	1400008c 	strne	r0, [r0], #-140	; 0x8c
    116c:	0400008c 	streq	r0, [r0], #-140	; 0x8c
    1170:	5101f300 	mrspl	pc, SP_irq	; <UNPREDICTABLE>
    1174:	008c149f 	umulleq	r1, ip, pc, r4	; <UNPREDICTABLE>
    1178:	008d4400 	addeq	r4, sp, r0, lsl #8
    117c:	51000100 	mrspl	r0, (UNDEF: 16)
    1180:	00008d44 	andeq	r8, r0, r4, asr #26
    1184:	00008e94 	muleq	r0, r4, lr
    1188:	01f30008 	mvnseq	r0, r8
    118c:	47244751 			; <UNDEFINED> instruction: 0x47244751
    1190:	00009f25 	andeq	r9, r0, r5, lsr #30
    1194:	00000000 	andeq	r0, r0, r0
    1198:	8bd80000 	blhi	ff6011a0 <multiplylookup+0xff5f7ad0>
    119c:	8bf00000 	blhi	ffc011a4 <multiplylookup+0xffbf7ad4>
    11a0:	00010000 	andeq	r0, r1, r0
    11a4:	008bf052 	addeq	pc, fp, r2, asr r0	; <UNPREDICTABLE>
    11a8:	008bf400 	addeq	pc, fp, r0, lsl #8
    11ac:	f3000400 	vshl.u8	d0, d0, d0
    11b0:	f49f5201 			; <UNDEFINED> instruction: 0xf49f5201
    11b4:	1800008b 	stmdane	r0, {r0, r1, r3, r7}
    11b8:	0100008c 	smlabbeq	r0, ip, r0, r0
    11bc:	8c185200 	lfmhi	f5, 4, [r8], {-0}
    11c0:	8c380000 	ldchi	0, cr0, [r8], #-0
    11c4:	00080000 	andeq	r0, r8, r0
    11c8:	465201f3 			; <UNDEFINED> instruction: 0x465201f3
    11cc:	9f254624 	svcls	0x00254624
    11d0:	00008c38 	andeq	r8, r0, r8, lsr ip
    11d4:	00008d4c 	andeq	r8, r0, ip, asr #26
    11d8:	4c520001 	mrrcmi	0, 0, r0, r2, cr1
    11dc:	9400008d 	strls	r0, [r0], #-141	; 0x8d
    11e0:	2300008e 	movwcs	r0, #142	; 0x8e
    11e4:	5201f300 	andpl	pc, r1, #0, 6
    11e8:	25462446 	strbcs	r2, [r6, #-1094]	; 0x446
    11ec:	1c02800a 	stcne	0, cr8, [r2], {10}
    11f0:	465201f3 			; <UNDEFINED> instruction: 0x465201f3
    11f4:	f3254624 	vmax.u32	d4, d5, d20
    11f8:	24465201 	strbcs	r5, [r6], #-513	; 0x201
    11fc:	800a2546 	andhi	r2, sl, r6, asr #10
    1200:	01282a02 	teqeq	r8, r2, lsl #20
    1204:	9f131600 	svcls	0x00131600
	...
    1210:	00008bd8 	ldrdeq	r8, [r0], -r8	; <UNPREDICTABLE>
    1214:	00008c1c 	andeq	r8, r0, ip, lsl ip
    1218:	1c530001 	mrrcne	0, 0, r0, r3, cr1
    121c:	2400008c 	strcs	r0, [r0], #-140	; 0x8c
    1220:	0400008c 	streq	r0, [r0], #-140	; 0x8c
    1224:	5301f300 	movwpl	pc, #4864	; 0x1300	; <UNPREDICTABLE>
    1228:	008c249f 	umulleq	r2, ip, pc, r4	; <UNPREDICTABLE>
    122c:	008db000 	addeq	fp, sp, r0
    1230:	54000100 	strpl	r0, [r0], #-256	; 0x100
    1234:	00008db0 			; <UNDEFINED> instruction: 0x00008db0
    1238:	00008e94 	muleq	r0, r4, lr
    123c:	01f30008 	mvnseq	r0, r8
    1240:	47244753 			; <UNDEFINED> instruction: 0x47244753
    1244:	00009f25 	andeq	r9, r0, r5, lsr #30
    1248:	00000000 	andeq	r0, r0, r0
    124c:	8bd80000 	blhi	ff601254 <multiplylookup+0xff5f7b84>
    1250:	8c040000 	stchi	0, cr0, [r4], {-0}
    1254:	00020000 	andeq	r0, r2, r0
    1258:	8c040091 	stchi	0, cr0, [r4], {145}	; 0x91
    125c:	8c280000 	stchi	0, cr0, [r8], #-0
    1260:	00010000 	andeq	r0, r1, r0
    1264:	008c285c 	addeq	r2, ip, ip, asr r8
    1268:	008c3800 	addeq	r3, ip, r0, lsl #16
    126c:	91000800 	tstls	r0, r0, lsl #16
    1270:	24460678 	strbcs	r0, [r6], #-1656	; 0x678
    1274:	389f2546 	ldmcc	pc, {r1, r2, r6, r8, sl, sp}	; <UNPREDICTABLE>
    1278:	8400008c 	strhi	r0, [r0], #-140	; 0x8c
    127c:	0100008d 	smlabbeq	r0, sp, r0, r0
    1280:	8d845c00 	stchi	12, cr5, [r4]
    1284:	8e940000 	cdphi	0, 9, cr0, cr4, cr0, {0}
    1288:	00230000 	eoreq	r0, r3, r0
    128c:	46067891 			; <UNDEFINED> instruction: 0x46067891
    1290:	0a254624 	beq	952b28 <multiplylookup+0x949458>
    1294:	911c0280 	tstls	ip, r0, lsl #5
    1298:	24460678 	strbcs	r0, [r6], #-1656	; 0x678
    129c:	78912546 	ldmvc	r1, {r1, r2, r6, r8, sl, sp}
    12a0:	46244606 	strtmi	r4, [r4], -r6, lsl #12
    12a4:	02800a25 	addeq	r0, r0, #151552	; 0x25000
    12a8:	0001282a 	andeq	r2, r1, sl, lsr #16
    12ac:	009f1316 	addseq	r1, pc, r6, lsl r3	; <UNPREDICTABLE>
    12b0:	00000000 	andeq	r0, r0, r0
    12b4:	d8000000 	stmdale	r0, {}	; <UNPREDICTABLE>
    12b8:	3800008b 	stmdacc	r0, {r0, r1, r3, r7}
    12bc:	0200008c 	andeq	r0, r0, #140	; 0x8c
    12c0:	38049100 	stmdacc	r4, {r8, ip, pc}
    12c4:	6400008c 	strvs	r0, [r0], #-140	; 0x8c
    12c8:	0100008d 	smlabbeq	r0, sp, r0, r0
    12cc:	8d645800 	stclhi	8, cr5, [r4, #-0]
    12d0:	8e940000 	cdphi	0, 9, cr0, cr4, cr0, {0}
    12d4:	00080000 	andeq	r0, r8, r0
    12d8:	47067c91 			; <UNDEFINED> instruction: 0x47067c91
    12dc:	9f254724 	svcls	0x00254724
	...
    12e8:	00008bd8 	ldrdeq	r8, [r0], -r8	; <UNPREDICTABLE>
    12ec:	00008c48 	andeq	r8, r0, r8, asr #24
    12f0:	08910002 	ldmeq	r1, {r1}
    12f4:	00008c48 	andeq	r8, r0, r8, asr #24
    12f8:	00008e94 	muleq	r0, r4, lr
    12fc:	78910008 	ldmvc	r1, {r3}
    1300:	ffff0a06 			; <UNDEFINED> instruction: 0xffff0a06
    1304:	00009f1a 	andeq	r9, r0, sl, lsl pc
    1308:	00000000 	andeq	r0, r0, r0
    130c:	8d640000 	stclhi	0, cr0, [r4, #-0]
    1310:	8d700000 	ldclhi	0, cr0, [r0, #-0]
    1314:	00010000 	andeq	r0, r1, r0
    1318:	008d7051 	addeq	r7, sp, r1, asr r0
    131c:	008e9400 	addeq	r9, lr, r0, lsl #8
    1320:	91000200 	mrsls	r0, R8_usr
    1324:	00000040 	andeq	r0, r0, r0, asr #32
    1328:	00000000 	andeq	r0, r0, r0
    132c:	008d6400 	addeq	r6, sp, r0, lsl #8
    1330:	008db000 	addeq	fp, sp, r0
    1334:	57000100 	strpl	r0, [r0, -r0, lsl #2]
    1338:	00008db0 			; <UNDEFINED> instruction: 0x00008db0
    133c:	00008e94 	muleq	r0, r4, lr
    1340:	01f30038 	mvnseq	r0, r8, lsr r0
    1344:	47244753 			; <UNDEFINED> instruction: 0x47244753
    1348:	4b401225 	blmi	1005be4 <multiplylookup+0xffc514>
    134c:	01f32224 	mvnseq	r2, r4, lsr #4
    1350:	47244751 			; <UNDEFINED> instruction: 0x47244751
    1354:	40141625 	andsmi	r1, r4, r5, lsr #12
    1358:	2d22244b 	cfstrscs	mvf2, [r2, #-300]!	; 0xfffffed4
    135c:	16000128 	strne	r0, [r0], -r8, lsr #2
    1360:	4b401213 	blmi	1005bb4 <multiplylookup+0xffc4e4>
    1364:	7c912224 	lfmvc	f2, 4, [r1], {36}	; 0x24
    1368:	47244706 	strmi	r4, [r4, -r6, lsl #14]!
    136c:	40141625 	andsmi	r1, r4, r5, lsr #12
    1370:	2d22244b 	cfstrscs	mvf2, [r2, #-300]!	; 0xfffffed4
    1374:	16000128 	strne	r0, [r0], -r8, lsr #2
    1378:	00009f13 	andeq	r9, r0, r3, lsl pc
    137c:	00000000 	andeq	r0, r0, r0
    1380:	8cb00000 	ldchi	0, cr0, [r0]
    1384:	8cb80000 	ldchi	0, cr0, [r8]
    1388:	00010000 	andeq	r0, r1, r0
    138c:	008cb855 	addeq	fp, ip, r5, asr r8
    1390:	008e9400 	addeq	r9, lr, r0, lsl #8
    1394:	91000300 	mrsls	r0, LR_irq
    1398:	00007fb8 			; <UNDEFINED> instruction: 0x00007fb8
    139c:	00000000 	andeq	r0, r0, r0
    13a0:	8d640000 	stclhi	0, cr0, [r4, #-0]
    13a4:	8d680000 	stclhi	0, cr0, [r8, #-0]
    13a8:	00120000 	andseq	r0, r2, r0
    13ac:	0070007a 	rsbseq	r0, r0, sl, ror r0
    13b0:	5101f31e 	tstpl	r1, lr, lsl r3
    13b4:	25472447 	strbcs	r2, [r7, #-1095]	; 0x447
    13b8:	1e064491 	mcrne	4, 0, r4, cr6, cr1, {4}
    13bc:	8d689f1c 	stclhi	15, cr9, [r8, #-112]!	; 0xffffff90
    13c0:	8db00000 	ldchi	0, cr0, [r0]
    13c4:	01a20000 			; <UNDEFINED> instruction: 0x01a20000
    13c8:	465001f3 			; <UNDEFINED> instruction: 0x465001f3
    13cc:	0a254624 	beq	952c64 <multiplylookup+0x949594>
    13d0:	f31c0280 	vhsub.u16	d0, d28, d0
    13d4:	24465001 	strbcs	r5, [r6], #-1
    13d8:	01f32546 	mvnseq	r2, r6, asr #10
    13dc:	46244650 			; <UNDEFINED> instruction: 0x46244650
    13e0:	02800a25 	addeq	r0, r0, #151552	; 0x25000
    13e4:	0001282a 	andeq	r2, r1, sl, lsr #16
    13e8:	e00a1316 	and	r1, sl, r6, lsl r3
    13ec:	01f31c01 	mvnseq	r1, r1, lsl #24
    13f0:	46244650 			; <UNDEFINED> instruction: 0x46244650
    13f4:	02800a25 	addeq	r0, r0, #151552	; 0x25000
    13f8:	5001f31c 	andpl	pc, r1, ip, lsl r3	; <UNPREDICTABLE>
    13fc:	25462446 	strbcs	r2, [r6, #-1094]	; 0x446
    1400:	465001f3 			; <UNDEFINED> instruction: 0x465001f3
    1404:	0a254624 	beq	952c9c <multiplylookup+0x9495cc>
    1408:	282a0280 	stmdacs	sl!, {r7, r9}
    140c:	13160001 	tstne	r6, #1
    1410:	475101f3 	smmlsrmi	r1, r3, r1, r0
    1414:	0a254724 	beq	9530ac <multiplylookup+0x9499dc>
    1418:	282a01e0 	stmdacs	sl!, {r5, r6, r7, r8}
    141c:	13160001 	tstne	r6, #1
    1420:	1c01e00a 	stcne	0, cr14, [r1], {10}
    1424:	465001f3 			; <UNDEFINED> instruction: 0x465001f3
    1428:	0a254624 	beq	952cc0 <multiplylookup+0x9495f0>
    142c:	f31c0280 	vhsub.u16	d0, d28, d0
    1430:	24465001 	strbcs	r5, [r6], #-1
    1434:	01f32546 	mvnseq	r2, r6, asr #10
    1438:	46244650 			; <UNDEFINED> instruction: 0x46244650
    143c:	02800a25 	addeq	r0, r0, #151552	; 0x25000
    1440:	0001282a 	andeq	r2, r1, sl, lsr #16
    1444:	e00a1316 	and	r1, sl, r6, lsl r3
    1448:	01f31c01 	mvnseq	r1, r1, lsl #24
    144c:	46244650 			; <UNDEFINED> instruction: 0x46244650
    1450:	02800a25 	addeq	r0, r0, #151552	; 0x25000
    1454:	5001f31c 	andpl	pc, r1, ip, lsl r3	; <UNPREDICTABLE>
    1458:	25462446 	strbcs	r2, [r6, #-1094]	; 0x446
    145c:	465001f3 			; <UNDEFINED> instruction: 0x465001f3
    1460:	0a254624 	beq	952cf8 <multiplylookup+0x949628>
    1464:	282a0280 	stmdacs	sl!, {r7, r9}
    1468:	13160001 	tstne	r6, #1
    146c:	475101f3 	smmlsrmi	r1, r3, r1, r0
    1470:	0a254724 	beq	953108 <multiplylookup+0x949a38>
    1474:	282a01e0 	stmdacs	sl!, {r5, r6, r7, r8}
    1478:	13160001 	tstne	r6, #1
    147c:	e00a0074 	and	r0, sl, r4, ror r0
    1480:	01282a01 	teqeq	r8, r1, lsl #20
    1484:	0a131600 	beq	4c6c8c <multiplylookup+0x4bd5bc>
    1488:	f31c01e0 	vrhadd.u16	q0, q14, q8
    148c:	24465001 	strbcs	r5, [r6], #-1
    1490:	800a2546 	andhi	r2, sl, r6, asr #10
    1494:	01f31c02 	mvnseq	r1, r2, lsl #24
    1498:	46244650 			; <UNDEFINED> instruction: 0x46244650
    149c:	5001f325 	andpl	pc, r1, r5, lsr #6
    14a0:	25462446 	strbcs	r2, [r6, #-1094]	; 0x446
    14a4:	2a02800a 	bcs	a14d4 <multiplylookup+0x97e04>
    14a8:	16000128 	strne	r0, [r0], -r8, lsr #2
    14ac:	01e00a13 	mvneq	r0, r3, lsl sl
    14b0:	5001f31c 	andpl	pc, r1, ip, lsl r3	; <UNPREDICTABLE>
    14b4:	25462446 	strbcs	r2, [r6, #-1094]	; 0x446
    14b8:	1c02800a 	stcne	0, cr8, [r2], {10}
    14bc:	465001f3 			; <UNDEFINED> instruction: 0x465001f3
    14c0:	f3254624 	vmax.u32	d4, d5, d20
    14c4:	24465001 	strbcs	r5, [r6], #-1
    14c8:	800a2546 	andhi	r2, sl, r6, asr #10
    14cc:	01282a02 	teqeq	r8, r2, lsl #20
    14d0:	f3131600 	vmax.u16	d1, d3, d0
    14d4:	24475101 	strbcs	r5, [r7], #-257	; 0x101
    14d8:	e00a2547 	and	r2, sl, r7, asr #10
    14dc:	01282a01 	teqeq	r8, r1, lsl #20
    14e0:	0a131600 	beq	4c6ce8 <multiplylookup+0x4bd618>
    14e4:	f31c01e0 	vrhadd.u16	q0, q14, q8
    14e8:	24465001 	strbcs	r5, [r6], #-1
    14ec:	800a2546 	andhi	r2, sl, r6, asr #10
    14f0:	01f31c02 	mvnseq	r1, r2, lsl #24
    14f4:	46244650 			; <UNDEFINED> instruction: 0x46244650
    14f8:	5001f325 	andpl	pc, r1, r5, lsr #6
    14fc:	25462446 	strbcs	r2, [r6, #-1094]	; 0x446
    1500:	2a02800a 	bcs	a1530 <multiplylookup+0x97e60>
    1504:	16000128 	strne	r0, [r0], -r8, lsr #2
    1508:	01e00a13 	mvneq	r0, r3, lsl sl
    150c:	5001f31c 	andpl	pc, r1, ip, lsl r3	; <UNPREDICTABLE>
    1510:	25462446 	strbcs	r2, [r6, #-1094]	; 0x446
    1514:	1c02800a 	stcne	0, cr8, [r2], {10}
    1518:	465001f3 			; <UNDEFINED> instruction: 0x465001f3
    151c:	f3254624 	vmax.u32	d4, d5, d20
    1520:	24465001 	strbcs	r5, [r6], #-1
    1524:	800a2546 	andhi	r2, sl, r6, asr #10
    1528:	01282a02 	teqeq	r8, r2, lsl #20
    152c:	f3131600 	vmax.u16	d1, d3, d0
    1530:	24475101 	strbcs	r5, [r7], #-257	; 0x101
    1534:	e00a2547 	and	r2, sl, r7, asr #10
    1538:	01282a01 	teqeq	r8, r1, lsl #20
    153c:	74131600 	ldrvc	r1, [r3], #-1536	; 0x600
    1540:	01e00a00 	mvneq	r0, r0, lsl #20
    1544:	0001282a 	andeq	r2, r1, sl, lsr #16
    1548:	7c911316 	ldcvc	3, cr1, [r1], {22}
    154c:	47244706 	strmi	r4, [r4, -r6, lsl #14]!
    1550:	01e00a25 	mvneq	r0, r5, lsr #20
    1554:	0001282a 	andeq	r2, r1, sl, lsr #16
    1558:	007a1316 	rsbseq	r1, sl, r6, lsl r3
    155c:	5101f31e 	tstpl	r1, lr, lsl r3
    1560:	25472447 	strbcs	r2, [r7, #-1095]	; 0x447
    1564:	1e064491 	mcrne	4, 0, r4, cr6, cr1, {4}
    1568:	8db09f1c 	ldchi	15, cr9, [r0, #112]!	; 0x70
    156c:	8e940000 	cdphi	0, 9, cr0, cr4, cr0, {0}
    1570:	01ac0000 			; <UNDEFINED> instruction: 0x01ac0000
    1574:	465001f3 			; <UNDEFINED> instruction: 0x465001f3
    1578:	0a254624 	beq	952e10 <multiplylookup+0x949740>
    157c:	f31c0280 	vhsub.u16	d0, d28, d0
    1580:	24465001 	strbcs	r5, [r6], #-1
    1584:	01f32546 	mvnseq	r2, r6, asr #10
    1588:	46244650 			; <UNDEFINED> instruction: 0x46244650
    158c:	02800a25 	addeq	r0, r0, #151552	; 0x25000
    1590:	0001282a 	andeq	r2, r1, sl, lsr #16
    1594:	e00a1316 	and	r1, sl, r6, lsl r3
    1598:	01f31c01 	mvnseq	r1, r1, lsl #24
    159c:	46244650 			; <UNDEFINED> instruction: 0x46244650
    15a0:	02800a25 	addeq	r0, r0, #151552	; 0x25000
    15a4:	5001f31c 	andpl	pc, r1, ip, lsl r3	; <UNPREDICTABLE>
    15a8:	25462446 	strbcs	r2, [r6, #-1094]	; 0x446
    15ac:	465001f3 			; <UNDEFINED> instruction: 0x465001f3
    15b0:	0a254624 	beq	952e48 <multiplylookup+0x949778>
    15b4:	282a0280 	stmdacs	sl!, {r7, r9}
    15b8:	13160001 	tstne	r6, #1
    15bc:	475101f3 	smmlsrmi	r1, r3, r1, r0
    15c0:	0a254724 	beq	953258 <multiplylookup+0x949b88>
    15c4:	282a01e0 	stmdacs	sl!, {r5, r6, r7, r8}
    15c8:	13160001 	tstne	r6, #1
    15cc:	1c01e00a 	stcne	0, cr14, [r1], {10}
    15d0:	465001f3 			; <UNDEFINED> instruction: 0x465001f3
    15d4:	0a254624 	beq	952e6c <multiplylookup+0x94979c>
    15d8:	f31c0280 	vhsub.u16	d0, d28, d0
    15dc:	24465001 	strbcs	r5, [r6], #-1
    15e0:	01f32546 	mvnseq	r2, r6, asr #10
    15e4:	46244650 			; <UNDEFINED> instruction: 0x46244650
    15e8:	02800a25 	addeq	r0, r0, #151552	; 0x25000
    15ec:	0001282a 	andeq	r2, r1, sl, lsr #16
    15f0:	e00a1316 	and	r1, sl, r6, lsl r3
    15f4:	01f31c01 	mvnseq	r1, r1, lsl #24
    15f8:	46244650 			; <UNDEFINED> instruction: 0x46244650
    15fc:	02800a25 	addeq	r0, r0, #151552	; 0x25000
    1600:	5001f31c 	andpl	pc, r1, ip, lsl r3	; <UNPREDICTABLE>
    1604:	25462446 	strbcs	r2, [r6, #-1094]	; 0x446
    1608:	465001f3 			; <UNDEFINED> instruction: 0x465001f3
    160c:	0a254624 	beq	952ea4 <multiplylookup+0x9497d4>
    1610:	282a0280 	stmdacs	sl!, {r7, r9}
    1614:	13160001 	tstne	r6, #1
    1618:	475101f3 	smmlsrmi	r1, r3, r1, r0
    161c:	0a254724 	beq	9532b4 <multiplylookup+0x949be4>
    1620:	282a01e0 	stmdacs	sl!, {r5, r6, r7, r8}
    1624:	13160001 	tstne	r6, #1
    1628:	475301f3 	smmlsrmi	r3, r3, r1, r0
    162c:	0a254724 	beq	9532c4 <multiplylookup+0x949bf4>
    1630:	282a01e0 	stmdacs	sl!, {r5, r6, r7, r8}
    1634:	13160001 	tstne	r6, #1
    1638:	1c01e00a 	stcne	0, cr14, [r1], {10}
    163c:	465001f3 			; <UNDEFINED> instruction: 0x465001f3
    1640:	0a254624 	beq	952ed8 <multiplylookup+0x949808>
    1644:	f31c0280 	vhsub.u16	d0, d28, d0
    1648:	24465001 	strbcs	r5, [r6], #-1
    164c:	01f32546 	mvnseq	r2, r6, asr #10
    1650:	46244650 			; <UNDEFINED> instruction: 0x46244650
    1654:	02800a25 	addeq	r0, r0, #151552	; 0x25000
    1658:	0001282a 	andeq	r2, r1, sl, lsr #16
    165c:	e00a1316 	and	r1, sl, r6, lsl r3
    1660:	01f31c01 	mvnseq	r1, r1, lsl #24
    1664:	46244650 			; <UNDEFINED> instruction: 0x46244650
    1668:	02800a25 	addeq	r0, r0, #151552	; 0x25000
    166c:	5001f31c 	andpl	pc, r1, ip, lsl r3	; <UNPREDICTABLE>
    1670:	25462446 	strbcs	r2, [r6, #-1094]	; 0x446
    1674:	465001f3 			; <UNDEFINED> instruction: 0x465001f3
    1678:	0a254624 	beq	952f10 <multiplylookup+0x949840>
    167c:	282a0280 	stmdacs	sl!, {r7, r9}
    1680:	13160001 	tstne	r6, #1
    1684:	475101f3 	smmlsrmi	r1, r3, r1, r0
    1688:	0a254724 	beq	953320 <multiplylookup+0x949c50>
    168c:	282a01e0 	stmdacs	sl!, {r5, r6, r7, r8}
    1690:	13160001 	tstne	r6, #1
    1694:	1c01e00a 	stcne	0, cr14, [r1], {10}
    1698:	465001f3 			; <UNDEFINED> instruction: 0x465001f3
    169c:	0a254624 	beq	952f34 <multiplylookup+0x949864>
    16a0:	f31c0280 	vhsub.u16	d0, d28, d0
    16a4:	24465001 	strbcs	r5, [r6], #-1
    16a8:	01f32546 	mvnseq	r2, r6, asr #10
    16ac:	46244650 			; <UNDEFINED> instruction: 0x46244650
    16b0:	02800a25 	addeq	r0, r0, #151552	; 0x25000
    16b4:	0001282a 	andeq	r2, r1, sl, lsr #16
    16b8:	e00a1316 	and	r1, sl, r6, lsl r3
    16bc:	01f31c01 	mvnseq	r1, r1, lsl #24
    16c0:	46244650 			; <UNDEFINED> instruction: 0x46244650
    16c4:	02800a25 	addeq	r0, r0, #151552	; 0x25000
    16c8:	5001f31c 	andpl	pc, r1, ip, lsl r3	; <UNPREDICTABLE>
    16cc:	25462446 	strbcs	r2, [r6, #-1094]	; 0x446
    16d0:	465001f3 			; <UNDEFINED> instruction: 0x465001f3
    16d4:	0a254624 	beq	952f6c <multiplylookup+0x94989c>
    16d8:	282a0280 	stmdacs	sl!, {r7, r9}
    16dc:	13160001 	tstne	r6, #1
    16e0:	475101f3 	smmlsrmi	r1, r3, r1, r0
    16e4:	0a254724 	beq	95337c <multiplylookup+0x949cac>
    16e8:	282a01e0 	stmdacs	sl!, {r5, r6, r7, r8}
    16ec:	13160001 	tstne	r6, #1
    16f0:	475301f3 	smmlsrmi	r3, r3, r1, r0
    16f4:	0a254724 	beq	95338c <multiplylookup+0x949cbc>
    16f8:	282a01e0 	stmdacs	sl!, {r5, r6, r7, r8}
    16fc:	13160001 	tstne	r6, #1
    1700:	47067c91 			; <UNDEFINED> instruction: 0x47067c91
    1704:	0a254724 	beq	95339c <multiplylookup+0x949ccc>
    1708:	282a01e0 	stmdacs	sl!, {r5, r6, r7, r8}
    170c:	13160001 	tstne	r6, #1
    1710:	f31e007a 	vqadd.u16	q0, q7, q13
    1714:	24475101 	strbcs	r5, [r7], #-257	; 0x101
    1718:	44912547 	ldrmi	r2, [r1], #1351	; 0x547
    171c:	9f1c1e06 	svcls	0x001c1e06
	...
    1728:	00008d64 	andeq	r8, r0, r4, ror #26
    172c:	00008db0 			; <UNDEFINED> instruction: 0x00008db0
    1730:	01f3002d 	mvnseq	r0, sp, lsr #32
    1734:	46244652 			; <UNDEFINED> instruction: 0x46244652
    1738:	02800a25 	addeq	r0, r0, #151552	; 0x25000
    173c:	5201f31c 	andpl	pc, r1, #28, 6	; 0x70000000
    1740:	25462446 	strbcs	r2, [r6, #-1094]	; 0x446
    1744:	465201f3 			; <UNDEFINED> instruction: 0x465201f3
    1748:	0a254624 	beq	952fe0 <multiplylookup+0x949910>
    174c:	282a0280 	stmdacs	sl!, {r7, r9}
    1750:	13160001 	tstne	r6, #1
    1754:	911e0079 	tstls	lr, r9, ror r0
    1758:	00740648 	rsbseq	r0, r4, r8, asr #12
    175c:	b09f1c1e 	addslt	r1, pc, lr, lsl ip	; <UNPREDICTABLE>
    1760:	9400008d 	strls	r0, [r0], #-141	; 0x8d
    1764:	3200008e 	andcc	r0, r0, #142	; 0x8e
    1768:	5201f300 	andpl	pc, r1, #0, 6
    176c:	25462446 	strbcs	r2, [r6, #-1094]	; 0x446
    1770:	1c02800a 	stcne	0, cr8, [r2], {10}
    1774:	465201f3 			; <UNDEFINED> instruction: 0x465201f3
    1778:	f3254624 	vmax.u32	d4, d5, d20
    177c:	24465201 	strbcs	r5, [r6], #-513	; 0x201
    1780:	800a2546 	andhi	r2, sl, r6, asr #10
    1784:	01282a02 	teqeq	r8, r2, lsl #20
    1788:	79131600 	ldmdbvc	r3, {r9, sl, ip}
    178c:	01f31e00 	mvnseq	r1, r0, lsl #28
    1790:	47244753 			; <UNDEFINED> instruction: 0x47244753
    1794:	06489125 	strbeq	r9, [r8], -r5, lsr #2
    1798:	009f1c1e 	addseq	r1, pc, lr, lsl ip	; <UNPREDICTABLE>
    179c:	00000000 	andeq	r0, r0, r0
    17a0:	64000000 	strvs	r0, [r0], #-0
    17a4:	8400008d 	strhi	r0, [r0], #-141	; 0x8d
    17a8:	1200008d 	andne	r0, r0, #141	; 0x8d
    17ac:	7c007b00 	stcvc	11, cr7, [r0], {-0}
    17b0:	7c911e00 	ldcvc	14, cr1, [r1], {0}
    17b4:	47244706 	strmi	r4, [r4, -r6, lsl #14]!
    17b8:	064c9125 	strbeq	r9, [ip], -r5, lsr #2
    17bc:	849f1c1e 	ldrhi	r1, [pc], #3102	; 17c4 <_start-0x683c>
    17c0:	9400008d 	strls	r0, [r0], #-141	; 0x8d
    17c4:	3200008e 	andcc	r0, r0, #142	; 0x8e
    17c8:	06789100 	ldrbteq	r9, [r8], -r0, lsl #2
    17cc:	25462446 	strbcs	r2, [r6, #-1094]	; 0x446
    17d0:	1c02800a 	stcne	0, cr8, [r2], {10}
    17d4:	46067891 			; <UNDEFINED> instruction: 0x46067891
    17d8:	91254624 	teqls	r5, r4, lsr #12
    17dc:	24460678 	strbcs	r0, [r6], #-1656	; 0x678
    17e0:	800a2546 	andhi	r2, sl, r6, asr #10
    17e4:	01282a02 	teqeq	r8, r2, lsl #20
    17e8:	7b131600 	blvc	4c6ff0 <multiplylookup+0x4bd920>
    17ec:	7c911e00 	ldcvc	14, cr1, [r1], {0}
    17f0:	47244706 	strmi	r4, [r4, -r6, lsl #14]!
    17f4:	064c9125 	strbeq	r9, [ip], -r5, lsr #2
    17f8:	009f1c1e 	addseq	r1, pc, lr, lsl ip	; <UNPREDICTABLE>
    17fc:	00000000 	andeq	r0, r0, r0
    1800:	78000000 	stmdavc	r0, {}	; <UNPREDICTABLE>
    1804:	cc00008d 	stcgt	0, cr0, [r0], {141}	; 0x8d
    1808:	0100008d 	smlabbeq	r0, sp, r0, r0
    180c:	8e405200 	cdphi	2, 4, cr5, cr0, cr0, {0}
    1810:	8e5c0000 	cdphi	0, 5, cr0, cr12, cr0, {0}
    1814:	00070000 	andeq	r0, r7, r0
    1818:	44910072 	ldrmi	r0, [r1], #114	; 0x72
    181c:	5c9f2206 	lfmpl	f2, 4, [pc], {6}
    1820:	9400008e 	strls	r0, [r0], #-142	; 0x8e
    1824:	0100008e 	smlabbeq	r0, lr, r0, r0
    1828:	00005200 	andeq	r5, r0, r0, lsl #4
    182c:	00000000 	andeq	r0, r0, r0
    1830:	8d800000 	stchi	0, cr0, [r0]
    1834:	8db00000 	ldchi	0, cr0, [r0]
    1838:	00010000 	andeq	r0, r1, r0
    183c:	008db050 	addeq	fp, sp, r0, asr r0
    1840:	008dcc00 	addeq	ip, sp, r0, lsl #24
    1844:	5c000100 	stfpls	f0, [r0], {-0}
    1848:	00008e40 	andeq	r8, r0, r0, asr #28
    184c:	00008e74 	andeq	r8, r0, r4, ror lr
    1850:	007c0007 	rsbseq	r0, ip, r7
    1854:	22064891 	andcs	r4, r6, #9502720	; 0x910000
    1858:	008e749f 	umulleq	r7, lr, pc, r4	; <UNPREDICTABLE>
    185c:	008e7c00 	addeq	r7, lr, r0, lsl #24
    1860:	5c000100 	stfpls	f0, [r0], {-0}
	...
    186c:	00008d84 	andeq	r8, r0, r4, lsl #27
    1870:	00008db0 			; <UNDEFINED> instruction: 0x00008db0
    1874:	b05c0001 	subslt	r0, ip, r1
    1878:	4000008d 	andmi	r0, r0, sp, lsl #1
    187c:	0300008e 	movweq	r0, #142	; 0x8e
    1880:	7fb49100 	svcvc	0x00b49100
    1884:	00008e40 	andeq	r8, r0, r0, asr #28
    1888:	00008e70 	andeq	r8, r0, r0, ror lr
    188c:	b4910009 	ldrlt	r0, [r1], #9
    1890:	4c91067f 	ldcmi	6, cr0, [r1], {127}	; 0x7f
    1894:	709f2206 	addsvc	r2, pc, r6, lsl #4
    1898:	7c00008e 	stcvc	0, cr0, [r0], {142}	; 0x8e
    189c:	0100008e 	smlabbeq	r0, lr, r0, r0
    18a0:	00005600 	andeq	r5, r0, r0, lsl #12
    18a4:	00000000 	andeq	r0, r0, r0
    18a8:	8db00000 	ldchi	0, cr0, [r0]
    18ac:	8dcc0000 	stclhi	0, cr0, [ip]
    18b0:	00030000 	andeq	r0, r3, r0
    18b4:	cc7fb891 	ldclgt	8, cr11, [pc], #-580	; 1678 <_start-0x6988>
    18b8:	2c00008d 	stccs	0, cr0, [r0], {141}	; 0x8d
    18bc:	0100008e 	smlabbeq	r0, lr, r0, r0
    18c0:	8e2c5400 	cdphi	4, 2, cr5, cr12, cr0, {0}
    18c4:	8e3c0000 	cdphi	0, 3, cr0, cr12, cr0, {0}
    18c8:	00030000 	andeq	r0, r3, r0
    18cc:	3c9f7f74 	ldccc	15, cr7, [pc], {116}	; 0x74
    18d0:	4000008e 	andmi	r0, r0, lr, lsl #1
    18d4:	0100008e 	smlabbeq	r0, lr, r0, r0
    18d8:	00005400 	andeq	r5, r0, r0, lsl #8
    18dc:	00000000 	andeq	r0, r0, r0
    18e0:	8d840000 	stchi	0, cr0, [r4]
    18e4:	8db00000 	ldchi	0, cr0, [r0]
    18e8:	00010000 	andeq	r0, r1, r0
    18ec:	008db057 	addeq	fp, sp, r7, asr r0
    18f0:	008dcc00 	addeq	ip, sp, r0, lsl #24
    18f4:	53000100 	movwpl	r0, #256	; 0x100
    18f8:	00008e54 	andeq	r8, r0, r4, asr lr
    18fc:	00008e7c 	andeq	r8, r0, ip, ror lr
    1900:	00530001 	subseq	r0, r3, r1
    1904:	00000000 	andeq	r0, r0, r0
    1908:	b0000000 	andlt	r0, r0, r0
    190c:	cc00008d 	stcgt	0, cr0, [r0], {141}	; 0x8d
    1910:	0100008d 	smlabbeq	r0, sp, r0, r0
    1914:	8dcc5200 	sfmhi	f5, 2, [ip]
    1918:	8e400000 	cdphi	0, 4, cr0, cr0, cr0, {0}
    191c:	00010000 	andeq	r0, r1, r0
    1920:	00000055 	andeq	r0, r0, r5, asr r0
    1924:	00000000 	andeq	r0, r0, r0
    1928:	008db000 	addeq	fp, sp, r0
    192c:	008dcc00 	addeq	ip, sp, r0, lsl #24
    1930:	5c000100 	stfpls	f0, [r0], {-0}
    1934:	00008dcc 	andeq	r8, r0, ip, asr #27
    1938:	00008e40 	andeq	r8, r0, r0, asr #28
    193c:	00560001 	subseq	r0, r6, r1
    1940:	00000000 	andeq	r0, r0, r0
    1944:	b0000000 	andlt	r0, r0, r0
    1948:	cc00008d 	stcgt	0, cr0, [r0], {141}	; 0x8d
    194c:	0300008d 	movweq	r0, #141	; 0x8d
    1950:	7fb49100 	svcvc	0x00b49100
    1954:	00008dcc 	andeq	r8, r0, ip, asr #27
    1958:	00008e40 	andeq	r8, r0, r0, asr #28
    195c:	00570001 	subseq	r0, r7, r1
    1960:	00000000 	andeq	r0, r0, r0
    1964:	d8000000 	stmdale	r0, {}	; <UNPREDICTABLE>
    1968:	2800008d 	stmdacs	r0, {r0, r2, r3, r7}
    196c:	0800008e 	stmdaeq	r0, {r1, r2, r3, r7}
    1970:	06789100 	ldrbteq	r9, [r8], -r0, lsl #2
    1974:	1affff0a 	bne	15a4 <_start-0x6a5c>
    1978:	0000009f 	muleq	r0, pc, r0	; <UNPREDICTABLE>
    197c:	00000000 	andeq	r0, r0, r0
    1980:	008dd800 	addeq	sp, sp, r0, lsl #16
    1984:	008e0700 	addeq	r0, lr, r0, lsl #14
    1988:	53000100 	movwpl	r0, #256	; 0x100
	...
    1994:	00008dd8 	ldrdeq	r8, [r0], -r8	; <UNPREDICTABLE>
    1998:	00008e28 	andeq	r8, r0, r8, lsr #28
    199c:	00540001 	subseq	r0, r4, r1
    19a0:	00000000 	andeq	r0, r0, r0
    19a4:	f4000000 	vst4.8	{d0-d3}, [r0], r0
    19a8:	0800008d 	stmdaeq	r0, {r0, r2, r3, r7}
    19ac:	0800008e 	stmdaeq	r0, {r1, r2, r3, r7}
    19b0:	06789100 	ldrbteq	r9, [r8], -r0, lsl #2
    19b4:	1affff0a 	bne	15e4 <_start-0x6a1c>
    19b8:	0000009f 	muleq	r0, pc, r0	; <UNPREDICTABLE>
    19bc:	00000000 	andeq	r0, r0, r0
    19c0:	008df400 	addeq	pc, sp, r0, lsl #8
    19c4:	008e2800 	addeq	r2, lr, r0, lsl #16
    19c8:	54000100 	strpl	r0, [r0], #-256	; 0x100
	...
    19d4:	00008e08 	andeq	r8, r0, r8, lsl #28
    19d8:	00008e14 	andeq	r8, r0, r4, lsl lr
    19dc:	0074000d 	rsbseq	r0, r4, sp
    19e0:	067fb091 			; <UNDEFINED> instruction: 0x067fb091
    19e4:	70243122 	eorvc	r3, r4, r2, lsr #2
    19e8:	009f2200 	addseq	r2, pc, r0, lsl #4
    19ec:	00000000 	andeq	r0, r0, r0
    19f0:	Address 0x00000000000019f0 is out of bounds.


Disassembly of section .debug_ranges:

00000000 <.debug_ranges>:
   0:	000080a0 	andeq	r8, r0, r0, lsr #1
   4:	000080b8 	strheq	r8, [r0], -r8	; <UNPREDICTABLE>
   8:	000080b8 	strheq	r8, [r0], -r8	; <UNPREDICTABLE>
   c:	000080e8 	andeq	r8, r0, r8, ror #1
  10:	000080e8 	andeq	r8, r0, r8, ror #1
  14:	00008104 	andeq	r8, r0, r4, lsl #2
  18:	00008104 	andeq	r8, r0, r4, lsl #2
  1c:	00008138 	andeq	r8, r0, r8, lsr r1
  20:	00008138 	andeq	r8, r0, r8, lsr r1
  24:	00008164 	andeq	r8, r0, r4, ror #2
  28:	00008164 	andeq	r8, r0, r4, ror #2
  2c:	00008184 	andeq	r8, r0, r4, lsl #3
  30:	00008184 	andeq	r8, r0, r4, lsl #3
  34:	000081c0 	andeq	r8, r0, r0, asr #3
  38:	000081c0 	andeq	r8, r0, r0, asr #3
  3c:	000081dc 	ldrdeq	r8, [r0], -ip
  40:	000081dc 	ldrdeq	r8, [r0], -ip
  44:	000082ec 	andeq	r8, r0, ip, ror #5
  48:	000082ec 	andeq	r8, r0, ip, ror #5
  4c:	0000831c 	andeq	r8, r0, ip, lsl r3
  50:	0000831c 	andeq	r8, r0, ip, lsl r3
  54:	00008334 	andeq	r8, r0, r4, lsr r3
	...
  60:	00008334 	andeq	r8, r0, r4, lsr r3
  64:	00008370 	andeq	r8, r0, r0, ror r3
  68:	00008370 	andeq	r8, r0, r0, ror r3
  6c:	000083ac 	andeq	r8, r0, ip, lsr #7
  70:	000083ac 	andeq	r8, r0, ip, lsr #7
  74:	00008550 	andeq	r8, r0, r0, asr r5
	...
  80:	00008698 	muleq	r0, r8, r6
  84:	000086c8 	andeq	r8, r0, r8, asr #13
  88:	000086c8 	andeq	r8, r0, r8, asr #13
  8c:	0000881c 	andeq	r8, r0, ip, lsl r8
	...
  98:	00008938 	andeq	r8, r0, r8, lsr r9
  9c:	0000893c 	andeq	r8, r0, ip, lsr r9
  a0:	00008944 	andeq	r8, r0, r4, asr #18
  a4:	00008948 	andeq	r8, r0, r8, asr #18
  a8:	00008950 	andeq	r8, r0, r0, asr r9
  ac:	00008954 	andeq	r8, r0, r4, asr r9
  b0:	0000895c 	andeq	r8, r0, ip, asr r9
  b4:	00008968 	andeq	r8, r0, r8, ror #18
  b8:	00008970 	andeq	r8, r0, r0, ror r9
  bc:	000089a0 	andeq	r8, r0, r0, lsr #19
  c0:	000089dc 	ldrdeq	r8, [r0], -ip
  c4:	000089e8 	andeq	r8, r0, r8, ror #19
	...
  d0:	00008938 	andeq	r8, r0, r8, lsr r9
  d4:	0000893c 	andeq	r8, r0, ip, lsr r9
  d8:	00008944 	andeq	r8, r0, r4, asr #18
  dc:	00008948 	andeq	r8, r0, r8, asr #18
  e0:	00008950 	andeq	r8, r0, r0, asr r9
  e4:	00008954 	andeq	r8, r0, r4, asr r9
  e8:	00008964 	andeq	r8, r0, r4, ror #18
  ec:	00008968 	andeq	r8, r0, r8, ror #18
  f0:	0000897c 	andeq	r8, r0, ip, ror r9
  f4:	000089a0 	andeq	r8, r0, r0, lsr #19
	...
 100:	00008938 	andeq	r8, r0, r8, lsr r9
 104:	0000893c 	andeq	r8, r0, ip, lsr r9
 108:	00008944 	andeq	r8, r0, r4, asr #18
 10c:	00008948 	andeq	r8, r0, r8, asr #18
 110:	00008950 	andeq	r8, r0, r0, asr r9
 114:	00008954 	andeq	r8, r0, r4, asr r9
 118:	00008964 	andeq	r8, r0, r4, ror #18
 11c:	00008968 	andeq	r8, r0, r8, ror #18
 120:	0000897c 	andeq	r8, r0, ip, ror r9
 124:	000089a0 	andeq	r8, r0, r0, lsr #19
	...
 130:	00008a20 	andeq	r8, r0, r0, lsr #20
 134:	00008a24 	andeq	r8, r0, r4, lsr #20
 138:	00008a4c 	andeq	r8, r0, ip, asr #20
 13c:	00008a5c 	andeq	r8, r0, ip, asr sl
 140:	00008a60 	andeq	r8, r0, r0, ror #20
 144:	00008a78 	andeq	r8, r0, r8, ror sl
	...
 150:	00008ac4 	andeq	r8, r0, r4, asr #21
 154:	00008acc 	andeq	r8, r0, ip, asr #21
 158:	00008ad0 	ldrdeq	r8, [r0], -r0
 15c:	00008ad4 	ldrdeq	r8, [r0], -r4
	...
 168:	00008b40 	andeq	r8, r0, r0, asr #22
 16c:	00008b54 	andeq	r8, r0, r4, asr fp
 170:	00008b60 	andeq	r8, r0, r0, ror #22
 174:	00008ba4 	andeq	r8, r0, r4, lsr #23
	...
 180:	00008b40 	andeq	r8, r0, r0, asr #22
 184:	00008b44 	andeq	r8, r0, r4, asr #22
 188:	00008b48 	andeq	r8, r0, r8, asr #22
 18c:	00008b54 	andeq	r8, r0, r4, asr fp
 190:	00008b60 	andeq	r8, r0, r0, ror #22
 194:	00008b78 	andeq	r8, r0, r8, ror fp
 198:	00008b8c 	andeq	r8, r0, ip, lsl #23
 19c:	00008ba4 	andeq	r8, r0, r4, lsr #23
	...
 1a8:	00008b40 	andeq	r8, r0, r0, asr #22
 1ac:	00008b44 	andeq	r8, r0, r4, asr #22
 1b0:	00008b48 	andeq	r8, r0, r8, asr #22
 1b4:	00008b54 	andeq	r8, r0, r4, asr fp
 1b8:	00008b60 	andeq	r8, r0, r0, ror #22
 1bc:	00008b78 	andeq	r8, r0, r8, ror fp
 1c0:	00008b8c 	andeq	r8, r0, ip, lsl #23
 1c4:	00008ba4 	andeq	r8, r0, r4, lsr #23
	...
 1d0:	00008d88 	andeq	r8, r0, r8, lsl #27
 1d4:	00008d90 	muleq	r0, r0, sp
 1d8:	00008d94 	muleq	r0, r4, sp
 1dc:	00008d98 	muleq	r0, r8, sp
 1e0:	00008d9c 	muleq	r0, ip, sp
 1e4:	00008da0 	andeq	r8, r0, r0, lsr #27
 1e8:	00008de0 	andeq	r8, r0, r0, ror #27
 1ec:	00008e28 	andeq	r8, r0, r8, lsr #28
	...
 1f8:	00008d88 	andeq	r8, r0, r8, lsl #27
 1fc:	00008d90 	muleq	r0, r0, sp
 200:	00008d94 	muleq	r0, r4, sp
 204:	00008d98 	muleq	r0, r8, sp
 208:	00008d9c 	muleq	r0, ip, sp
 20c:	00008da0 	andeq	r8, r0, r0, lsr #27
 210:	00008df4 	strdeq	r8, [r0], -r4
 214:	00008e28 	andeq	r8, r0, r8, lsr #28
	...
 220:	00008d88 	andeq	r8, r0, r8, lsl #27
 224:	00008d90 	muleq	r0, r0, sp
 228:	00008d94 	muleq	r0, r4, sp
 22c:	00008d98 	muleq	r0, r8, sp
 230:	00008d9c 	muleq	r0, ip, sp
 234:	00008da0 	andeq	r8, r0, r0, lsr #27
 238:	00008df4 	strdeq	r8, [r0], -r4
 23c:	00008e28 	andeq	r8, r0, r8, lsr #28
	...
 248:	0000881c 	andeq	r8, r0, ip, lsl r8
 24c:	00008828 	andeq	r8, r0, r8, lsr #16
 250:	00008828 	andeq	r8, r0, r8, lsr #16
 254:	00008878 	andeq	r8, r0, r8, ror r8
 258:	00008878 	andeq	r8, r0, r8, ror r8
 25c:	000088c0 	andeq	r8, r0, r0, asr #17
 260:	000088c0 	andeq	r8, r0, r0, asr #17
 264:	00008a0c 	andeq	r8, r0, ip, lsl #20
 268:	00008a0c 	andeq	r8, r0, ip, lsl #20
 26c:	00008aac 	andeq	r8, r0, ip, lsr #21
 270:	00008aac 	andeq	r8, r0, ip, lsr #21
 274:	00008ad4 	ldrdeq	r8, [r0], -r4
 278:	00008ad4 	ldrdeq	r8, [r0], -r4
 27c:	00008b28 	andeq	r8, r0, r8, lsr #22
 280:	00008b28 	andeq	r8, r0, r8, lsr #22
 284:	00008bd8 	ldrdeq	r8, [r0], -r8	; <UNPREDICTABLE>
 288:	00008bd8 	ldrdeq	r8, [r0], -r8	; <UNPREDICTABLE>
 28c:	00008e94 	muleq	r0, r4, lr
	...

Disassembly of section .debug_macro:

00000000 <.debug_macro>:
   0:	5e020004 	cdppl	0, 0, cr0, cr2, cr4, {0}
   4:	07000000 	streq	r0, [r0, -r0]
   8:	0000008c 	andeq	r0, r0, ip, lsl #1
   c:	03010003 	movweq	r0, #4099	; 0x1003
  10:	52070204 	andpl	r0, r7, #4, 4	; 0x40000000
  14:	04000008 	streq	r0, [r0], #-8
  18:	18600c05 	stmdane	r0!, {r0, r2, sl, fp}^
  1c:	0d050000 	stceq	0, cr0, [r5, #-0]
  20:	00000f9e 	muleq	r0, lr, pc	; <UNPREDICTABLE>
  24:	08a90f05 	stmiaeq	r9!, {r0, r2, r8, r9, sl, fp}
  28:	10050000 	andne	r0, r5, r0
  2c:	0000128d 	andeq	r1, r0, sp, lsl #5
  30:	22701105 	rsbscs	r1, r0, #1073741825	; 0x40000001
  34:	12050000 	andne	r0, r5, #0
  38:	0000137e 	andeq	r1, r0, lr, ror r3
  3c:	0cf81305 	ldcleq	3, cr1, [r8], #20
  40:	15050000 	strne	r0, [r5, #-0]
  44:	000007fb 	strdeq	r0, [r0], -fp
  48:	21561605 	cmpcs	r6, r5, lsl #12
  4c:	17050000 	strne	r0, [r5, -r0]
  50:	00001b86 	andeq	r1, r0, r6, lsl #23
  54:	1a4d1805 	bne	1346070 <multiplylookup+0x133c9a0>
  58:	19050000 	stmdbne	r5, {}	; <UNPREDICTABLE>
  5c:	0000168d 	andeq	r1, r0, sp, lsl #13
  60:	07501a05 	ldrbeq	r1, [r0, -r5, lsl #20]
  64:	1b050000 	blne	14006c <multiplylookup+0x13699c>
  68:	00001045 	andeq	r1, r0, r5, asr #32
  6c:	20f31c05 	rscscs	r1, r3, r5, lsl #24
  70:	1d050000 	stcne	0, cr0, [r5, #-0]
  74:	00001dcd 	andeq	r1, r0, sp, asr #27
  78:	05a41e05 	streq	r1, [r4, #3589]!	; 0xe05
  7c:	1f050000 	svcne	0x00050000
  80:	000003ca 	andeq	r0, r0, sl, asr #7
  84:	1a322005 	bne	c880a0 <multiplylookup+0xc7e9d0>
  88:	00040000 	andeq	r0, r4, r0
  8c:	05000004 	streq	r0, [r0, #-4]
  90:	00135501 	andseq	r5, r3, r1, lsl #10
  94:	c8010500 	stmdagt	r1, {r8, sl}
  98:	0500000d 	streq	r0, [r0, #-13]
  9c:	0003a801 	andeq	sl, r3, r1, lsl #16
  a0:	0d010500 	cfstr32eq	mvfx0, [r1, #-0]
  a4:	0500000d 	streq	r0, [r0, #-13]
  a8:	00108d01 	andseq	r8, r0, r1, lsl #26
  ac:	1f010500 	svcne	0x00010500
  b0:	0500000f 	streq	r0, [r0, #-15]
  b4:	00189c01 	andseq	r9, r8, r1, lsl #24
  b8:	5c010500 	cfstr32pl	mvfx0, [r1], {-0}
  bc:	0500000a 	streq	r0, [r0, #-10]
  c0:	0013b501 	andseq	fp, r3, r1, lsl #10
  c4:	7a010500 	bvc	414cc <multiplylookup+0x37dfc>
  c8:	05000010 	streq	r0, [r0, #-16]
  cc:	00121d01 	andseq	r1, r2, r1, lsl #26
  d0:	d4010500 	strle	r0, [r1], #-1280	; 0x500
  d4:	0500001c 	streq	r0, [r0, #-28]
  d8:	001dae01 	andseq	sl, sp, r1, lsl #28
  dc:	03010500 	movweq	r0, #5376	; 0x1500
  e0:	0500000c 	streq	r0, [r0, #-12]
  e4:	00115a01 	andseq	r5, r1, r1, lsl #20
  e8:	22010500 	andcs	r0, r1, #0, 10
  ec:	05000007 	streq	r0, [r0, #-7]
  f0:	000ba301 	andeq	sl, fp, r1, lsl #6
  f4:	db010500 	blle	414fc <multiplylookup+0x37e2c>
  f8:	0500000e 	streq	r0, [r0, #-14]
  fc:	00176701 	andseq	r6, r7, r1, lsl #14
 100:	c9010500 	stmdbgt	r1, {r8, sl}
 104:	05000009 	streq	r0, [r0, #-9]
 108:	0006cd01 	andeq	ip, r6, r1, lsl #26
 10c:	a2010500 	andge	r0, r1, #0, 10
 110:	05000000 	streq	r0, [r0, #-0]
 114:	001e7c01 	andseq	r7, lr, r1, lsl #24
 118:	4b010500 	blmi	41520 <multiplylookup+0x37e50>
 11c:	05000012 	streq	r0, [r0, #-18]
 120:	00182801 	andseq	r2, r8, r1, lsl #16
 124:	59010500 	stmdbpl	r1, {r8, sl}
 128:	0500000e 	streq	r0, [r0, #-14]
 12c:	00120301 	andseq	r0, r2, r1, lsl #6
 130:	d4010500 	strle	r0, [r1], #-1280	; 0x500
 134:	05000007 	streq	r0, [r0, #-7]
 138:	00084901 	andeq	r4, r8, r1, lsl #18
 13c:	46010500 	strmi	r0, [r1], -r0, lsl #10
 140:	05000001 	streq	r0, [r0, #-1]
 144:	0004ec01 	andeq	lr, r4, r1, lsl #24
 148:	23010500 	movwcs	r0, #5376	; 0x1500
 14c:	0500001c 	streq	r0, [r0, #-28]
 150:	001c6101 	andseq	r6, ip, r1, lsl #2
 154:	45010500 	strmi	r0, [r1, #-1280]	; 0x500
 158:	05000018 	streq	r0, [r0, #-24]
 15c:	000ebd01 	andeq	fp, lr, r1, lsl #26
 160:	b6010500 	strlt	r0, [r1], -r0, lsl #10
 164:	05000000 	streq	r0, [r0, #-0]
 168:	000e7301 	andeq	r7, lr, r1, lsl #6
 16c:	86010500 	strhi	r0, [r1], -r0, lsl #10
 170:	05000003 	streq	r0, [r0, #-3]
 174:	00069f01 	andeq	r9, r6, r1, lsl #30
 178:	ba010500 	blt	41580 <multiplylookup+0x37eb0>
 17c:	05000007 	streq	r0, [r0, #-7]
 180:	00097801 	andeq	r7, r9, r1, lsl #16
 184:	b5010500 	strlt	r0, [r1, #-1280]	; 0x500
 188:	05000016 	streq	r0, [r0, #-22]
 18c:	00116b01 	andseq	r6, r1, r1, lsl #22
 190:	51010500 	tstpl	r1, r0, lsl #10
 194:	05000006 	streq	r0, [r0, #-6]
 198:	001d6b01 	andseq	r6, sp, r1, lsl #22
 19c:	42010500 	andmi	r0, r1, #0, 10
 1a0:	05000015 	streq	r0, [r0, #-21]
 1a4:	00022401 	andeq	r2, r2, r1, lsl #8
 1a8:	37010500 	strcc	r0, [r1, -r0, lsl #10]
 1ac:	05000017 	streq	r0, [r0, #-23]
 1b0:	000be401 	andeq	lr, fp, r1, lsl #8
 1b4:	55010500 	strpl	r0, [r1, #-1280]	; 0x500
 1b8:	05000019 	streq	r0, [r0, #-25]
 1bc:	00187901 	andseq	r7, r8, r1, lsl #18
 1c0:	2e010500 	cfsh32cs	mvfx0, mvfx1, #0
 1c4:	05000022 	streq	r0, [r0, #-34]	; 0x22
 1c8:	00130601 	andseq	r0, r3, r1, lsl #12
 1cc:	fa010500 	blx	415d4 <multiplylookup+0x37f04>
 1d0:	05000016 	streq	r0, [r0, #-22]
 1d4:	0005bf01 	andeq	fp, r5, r1, lsl #30
 1d8:	32010500 	andcc	r0, r1, #0, 10
 1dc:	05000009 	streq	r0, [r0, #-9]
 1e0:	0008d601 	andeq	sp, r8, r1, lsl #12
 1e4:	12010500 	andne	r0, r1, #0, 10
 1e8:	0500001f 	streq	r0, [r0, #-31]
 1ec:	00220c01 	eoreq	r0, r2, r1, lsl #24
 1f0:	02010500 	andeq	r0, r1, #0, 10
 1f4:	0500001c 	streq	r0, [r0, #-28]
 1f8:	001f2a01 	andseq	r2, pc, r1, lsl #20
 1fc:	9a010500 	bls	41604 <multiplylookup+0x37f34>
 200:	05000014 	streq	r0, [r0, #-20]
 204:	0021e001 	eoreq	lr, r1, r1
 208:	03010500 	movweq	r0, #5376	; 0x1500
 20c:	05000006 	streq	r0, [r0, #-6]
 210:	001a8401 	andseq	r8, sl, r1, lsl #8
 214:	b3010500 	movwlt	r0, #5376	; 0x1500
 218:	05000019 	streq	r0, [r0, #-25]
 21c:	00233101 	eoreq	r3, r3, r1, lsl #2
 220:	2e010500 	cfsh32cs	mvfx0, mvfx1, #0
 224:	0500001b 	streq	r0, [r0, #-27]
 228:	00043201 	andeq	r3, r4, r1, lsl #4
 22c:	de010500 	cfsh32le	mvfx0, mvfx1, #0
 230:	0500000f 	streq	r0, [r0, #-15]
 234:	00161001 	andseq	r1, r6, r1
 238:	63010500 	movwvs	r0, #5376	; 0x1500
 23c:	05000012 	streq	r0, [r0, #-18]
 240:	001b1d01 	andseq	r1, fp, r1, lsl #26
 244:	cb010500 	blgt	4164c <multiplylookup+0x37f7c>
 248:	0500001a 	streq	r0, [r0, #-26]
 24c:	00044901 	andeq	r4, r4, r1, lsl #18
 250:	72010500 	andvc	r0, r1, #0, 10
 254:	05000016 	streq	r0, [r0, #-22]
 258:	00200001 	eoreq	r0, r0, r1
 25c:	8e010500 	cfsh32hi	mvfx0, mvfx1, #0
 260:	05000019 	streq	r0, [r0, #-25]
 264:	0016e401 	andseq	lr, r6, r1, lsl #8
 268:	81010500 	tsthi	r1, r0, lsl #10
 26c:	05000020 	streq	r0, [r0, #-32]
 270:	0001f601 	andeq	pc, r1, r1, lsl #12
 274:	37010500 	strcc	r0, [r1, -r0, lsl #10]
 278:	05000019 	streq	r0, [r0, #-25]
 27c:	001e8b01 	andseq	r8, lr, r1, lsl #22
 280:	5a010500 	bpl	41688 <multiplylookup+0x37fb8>
 284:	0500000d 	streq	r0, [r0, #-13]
 288:	00112801 	andseq	r2, r1, r1, lsl #16
 28c:	bc010500 	cfstr32lt	mvfx0, [r1], {-0}
 290:	05000008 	streq	r0, [r0, #-8]
 294:	00004901 	andeq	r4, r0, r1, lsl #18
 298:	87010500 	strhi	r0, [r1, -r0, lsl #10]
 29c:	05000001 	streq	r0, [r0, #-1]
 2a0:	0015e401 	andseq	lr, r5, r1, lsl #8
 2a4:	7e010500 	cfsh32vc	mvfx0, mvfx1, #0
 2a8:	05000014 	streq	r0, [r0, #-20]
 2ac:	000d8901 	andeq	r8, sp, r1, lsl #18
 2b0:	f1010500 			; <UNDEFINED> instruction: 0xf1010500
 2b4:	0500000d 	streq	r0, [r0, #-13]
 2b8:	000cb401 	andeq	fp, ip, r1, lsl #8
 2bc:	46010500 	strmi	r0, [r1], -r0, lsl #10
 2c0:	0500000c 	streq	r0, [r0, #-12]
 2c4:	00006d01 	andeq	r6, r0, r1, lsl #26
 2c8:	e3010500 	movw	r0, #5376	; 0x1500
 2cc:	05000017 	streq	r0, [r0, #-23]
 2d0:	000ab201 	andeq	fp, sl, r1, lsl #4
 2d4:	1c010500 	cfstr32ne	mvfx0, [r1], {-0}
 2d8:	05000001 	streq	r0, [r0, #-1]
 2dc:	00172201 	andseq	r2, r7, r1, lsl #4
 2e0:	de010500 	cfsh32le	mvfx0, mvfx1, #0
 2e4:	05000001 	streq	r0, [r0, #-1]
 2e8:	000d4b01 	andeq	r4, sp, r1, lsl #22
 2ec:	30010500 	andcc	r0, r1, r0, lsl #10
 2f0:	05000012 	streq	r0, [r0, #-18]
 2f4:	00175701 	andseq	r5, r7, r1, lsl #14
 2f8:	f0010500 			; <UNDEFINED> instruction: 0xf0010500
 2fc:	05000010 	streq	r0, [r0, #-16]
 300:	001caf01 	andseq	sl, ip, r1, lsl #30
 304:	41010500 	tstmi	r1, r0, lsl #10
 308:	0500001b 	streq	r0, [r0, #-27]
 30c:	00008b01 	andeq	r8, r0, r1, lsl #22
 310:	5b010500 	blpl	41718 <multiplylookup+0x38048>
 314:	05000001 	streq	r0, [r0, #-1]
 318:	0012e801 	andseq	lr, r2, r1, lsl #16
 31c:	cc010500 	cfstr32gt	mvfx0, [r1], {-0}
 320:	0500001b 	streq	r0, [r0, #-27]
 324:	00159301 	andseq	r9, r5, r1, lsl #6
 328:	0d010500 	cfstr32eq	mvfx0, [r1, #-0]
 32c:	05000021 	streq	r0, [r0, #-33]	; 0x21
 330:	001d8e01 	andseq	r8, sp, r1, lsl #28
 334:	7f010500 	svcvc	0x00010500
 338:	05000004 	streq	r0, [r0, #-4]
 33c:	0009fb01 	andeq	pc, r9, r1, lsl #22
 340:	5d010500 	cfstr32pl	mvfx0, [r1, #-0]
 344:	0500001f 	streq	r0, [r0, #-31]
 348:	0022d101 	eoreq	sp, r2, r1, lsl #2
 34c:	8f010500 	svchi	0x00010500
 350:	05000013 	streq	r0, [r0, #-19]
 354:	000c1a01 	andeq	r1, ip, r1, lsl #20
 358:	bb010500 	bllt	41760 <multiplylookup+0x38090>
 35c:	0500001a 	streq	r0, [r0, #-26]
 360:	000fb701 	andeq	fp, pc, r1, lsl #14
 364:	a7010500 	strge	r0, [r1, -r0, lsl #10]
 368:	05000016 	streq	r0, [r0, #-22]
 36c:	000dda01 	andeq	sp, sp, r1, lsl #20
 370:	19010500 	stmdbne	r1, {r8, sl}
 374:	05000020 	streq	r0, [r0, #-32]
 378:	000f6501 	andeq	r6, pc, r1, lsl #10
 37c:	30010500 	andcc	r0, r1, r0, lsl #10
 380:	0500000c 	streq	r0, [r0, #-12]
 384:	00111201 	andseq	r1, r1, r1, lsl #4
 388:	34010500 	strcc	r0, [r1], #-1280	; 0x500
 38c:	0500001e 	streq	r0, [r0, #-30]
 390:	00055801 	andeq	r5, r5, r1, lsl #16
 394:	bc010500 	cfstr32lt	mvfx0, [r1], {-0}
 398:	05000017 	streq	r0, [r0, #-23]
 39c:	00179101 	andseq	r9, r7, r1, lsl #2
 3a0:	ed010500 	cfstr32	mvfx0, [r1, #-0]
 3a4:	05000022 	streq	r0, [r0, #-34]	; 0x22
 3a8:	001b0601 	andseq	r0, fp, r1, lsl #12
 3ac:	b0010500 	andlt	r0, r1, r0, lsl #10
 3b0:	0500000d 	streq	r0, [r0, #-13]
 3b4:	00057c01 	andeq	r7, r5, r1, lsl #24
 3b8:	e1010500 	tst	r1, r0, lsl #10
 3bc:	05000010 	streq	r0, [r0, #-16]
 3c0:	0015cc01 	andseq	ip, r5, r1, lsl #24
 3c4:	3f010500 	svccc	0x00010500
 3c8:	0500000e 	streq	r0, [r0, #-14]
 3cc:	00134001 	andseq	r4, r3, r1
 3d0:	7a010500 	bvc	417d8 <multiplylookup+0x38108>
 3d4:	05000017 	streq	r0, [r0, #-23]
 3d8:	0010ca01 	andseq	ip, r0, r1, lsl #20
 3dc:	99010500 	stmdbls	r1, {r8, sl}
 3e0:	05000001 	streq	r0, [r0, #-1]
 3e4:	00156401 	andseq	r6, r5, r1, lsl #8
 3e8:	7d010500 	cfstr32vc	mvfx0, [r1, #-0]
 3ec:	0500001c 	streq	r0, [r0, #-28]
 3f0:	000cc201 	andeq	ip, ip, r1, lsl #4
 3f4:	89010500 	stmdbhi	r1, {r8, sl}
 3f8:	0500000f 	streq	r0, [r0, #-15]
 3fc:	0003b301 	andeq	fp, r3, r1, lsl #6
 400:	f7010500 			; <UNDEFINED> instruction: 0xf7010500
 404:	05000003 	streq	r0, [r0, #-3]
 408:	0004c501 	andeq	ip, r4, r1, lsl #10
 40c:	bc010500 	cfstr32lt	mvfx0, [r1], {-0}
 410:	05000014 	streq	r0, [r0, #-20]
 414:	001aa201 	andseq	sl, sl, r1, lsl #4
 418:	6e010500 	cfsh32vs	mvfx0, mvfx1, #0
 41c:	05000006 	streq	r0, [r0, #-6]
 420:	00068901 	andeq	r8, r6, r1, lsl #18
 424:	6e010500 	cfsh32vs	mvfx0, mvfx1, #0
 428:	0500001b 	streq	r0, [r0, #-27]
 42c:	00045901 	andeq	r5, r4, r1, lsl #18
 430:	9f010500 	svcls	0x00010500
 434:	05000004 	streq	r0, [r0, #-4]
 438:	00061701 	andeq	r1, r6, r1, lsl #14
 43c:	d6010500 	strle	r0, [r1], -r0, lsl #10
 440:	05000014 	streq	r0, [r0, #-20]
 444:	0011d601 	andseq	sp, r1, r1, lsl #12
 448:	38010500 	stmdacc	r1, {r8, sl}
 44c:	0500001c 	streq	r0, [r0, #-28]
 450:	00077901 	andeq	r7, r7, r1, lsl #18
 454:	91010500 	tstls	r1, r0, lsl #10
 458:	05000009 	streq	r0, [r0, #-9]
 45c:	00191801 	andseq	r1, r9, r1, lsl #16
 460:	60010500 	andvs	r0, r1, r0, lsl #10
 464:	0500000c 	streq	r0, [r0, #-12]
 468:	000c7801 	andeq	r7, ip, r1, lsl #16
 46c:	0e010500 	cfsh32eq	mvfx0, mvfx1, #0
 470:	05000002 	streq	r0, [r0, #-2]
 474:	00073401 	andeq	r3, r7, r1, lsl #8
 478:	de010500 	cfsh32le	mvfx0, mvfx1, #0
 47c:	0500001e 	streq	r0, [r0, #-30]
 480:	000a2701 	andeq	r2, sl, r1, lsl #14
 484:	c8010500 	stmdagt	r1, {r8, sl}
 488:	05000001 	streq	r0, [r0, #-1]
 48c:	00204701 	eoreq	r4, r0, r1, lsl #14
 490:	b7010500 	strlt	r0, [r1, -r0, lsl #10]
 494:	05000006 	streq	r0, [r0, #-6]
 498:	00230201 	eoreq	r0, r3, r1, lsl #4
 49c:	b2010500 	andlt	r0, r1, #0, 10
 4a0:	0500001f 	streq	r0, [r0, #-31]
 4a4:	0013c801 	andseq	ip, r3, r1, lsl #16
 4a8:	27010500 	strcs	r0, [r1, -r0, lsl #10]
 4ac:	05000005 	streq	r0, [r0, #-5]
 4b0:	0015f901 	andseq	pc, r5, r1, lsl #18
 4b4:	5f010500 	svcpl	0x00010500
 4b8:	05000010 	streq	r0, [r0, #-16]
 4bc:	00119c01 	andseq	r9, r1, r1, lsl #24
 4c0:	ff010500 			; <UNDEFINED> instruction: 0xff010500
 4c4:	05000018 	streq	r0, [r0, #-24]
 4c8:	0012ae01 	andseq	sl, r2, r1, lsl #28
 4cc:	50010500 	andpl	r0, r1, r0, lsl #10
 4d0:	0500001d 	streq	r0, [r0, #-29]
 4d4:	001cfc01 	andseq	pc, ip, r1, lsl #24
 4d8:	b8010500 	stmdalt	r1, {r8, sl}
 4dc:	05000010 	streq	r0, [r0, #-16]
 4e0:	0004da01 	andeq	sp, r4, r1, lsl #20
 4e4:	dd010500 	cfstr32le	mvfx0, [r1, #-0]
 4e8:	05000009 	streq	r0, [r0, #-9]
 4ec:	000a9901 	andeq	r9, sl, r1, lsl #18
 4f0:	6a010500 	bvs	418f8 <multiplylookup+0x38228>
 4f4:	05000003 	streq	r0, [r0, #-3]
 4f8:	00046c01 	andeq	r6, r4, r1, lsl #24
 4fc:	dc010500 	cfstr32le	mvfx0, [r1], {-0}
 500:	05000019 	streq	r0, [r0, #-25]
 504:	000e9601 	andeq	r9, lr, r1, lsl #12
 508:	24010500 	strcs	r0, [r1], #-1280	; 0x500
 50c:	0500000e 	streq	r0, [r0, #-14]
 510:	00024b01 	andeq	r4, r2, r1, lsl #22
 514:	e6010500 	str	r0, [r1], -r0, lsl #10
 518:	05000006 	streq	r0, [r0, #-6]
 51c:	001f4c01 	andseq	r4, pc, r1, lsl #24
 520:	f7010500 			; <UNDEFINED> instruction: 0xf7010500
 524:	0500001e 	streq	r0, [r0, #-30]
 528:	001f7701 	andseq	r7, pc, r1, lsl #14
 52c:	12010500 	andne	r0, r1, #0, 10
 530:	05000008 	streq	r0, [r0, #-8]
 534:	000fcb01 	andeq	ip, pc, r1, lsl #22
 538:	ca010500 	bgt	41940 <multiplylookup+0x38270>
 53c:	05000019 	streq	r0, [r0, #-25]
 540:	001ce701 	andseq	lr, ip, r1, lsl #14
 544:	08010500 	stmdaeq	r1, {r8, sl}
 548:	0500000e 	streq	r0, [r0, #-14]
 54c:	001a6701 	andseq	r6, sl, r1, lsl #14
 550:	f7010500 			; <UNDEFINED> instruction: 0xf7010500
 554:	0500000f 	streq	r0, [r0, #-15]
 558:	001a1201 	andseq	r1, sl, r1, lsl #4
 55c:	14010500 	strne	r0, [r1], #-1280	; 0x500
 560:	05000009 	streq	r0, [r0, #-9]
 564:	00050701 	andeq	r0, r5, r1, lsl #14
 568:	67010500 	strvs	r0, [r1, -r0, lsl #10]
 56c:	0500000b 	streq	r0, [r0, #-11]
 570:	00063d01 	andeq	r3, r6, r1, lsl #26
 574:	ee010500 	cfsh32	mvfx0, mvfx1, #0
 578:	0500000e 	streq	r0, [r0, #-14]
 57c:	0005ec01 	andeq	lr, r5, r1, lsl #24
 580:	be010500 	cfsh32lt	mvfx0, mvfx1, #0
 584:	05000021 	streq	r0, [r0, #-33]	; 0x21
 588:	000bc501 	andeq	ip, fp, r1, lsl #10
 58c:	d8010500 	stmdale	r1, {r8, sl}
 590:	0500001f 	streq	r0, [r0, #-31]
 594:	0021ab01 	eoreq	sl, r1, r1, lsl #22
 598:	60010500 	andvs	r0, r1, r0, lsl #10
 59c:	05000020 	streq	r0, [r0, #-32]
 5a0:	0006f801 	andeq	pc, r6, r1, lsl #16
 5a4:	84010500 	strhi	r0, [r1], #-1280	; 0x500
 5a8:	0500000b 	streq	r0, [r0, #-11]
 5ac:	00203201 	eoreq	r3, r0, r1, lsl #4
 5b0:	90010500 	andls	r0, r1, r0, lsl #10
 5b4:	05000005 	streq	r0, [r0, #-5]
 5b8:	00026901 	andeq	r6, r2, r1, lsl #18
 5bc:	e7010500 	str	r0, [r1, -r0, lsl #10]
 5c0:	0500001d 	streq	r0, [r0, #-29]
 5c4:	001bab01 	andseq	sl, fp, r1, lsl #22
 5c8:	a8010500 	stmdage	r1, {r8, sl}
 5cc:	05000007 	streq	r0, [r0, #-7]
 5d0:	00231f01 	eoreq	r1, r3, r1, lsl #30
 5d4:	e4010500 	str	r0, [r1], #-1280	; 0x500
 5d8:	0500001a 	streq	r0, [r0, #-26]
 5dc:	00197301 	andseq	r7, r9, r1, lsl #6
 5e0:	32010500 	andcc	r0, r1, #0, 10
 5e4:	05000003 	streq	r0, [r0, #-3]
 5e8:	00142a01 	andseq	r2, r4, r1, lsl #20
 5ec:	15010500 	strne	r0, [r1, #-1280]	; 0x500
 5f0:	05000018 	streq	r0, [r0, #-24]
 5f4:	0016cd01 	andseq	ip, r6, r1, lsl #26
 5f8:	61010500 	tstvs	r1, r0, lsl #10
 5fc:	05000014 	streq	r0, [r0, #-20]
 600:	000b2b01 	andeq	r2, fp, r1, lsl #22
 604:	e5010500 	str	r0, [r1, #-1280]	; 0x500
 608:	05000003 	streq	r0, [r0, #-3]
 60c:	00090201 	andeq	r0, r9, r1, lsl #4
 610:	82010500 	andhi	r0, r1, #0, 10
 614:	05000022 	streq	r0, [r0, #-34]	; 0x22
 618:	00031401 	andeq	r1, r3, r1, lsl #8
 61c:	4a010500 	bmi	41a24 <multiplylookup+0x38354>
 620:	0500000f 	streq	r0, [r0, #-15]
 624:	0011c301 	andseq	ip, r1, r1, lsl #6
 628:	76010500 	strvc	r0, [r1], -r0, lsl #10
 62c:	0500000d 	streq	r0, [r0, #-13]
 630:	00216f01 	eoreq	r6, r1, r1, lsl #30
 634:	58010500 	stmdapl	r1, {r8, sl}
 638:	05000009 	streq	r0, [r0, #-9]
 63c:	000ac601 	andeq	ip, sl, r1, lsl #12
 640:	4e010500 	cfsh32mi	mvfx0, mvfx1, #0
 644:	0500001c 	streq	r0, [r0, #-28]
 648:	00041f01 	andeq	r1, r4, r1, lsl #30
 64c:	58010500 	stmdapl	r1, {r8, sl}
 650:	0500001e 	streq	r0, [r0, #-30]
 654:	0018be01 	andseq	fp, r8, r1, lsl #28
 658:	8c010500 	cfstr32hi	mvfx0, [r1], {-0}
 65c:	05000008 	streq	r0, [r0, #-8]
 660:	00000001 	andeq	r0, r0, r1
 664:	fe010500 	cdp2	5, 0, cr0, cr1, cr0, {0}
 668:	05000019 	streq	r0, [r0, #-25]
 66c:	001eb801 	andseq	fp, lr, r1, lsl #16
 670:	c7010500 	strgt	r0, [r1, -r0, lsl #10]
 674:	05000002 	streq	r0, [r0, #-2]
 678:	0013e201 	andseq	lr, r3, r1, lsl #4
 67c:	ec010500 	cfstr32	mvfx0, [r1], {-0}
 680:	0500001f 	streq	r0, [r0, #-31]
 684:	0020a901 	eoreq	sl, r0, r1, lsl #18
 688:	8d010500 	cfstr32hi	mvfx0, [r1, #-0]
 68c:	0500000c 	streq	r0, [r0, #-12]
 690:	00212c01 	eoreq	r2, r1, r1, lsl #24
 694:	aa010500 	bge	41a9c <multiplylookup+0x383cc>
 698:	05000009 	streq	r0, [r0, #-9]
 69c:	00010701 	andeq	r0, r1, r1, lsl #14
 6a0:	a3010500 	movwge	r0, #5376	; 0x1500
 6a4:	05000010 	streq	r0, [r0, #-16]
 6a8:	0018e601 	andseq	lr, r8, r1, lsl #12
 6ac:	c7010500 	strgt	r0, [r1, -r0, lsl #10]
 6b0:	05000020 	streq	r0, [r0, #-32]
 6b4:	00028201 	andeq	r8, r2, r1, lsl #4
 6b8:	26010500 	strcs	r0, [r1], -r0, lsl #10
 6bc:	05000015 	streq	r0, [r0, #-21]
 6c0:	00103701 	andseq	r3, r0, r1, lsl #14
 6c4:	14010500 	strne	r0, [r1], #-1280	; 0x500
 6c8:	05000000 	streq	r0, [r0, #-0]
 6cc:	001a2401 	andseq	r2, sl, r1, lsl #8
 6d0:	01010500 	tsteq	r1, r0, lsl #10
 6d4:	0500000f 	streq	r0, [r0, #-15]
 6d8:	000a6f01 	andeq	r6, sl, r1, lsl #30
 6dc:	b4010500 	strlt	r0, [r1], #-1280	; 0x500
 6e0:	05000011 	streq	r0, [r0, #-17]
 6e4:	00163801 	andseq	r3, r6, r1, lsl #16
 6e8:	1b010500 	blne	41af0 <multiplylookup+0x38420>
 6ec:	0500000b 	streq	r0, [r0, #-11]
 6f0:	000a4e01 	andeq	r4, sl, r1, lsl #28
 6f4:	9f010500 	svcls	0x00010500
 6f8:	05000012 	streq	r0, [r0, #-18]
 6fc:	00151701 	andseq	r1, r5, r1, lsl #14
 700:	7d010500 	cfstr32vc	mvfx0, [r1, #-0]
 704:	05000012 	streq	r0, [r0, #-18]
 708:	00007c01 	andeq	r7, r0, r1, lsl #24
 70c:	ad010500 	cfstr32ge	mvfx0, [r1, #-0]
 710:	0500000e 	streq	r0, [r0, #-14]
 714:	001bf301 	andseq	pc, fp, r1, lsl #6
 718:	bc010500 	cfstr32lt	mvfx0, [r1], {-0}
 71c:	05000015 	streq	r0, [r0, #-21]
 720:	00143d01 	andseq	r3, r4, r1, lsl #26
 724:	2f010500 	svccs	0x00010500
 728:	05000013 	streq	r0, [r0, #-19]
 72c:	00094901 	andeq	r4, r9, r1, lsl #18
 730:	09010500 	stmdbeq	r1, {r8, sl}
 734:	05000015 	streq	r0, [r0, #-21]
 738:	00153401 	andseq	r3, r5, r1, lsl #8
 73c:	ef010500 	svc	0x00010500
 740:	05000019 	streq	r0, [r0, #-25]
 744:	00017801 	andeq	r7, r1, r1, lsl #16
 748:	10010500 	andne	r0, r1, r0, lsl #10
 74c:	0500000f 	streq	r0, [r0, #-15]
 750:	0018af01 	andseq	sl, r8, r1, lsl #30
 754:	cf010500 	svcgt	0x00010500
 758:	0500001e 	streq	r0, [r0, #-30]
 75c:	00076a01 	andeq	r6, r7, r1, lsl #20
 760:	c5010500 	strgt	r0, [r1, #-1280]	; 0x500
 764:	0500001c 	streq	r0, [r0, #-28]
 768:	000d3c01 	andeq	r3, sp, r1, lsl #24
 76c:	84010500 	strhi	r0, [r1], #-1280	; 0x500
 770:	05000021 	streq	r0, [r0, #-33]	; 0x21
 774:	000f7901 	andeq	r7, pc, r1, lsl #18
 778:	bd010500 	cfstr32lt	mvfx0, [r1, #-0]
 77c:	0500001d 	streq	r0, [r0, #-29]
 780:	00040f01 	andeq	r0, r4, r1, lsl #30
 784:	05010500 	streq	r0, [r1, #-1280]	; 0x500
 788:	0500000b 	streq	r0, [r0, #-11]
 78c:	0013a501 	andseq	sl, r3, r1, lsl #10
 790:	52010500 	andpl	r0, r1, #0, 10
 794:	0500000b 	streq	r0, [r0, #-11]
 798:	00219401 	eoreq	r9, r1, r1, lsl #8
 79c:	76010500 	strvc	r0, [r1], -r0, lsl #10
 7a0:	05000008 	streq	r0, [r0, #-8]
 7a4:	00118801 	andseq	r8, r1, r1, lsl #16
 7a8:	1e010500 	cfsh32ne	mvfx0, mvfx1, #0
 7ac:	0500000d 	streq	r0, [r0, #-13]
 7b0:	00136001 	andseq	r6, r3, r1
 7b4:	50010500 	andpl	r0, r1, r0, lsl #10
 7b8:	05000016 	streq	r0, [r0, #-22]
 7bc:	000ae301 	andeq	lr, sl, r1, lsl #6
 7c0:	91010500 	tstls	r1, r0, lsl #10
 7c4:	0500001f 	streq	r0, [r0, #-31]
 7c8:	00225101 	eoreq	r5, r2, r1, lsl #2
 7cc:	0d010500 	cfstr32eq	mvfx0, [r1, #-0]
 7d0:	05000014 	streq	r0, [r0, #-20]
 7d4:	0000e901 	andeq	lr, r0, r1, lsl #18
 7d8:	18010500 	stmdane	r1, {r8, sl}
 7dc:	05000010 	streq	r0, [r0, #-16]
 7e0:	0002a301 	andeq	sl, r2, r1, lsl #6
 7e4:	a3010500 	movwge	r0, #5376	; 0x1500
 7e8:	05000022 	streq	r0, [r0, #-34]	; 0x22
 7ec:	000a7d01 	andeq	r7, sl, r1, lsl #26
 7f0:	2d010500 	cfstr32cs	mvfx0, [r1, #-0]
 7f4:	05000008 	streq	r0, [r0, #-8]
 7f8:	00144c01 	andseq	r4, r4, r1, lsl #24
 7fc:	46010500 	strmi	r0, [r1], -r0, lsl #10
 800:	05000011 	streq	r0, [r0, #-17]
 804:	00079101 	andeq	r9, r7, r1, lsl #2
 808:	ff010500 			; <UNDEFINED> instruction: 0xff010500
 80c:	05000014 	streq	r0, [r0, #-20]
 810:	00100a01 	andseq	r0, r0, r1, lsl #20
 814:	3e010500 	cfsh32cc	mvfx0, mvfx1, #0
 818:	0500000f 	streq	r0, [r0, #-15]
 81c:	0022c401 	eoreq	ip, r2, r1, lsl #8
 820:	07010500 	streq	r0, [r1, -r0, lsl #10]
 824:	05000003 	streq	r0, [r0, #-3]
 828:	00034e01 	andeq	r4, r3, r1, lsl #28
 82c:	03010500 	movweq	r0, #5376	; 0x1500
 830:	05000018 	streq	r0, [r0, #-24]
 834:	0002f101 	andeq	pc, r2, r1, lsl #2
 838:	41010500 	tstmi	r1, r0, lsl #10
 83c:	0500001d 	streq	r0, [r0, #-29]
 840:	001e1301 	andseq	r1, lr, r1, lsl #6
 844:	cc010500 	cfstr32gt	mvfx0, [r1], {-0}
 848:	05000014 	streq	r0, [r0, #-20]
 84c:	0008ee00 	andeq	lr, r8, r0, lsl #28
 850:	00040000 	andeq	r0, r4, r0
 854:	60010500 	andvs	r0, r1, r0, lsl #10
 858:	05000018 	streq	r0, [r0, #-24]
 85c:	000f9e02 	andeq	r9, pc, r2, lsl #28
 860:	a9040500 	stmdbge	r4, {r8, sl}
 864:	05000008 	streq	r0, [r0, #-8]
 868:	00128d05 	andseq	r8, r2, r5, lsl #26
 86c:	70060500 	andvc	r0, r6, r0, lsl #10
 870:	05000022 	streq	r0, [r0, #-34]	; 0x22
 874:	00137e07 	andseq	r7, r3, r7, lsl #28
 878:	f8080500 			; <UNDEFINED> instruction: 0xf8080500
 87c:	0500000c 	streq	r0, [r0, #-12]
 880:	0007fb0a 	andeq	pc, r7, sl, lsl #22
 884:	560b0500 	strpl	r0, [fp], -r0, lsl #10
 888:	05000021 	streq	r0, [r0, #-33]	; 0x21
 88c:	001b860c 	andseq	r8, fp, ip, lsl #12
 890:	4d0d0500 	cfstr32mi	mvfx0, [sp, #-0]
 894:	0500001a 	streq	r0, [r0, #-26]
 898:	00168d0e 	andseq	r8, r6, lr, lsl #26
 89c:	500f0500 	andpl	r0, pc, r0, lsl #10
 8a0:	05000007 	streq	r0, [r0, #-7]
 8a4:	00104510 	andseq	r4, r0, r0, lsl r5
 8a8:	f3110500 	vrshl.u16	d0, d0, d1
 8ac:	05000020 	streq	r0, [r0, #-32]
 8b0:	001dcd12 	andseq	ip, sp, r2, lsl sp
 8b4:	a4130500 	ldrge	r0, [r3], #-1280	; 0x500
 8b8:	05000005 	streq	r0, [r0, #-5]
 8bc:	0003ca14 	andeq	ip, r3, r4, lsl sl
 8c0:	32150500 	andscc	r0, r5, #0, 10
 8c4:	0000001a 	andeq	r0, r0, sl, lsl r0
 8c8:	84020004 	strhi	r0, [r2], #-4
 8cc:	07000001 	streq	r0, [r0, -r1]
 8d0:	0000008c 	andeq	r0, r0, ip, lsl #1
 8d4:	03010003 	movweq	r0, #4099	; 0x1003
 8d8:	03040612 	movweq	r0, #17938	; 0x4612
 8dc:	52070413 	andpl	r0, r7, #318767104	; 0x13000000
 8e0:	04000008 	streq	r0, [r0], #-8
 8e4:	04031403 	streq	r1, [r3], #-1027	; 0x403
 8e8:	04071503 	streq	r1, [r7], #-1283	; 0x503
 8ec:	04051603 	streq	r1, [r5], #-1539	; 0x603
 8f0:	04021703 	streq	r1, [r2], #-1795	; 0x703
 8f4:	235d1805 	cmpcs	sp, #327680	; 0x50000
 8f8:	1a050000 	bne	140900 <multiplylookup+0x137230>
 8fc:	00002478 	andeq	r2, r0, r8, ror r4
 900:	23c81c05 	biccs	r1, r8, #1280	; 0x500
 904:	1d050000 	stcne	0, cr0, [r5, #-0]
 908:	000023e7 	andeq	r2, r0, r7, ror #7
 90c:	23a71f05 			; <UNDEFINED> instruction: 0x23a71f05
 910:	20050000 	andcs	r0, r5, r0
 914:	0000237d 	andeq	r2, r0, sp, ror r3
 918:	240a2105 	strcs	r2, [sl], #-261	; 0x105
 91c:	00040000 	andeq	r0, r4, r0
 920:	4a020004 	bmi	80938 <multiplylookup+0x77268>
 924:	07000003 	streq	r0, [r0, -r3]
 928:	0000008c 	andeq	r0, r0, ip, lsl #1
 92c:	03010003 	movweq	r0, #4099	; 0x1003
 930:	52070201 	andpl	r0, r7, #268435456	; 0x10000000
 934:	04000008 	streq	r0, [r0], #-8
 938:	04030203 	streq	r0, [r3], #-515	; 0x203
 93c:	00040004 	andeq	r0, r4, r4
 940:	0003f402 	andeq	pc, r3, r2, lsl #8
 944:	008c0700 	addeq	r0, ip, r0, lsl #14
 948:	00030000 	andeq	r0, r3, r0
 94c:	04010301 	streq	r0, [r1], #-769	; 0x301
 950:	03020304 	movweq	r0, #8964	; 0x2304
 954:	02030304 	andeq	r0, r3, #4, 6	; 0x10000000
 958:	Address 0x0000000000000958 is out of bounds.


Disassembly of section .debug_str:

00000000 <.debug_str>:
       0:	4c555f5f 	mrrcmi	15, 5, r5, r5, cr15	; <UNPREDICTABLE>
       4:	55434341 	strbpl	r4, [r3, #-833]	; 0x341
       8:	42465f4d 	submi	r5, r6, #308	; 0x134
       c:	5f5f5449 	svcpl	0x005f5449
      10:	00323320 	eorseq	r3, r2, r0, lsr #6
      14:	51485f5f 	cmppl	r8, pc, asr pc
      18:	4942465f 	stmdbmi	r2, {r0, r1, r2, r3, r4, r6, r9, sl, lr}^
      1c:	205f5f54 	subscs	r5, pc, r4, asr pc	; <UNPREDICTABLE>
      20:	2f003531 	svccs	0x00003531
      24:	72657355 	rsbvc	r7, r5, #1409286145	; 0x54000001
      28:	6e6d2f73 	mcrvs	15, 3, r2, cr13, cr3, {3}
      2c:	6e616c6f 	cdpvs	12, 6, cr6, cr1, cr15, {3}
      30:	7469672f 	strbtvc	r6, [r9], #-1839	; 0x72f
      34:	7361722f 	cmnvc	r1, #-268435454	; 0xf0000002
      38:	72656270 	rsbvc	r6, r5, #112, 4
      3c:	69707972 	ldmdbvs	r0!, {r1, r4, r5, r6, r8, fp, ip, sp, lr}^
      40:	6469762f 	strbtvs	r7, [r9], #-1583	; 0x62f
      44:	31306f65 	teqcc	r0, r5, ror #30
      48:	495f5f00 	ldmdbmi	pc, {r8, r9, sl, fp, ip, lr}^	; <UNPREDICTABLE>
      4c:	3436544e 	ldrtcc	r5, [r6], #-1102	; 0x44e
      50:	58414d5f 	stmdapl	r1, {r0, r1, r2, r3, r4, r6, r8, sl, fp, lr}^
      54:	39205f5f 	stmdbcc	r0!, {r0, r1, r2, r3, r4, r6, r8, r9, sl, fp, ip, lr}
      58:	33333232 	teqcc	r3, #536870915	; 0x20000003
      5c:	33303237 	teqcc	r0, #1879048195	; 0x70000003
      60:	34353836 	ldrtcc	r3, [r5], #-2102	; 0x836
      64:	38353737 	ldmdacc	r5!, {r0, r1, r2, r4, r5, r8, r9, sl, ip, sp}
      68:	4c4c3730 	mcrrmi	7, 3, r3, ip, cr0
      6c:	495f5f00 	ldmdbmi	pc, {r8, r9, sl, fp, ip, lr}^	; <UNPREDICTABLE>
      70:	3631544e 	ldrtcc	r5, [r1], -lr, asr #8
      74:	6328435f 	teqvs	r8, #2080374785	; 0x7c000001
      78:	00632029 	rsbeq	r2, r3, r9, lsr #32
      7c:	48555f5f 	ldmdami	r5, {r0, r1, r2, r3, r4, r6, r8, r9, sl, fp, ip, lr}^
      80:	42495f51 	submi	r5, r9, #324	; 0x144
      84:	5f5f5449 	svcpl	0x005f5449
      88:	5f003020 	svcpl	0x00003020
      8c:	4e49555f 	mcrmi	5, 2, r5, cr9, cr15, {2}
      90:	5f343654 	svcpl	0x00343654
      94:	29632843 	stmdbcs	r3!, {r0, r1, r6, fp, sp}^
      98:	23206320 	teqcs	r0, #32, 6	; 0x80000000
      9c:	4c552023 	mrrcmi	0, 2, r2, r5, cr3
      a0:	5f5f004c 	svcpl	0x005f004c
      a4:	455a4953 	ldrbmi	r4, [sl, #-2387]	; 0x953
      a8:	535f464f 	cmppl	pc, #82837504	; 0x4f00000
      ac:	5f455a49 	svcpl	0x00455a49
      b0:	205f5f54 	subscs	r5, pc, r4, asr pc	; <UNPREDICTABLE>
      b4:	5f5f0034 	svcpl	0x005f0034
      b8:	544e4955 	strbpl	r4, [lr], #-2389	; 0x955
      bc:	5f58414d 	svcpl	0x0058414d
      c0:	45505954 	ldrbmi	r5, [r0, #-2388]	; 0x954
      c4:	6c205f5f 	stcvs	15, cr5, [r0], #-380	; 0xfffffe84
      c8:	20676e6f 	rsbcs	r6, r7, pc, ror #28
      cc:	676e6f6c 	strbvs	r6, [lr, -ip, ror #30]!
      d0:	736e7520 	cmnvc	lr, #32, 10	; 0x8000000
      d4:	656e6769 	strbvs	r6, [lr, #-1897]!	; 0x769
      d8:	6e692064 	cdpvs	0, 6, cr2, cr9, cr4, {3}
      dc:	61750074 	cmnvs	r5, r4, ror r0
      e0:	665f7472 			; <UNDEFINED> instruction: 0x665f7472
      e4:	6873756c 	ldmdavs	r3!, {r2, r3, r5, r6, r8, sl, ip, sp, lr}^
      e8:	475f5f00 	ldrbmi	r5, [pc, -r0, lsl #30]
      ec:	415f4343 	cmpmi	pc, r3, asr #6
      f0:	494d4f54 	stmdbmi	sp, {r2, r4, r6, r8, r9, sl, fp, lr}^
      f4:	4f4c5f43 	svcmi	0x004c5f43
      f8:	4c5f474e 	mrrcmi	7, 4, r4, pc, cr14	; <UNPREDICTABLE>
      fc:	5f4b434f 	svcpl	0x004b434f
     100:	45455246 	strbmi	r5, [r5, #-582]	; 0x246
     104:	5f003120 	svcpl	0x00003120
     108:	4c4c555f 	cfstr64mi	mvdx5, [ip], {95}	; 0x5f
     10c:	55434341 	strbpl	r4, [r3, #-833]	; 0x341
     110:	42465f4d 	submi	r5, r6, #308	; 0x134
     114:	5f5f5449 	svcpl	0x005f5449
     118:	00323320 	eorseq	r3, r2, r0, lsr #6
     11c:	4e495f5f 	mcrmi	15, 2, r5, cr9, cr15, {2}
     120:	454c5f54 	strbmi	r5, [ip, #-3924]	; 0xf54
     124:	36545341 	ldrbcc	r5, [r4], -r1, asr #6
     128:	414d5f34 	cmpmi	sp, r4, lsr pc
     12c:	205f5f58 	subscs	r5, pc, r8, asr pc	; <UNPREDICTABLE>
     130:	33323239 	teqcc	r2, #-1879048189	; 0x90000003
     134:	30323733 	eorscc	r3, r2, r3, lsr r7
     138:	35383633 	ldrcc	r3, [r8, #-1587]!	; 0x633
     13c:	35373734 	ldrcc	r3, [r7, #-1844]!	; 0x734
     140:	4c373038 	ldcmi	0, cr3, [r7], #-224	; 0xffffff20
     144:	5f5f004c 	svcpl	0x005f004c
     148:	455a4953 	ldrbmi	r4, [sl, #-2387]	; 0x953
     14c:	505f464f 	subspl	r4, pc, pc, asr #12
     150:	544e494f 	strbpl	r4, [lr], #-2383	; 0x94f
     154:	5f5f5245 	svcpl	0x005f5245
     158:	5f003420 	svcpl	0x00003420
     15c:	544e495f 	strbpl	r4, [lr], #-2399	; 0x95f
     160:	5341465f 	movtpl	r4, #5727	; 0x165f
     164:	4d5f3854 	ldclmi	8, cr3, [pc, #-336]	; 1c <_start-0x7fe4>
     168:	5f5f5841 	svcpl	0x005f5841
     16c:	34313220 	ldrtcc	r3, [r1], #-544	; 0x220
     170:	33383437 	teqcc	r8, #922746880	; 0x37000000
     174:	00373436 	eorseq	r3, r7, r6, lsr r4
     178:	41535f5f 	cmpmi	r3, pc, asr pc
     17c:	4942495f 	stmdbmi	r2, {r0, r1, r2, r3, r4, r6, r8, fp, lr}^
     180:	205f5f54 	subscs	r5, pc, r4, asr pc	; <UNPREDICTABLE>
     184:	5f003631 	svcpl	0x00003631
     188:	4e49555f 	mcrmi	5, 2, r5, cr9, cr15, {2}
     18c:	4d5f3854 	ldclmi	8, cr3, [pc, #-336]	; 44 <_start-0x7fbc>
     190:	5f5f5841 	svcpl	0x005f5841
     194:	35353220 	ldrcc	r3, [r5, #-544]!	; 0x220
     198:	445f5f00 	ldrbmi	r5, [pc], #-3840	; 1a0 <_start-0x7e60>
     19c:	4d5f4c42 	ldclmi	12, cr4, [pc, #-264]	; 9c <_start-0x7f64>
     1a0:	5f5f5841 	svcpl	0x005f5841
     1a4:	64282820 	strtvs	r2, [r8], #-2080	; 0x820
     1a8:	6c62756f 	cfstr64vs	mvdx7, [r2], #-444	; 0xfffffe44
     1ac:	2e312965 	cdpcs	9, 3, cr2, cr1, cr5, {3}
     1b0:	36373937 			; <UNDEFINED> instruction: 0x36373937
     1b4:	33313339 	teqcc	r1, #-469762048	; 0xe4000000
     1b8:	32363834 	eorscc	r3, r6, #52, 16	; 0x340000
     1bc:	37353133 			; <UNDEFINED> instruction: 0x37353133
     1c0:	30332b65 	eorscc	r2, r3, r5, ror #22
     1c4:	00294c38 	eoreq	r4, r9, r8, lsr ip
     1c8:	45445f5f 	strbmi	r5, [r4, #-3935]	; 0xf5f
     1cc:	5f343643 	svcpl	0x00343643
     1d0:	544e414d 	strbpl	r4, [lr], #-333	; 0x14d
     1d4:	4749445f 	smlsldmi	r4, r9, pc, r4	; <UNPREDICTABLE>
     1d8:	31205f5f 	teqcc	r0, pc, asr pc
     1dc:	5f5f0036 	svcpl	0x005f0036
     1e0:	544e4955 	strbpl	r4, [lr], #-2389	; 0x955
     1e4:	41454c5f 	cmpmi	r5, pc, asr ip
     1e8:	5f385453 	svcpl	0x00385453
     1ec:	5f58414d 	svcpl	0x0058414d
     1f0:	3532205f 	ldrcc	r2, [r2, #-95]!	; 0x5f
     1f4:	5f5f0035 	svcpl	0x005f0035
     1f8:	544e4955 	strbpl	r4, [lr], #-2389	; 0x955
     1fc:	5f58414d 	svcpl	0x0058414d
     200:	29632843 	stmdbcs	r3!, {r0, r1, r6, fp, sp}^
     204:	23206320 	teqcs	r0, #32, 6	; 0x80000000
     208:	4c552023 	mrrcmi	0, 2, r2, r5, cr3
     20c:	5f5f004c 	svcpl	0x005f004c
     210:	33434544 	movtcc	r4, #13636	; 0x3544
     214:	494d5f32 	stmdbmi	sp, {r1, r4, r5, r8, r9, sl, fp, ip, lr}^
     218:	205f5f4e 	subscs	r5, pc, lr, asr #30
     21c:	392d4531 	pushcc	{r0, r4, r5, r8, sl, lr}
     220:	00464435 	subeq	r4, r6, r5, lsr r4
     224:	49555f5f 	ldmdbmi	r5, {r0, r1, r2, r3, r4, r6, r8, r9, sl, fp, ip, lr}^
     228:	3436544e 	ldrtcc	r5, [r6], #-1102	; 0x44e
     22c:	5059545f 	subspl	r5, r9, pc, asr r4
     230:	205f5f45 	subscs	r5, pc, r5, asr #30
     234:	676e6f6c 	strbvs	r6, [lr, -ip, ror #30]!
     238:	6e6f6c20 	cdpvs	12, 6, cr6, cr15, cr0, {1}
     23c:	6e752067 	cdpvs	0, 7, cr2, cr5, cr7, {3}
     240:	6e676973 	mcrvs	9, 3, r6, cr7, cr3, {3}
     244:	69206465 	stmdbvs	r0!, {r0, r2, r5, r6, sl, sp, lr}
     248:	5f00746e 	svcpl	0x0000746e
     24c:	4653555f 			; <UNDEFINED> instruction: 0x4653555f
     250:	54434152 	strbpl	r4, [r3], #-338	; 0x152
     254:	5350455f 	cmppl	r0, #398458880	; 0x17c00000
     258:	4e4f4c49 	cdpmi	12, 4, cr4, cr15, cr9, {2}
     25c:	30205f5f 	eorcc	r5, r0, pc, asr pc
     260:	2d503178 	ldfcse	f3, [r0, #-480]	; 0xfffffe20
     264:	52485538 	subpl	r5, r8, #56, 10	; 0xe000000
     268:	555f5f00 	ldrbpl	r5, [pc, #-3840]	; fffff370 <multiplylookup+0xffff5ca0>
     26c:	52464c4c 	subpl	r4, r6, #76, 24	; 0x4c00
     270:	5f544341 	svcpl	0x00544341
     274:	5f4e494d 	svcpl	0x004e494d
     278:	2e30205f 	mrccs	0, 1, r2, cr0, cr15, {2}
     27c:	4c4c5530 	cfstr64mi	mvdx5, [ip], {48}	; 0x30
     280:	5f5f0052 	svcpl	0x005f0052
     284:	414c4c55 	cmpmi	ip, r5, asr ip
     288:	4d554343 	ldclmi	3, cr4, [r5, #-268]	; 0xfffffef4
     28c:	5350455f 	cmppl	r0, #398458880	; 0x17c00000
     290:	4e4f4c49 	cdpmi	12, 4, cr4, cr15, cr9, {2}
     294:	30205f5f 	eorcc	r5, r0, pc, asr pc
     298:	2d503178 	ldfcse	f3, [r0, #-480]	; 0xfffffe20
     29c:	4c553233 	lfmmi	f3, 2, [r5], {51}	; 0x33
     2a0:	5f004b4c 	svcpl	0x00004b4c
     2a4:	4343475f 	movtmi	r4, #14175	; 0x375f
     2a8:	4f54415f 	svcmi	0x0054415f
     2ac:	5f43494d 	svcpl	0x0043494d
     2b0:	54534554 	ldrbpl	r4, [r3], #-1364	; 0x554
     2b4:	444e415f 	strbmi	r4, [lr], #-351	; 0x15f
     2b8:	5445535f 	strbpl	r5, [r5], #-863	; 0x35f
     2bc:	5552545f 	ldrbpl	r5, [r2, #-1119]	; 0x45f
     2c0:	4c415645 	mcrrmi	6, 4, r5, r1, cr5
     2c4:	5f003120 	svcpl	0x00003120
     2c8:	414c555f 	cmpmi	ip, pc, asr r5
     2cc:	4d554343 	ldclmi	3, cr4, [r5, #-268]	; 0xfffffef4
     2d0:	58414d5f 	stmdapl	r1, {r0, r1, r2, r3, r4, r6, r8, sl, fp, lr}^
     2d4:	30205f5f 	eorcc	r5, r0, pc, asr pc
     2d8:	46464658 			; <UNDEFINED> instruction: 0x46464658
     2dc:	46464646 	strbmi	r4, [r6], -r6, asr #12
     2e0:	46464646 	strbmi	r4, [r6], -r6, asr #12
     2e4:	46464646 	strbmi	r4, [r6], -r6, asr #12
     2e8:	332d5046 	teqcc	sp, #70	; 0x46
     2ec:	4b4c5532 	blmi	13157bc <multiplylookup+0x130c0ec>
     2f0:	415f5f00 	cmpmi	pc, r0, lsl #30
     2f4:	505f4d52 	subspl	r4, pc, r2, asr sp	; <UNPREDICTABLE>
     2f8:	31205343 	teqcc	r0, r3, asr #6
     2fc:	72617500 	rsbvc	r7, r1, #0, 10
     300:	6e695f74 	mcrvs	15, 3, r5, cr9, cr4, {3}
     304:	5f007469 	svcpl	0x00007469
     308:	5046565f 	subpl	r5, r6, pc, asr r6
     30c:	5f50465f 	svcpl	0x0050465f
     310:	0031205f 	eorseq	r2, r1, pc, asr r0
     314:	43415f5f 	movtmi	r5, #8031	; 0x1f5f
     318:	5f4d5543 	svcpl	0x004d5543
     31c:	5f58414d 	svcpl	0x0058414d
     320:	5830205f 	ldmdapl	r0!, {r0, r1, r2, r3, r4, r6, sp}
     324:	46464637 			; <UNDEFINED> instruction: 0x46464637
     328:	46464646 	strbmi	r4, [r6], -r6, asr #12
     32c:	35312d50 	ldrcc	r2, [r1, #-3408]!	; 0xd50
     330:	5f5f004b 	svcpl	0x005f004b
     334:	43434153 	movtmi	r4, #12627	; 0x3153
     338:	455f4d55 	ldrbmi	r4, [pc, #-3413]	; fffff5eb <multiplylookup+0xffff5f1b>
     33c:	4c495350 	mcrrmi	3, 5, r5, r9, cr0
     340:	5f5f4e4f 	svcpl	0x005f4e4f
     344:	31783020 	cmncc	r8, r0, lsr #32
     348:	48372d50 	ldmdami	r7!, {r4, r6, r8, sl, fp, sp}
     34c:	5f5f004b 	svcpl	0x005f004b
     350:	4d554854 	ldclmi	8, cr4, [r5, #-336]	; 0xfffffeb0
     354:	4e495f42 	cdpmi	15, 4, cr5, cr9, cr2, {2}
     358:	57524554 			; <UNDEFINED> instruction: 0x57524554
     35c:	5f4b524f 	svcpl	0x004b524f
     360:	0031205f 	eorseq	r2, r1, pc, asr r0
     364:	33544547 	cmpcc	r4, #297795584	; 0x11c00000
     368:	5f5f0032 	svcpl	0x005f0032
     36c:	41524653 	cmpmi	r2, r3, asr r6
     370:	455f5443 	ldrbmi	r5, [pc, #-1091]	; ffffff35 <multiplylookup+0xffff6865>
     374:	4c495350 	mcrrmi	3, 5, r5, r9, cr0
     378:	5f5f4e4f 	svcpl	0x005f4e4f
     37c:	31783020 	cmncc	r8, r0, lsr #32
     380:	48372d50 	ldmdami	r7!, {r4, r6, r8, sl, fp, sp}
     384:	5f5f0052 	svcpl	0x005f0052
     388:	52414843 	subpl	r4, r1, #4390912	; 0x430000
     38c:	545f3233 	ldrbpl	r3, [pc], #-563	; 394 <_start-0x7c6c>
     390:	5f455059 	svcpl	0x00455059
     394:	6f6c205f 	svcvs	0x006c205f
     398:	7520676e 	strvc	r6, [r0, #-1902]!	; 0x76e
     39c:	6769736e 	strbvs	r7, [r9, -lr, ror #6]!
     3a0:	2064656e 	rsbcs	r6, r4, lr, ror #10
     3a4:	00746e69 	rsbseq	r6, r4, r9, ror #28
     3a8:	4e475f5f 	mcrmi	15, 2, r5, cr7, cr15, {2}
     3ac:	5f5f4355 	svcpl	0x005f4355
     3b0:	5f003420 	svcpl	0x00003420
     3b4:	4c42445f 	cfstrdmi	mvd4, [r2], {95}	; 0x5f
     3b8:	5341485f 	movtpl	r4, #6239	; 0x185f
     3bc:	464e495f 			; <UNDEFINED> instruction: 0x464e495f
     3c0:	54494e49 	strbpl	r4, [r9], #-3657	; 0xe49
     3c4:	205f5f59 	subscs	r5, pc, r9, asr pc	; <UNPREDICTABLE>
     3c8:	55410031 	strbpl	r0, [r1, #-49]	; 0x31
     3cc:	554d5f58 	strbpl	r5, [sp, #-3928]	; 0xf58
     3d0:	4154535f 	cmpmi	r4, pc, asr r3
     3d4:	45525f54 	ldrbmi	r5, [r2, #-3924]	; 0xf54
     3d8:	78302047 	ldmdavc	r0!, {r0, r1, r2, r6, sp}
     3dc:	31323032 	teqcc	r2, r2, lsr r0
     3e0:	34363035 	ldrtcc	r3, [r6], #-53	; 0x35
     3e4:	415f5f00 	cmpmi	pc, r0, lsl #30
     3e8:	4d554343 	ldclmi	3, cr4, [r5, #-268]	; 0xfffffef4
     3ec:	4942465f 	stmdbmi	r2, {r0, r1, r2, r3, r4, r6, r9, sl, lr}^
     3f0:	205f5f54 	subscs	r5, pc, r4, asr pc	; <UNPREDICTABLE>
     3f4:	5f003531 	svcpl	0x00003531
     3f8:	4c42445f 	cfstrdmi	mvd4, [r2], {95}	; 0x5f
     3fc:	5341485f 	movtpl	r4, #6239	; 0x185f
     400:	4955515f 	ldmdbmi	r5, {r0, r1, r2, r3, r4, r6, r8, ip, lr}^
     404:	4e5f5445 	cdpmi	4, 5, cr5, cr15, cr5, {2}
     408:	5f5f4e41 	svcpl	0x005f4e41
     40c:	5f003120 	svcpl	0x00003120
     410:	4144555f 	cmpmi	r4, pc, asr r5
     414:	4942495f 	stmdbmi	r2, {r0, r1, r2, r3, r4, r6, r8, fp, lr}^
     418:	205f5f54 	subscs	r5, pc, r4, asr pc	; <UNPREDICTABLE>
     41c:	5f003233 	svcpl	0x00003233
     420:	43414c5f 	movtmi	r4, #7263	; 0x1c5f
     424:	5f4d5543 	svcpl	0x004d5543
     428:	54494249 	strbpl	r4, [r9], #-585	; 0x249
     42c:	33205f5f 	teqcc	r0, #380	; 0x17c
     430:	5f5f0032 	svcpl	0x005f0032
     434:	5f544e49 	svcpl	0x00544e49
     438:	5f58414d 	svcpl	0x0058414d
     43c:	3132205f 	teqcc	r2, pc, asr r0
     440:	38343734 	ldmdacc	r4!, {r2, r4, r5, r8, r9, sl, ip, sp}
     444:	37343633 			; <UNDEFINED> instruction: 0x37343633
     448:	575f5f00 	ldrbpl	r5, [pc, -r0, lsl #30]
     44c:	5f544e49 	svcpl	0x00544e49
     450:	5f4e494d 	svcpl	0x004e494d
     454:	5530205f 	ldrpl	r2, [r0, #-95]!	; 0x5f
     458:	445f5f00 	ldrbmi	r5, [pc], #-3840	; 460 <_start-0x7ba0>
     45c:	4d494345 	stclmi	3, cr4, [r9, #-276]	; 0xfffffeec
     460:	445f4c41 	ldrbmi	r4, [pc], #-3137	; 468 <_start-0x7b98>
     464:	5f5f4749 	svcpl	0x005f4749
     468:	00373120 	eorseq	r3, r7, r0, lsr #2
     46c:	53555f5f 	cmppl	r5, #380	; 0x17c
     470:	43415246 	movtmi	r5, #4678	; 0x1246
     474:	42465f54 	submi	r5, r6, #84, 30	; 0x150
     478:	5f5f5449 	svcpl	0x005f5449
     47c:	5f003820 	svcpl	0x00003820
     480:	4e49555f 	mcrmi	5, 2, r5, cr9, cr15, {2}
     484:	41465f54 	cmpmi	r6, r4, asr pc
     488:	32335453 	eorscc	r5, r3, #1392508928	; 0x53000000
     48c:	58414d5f 	stmdapl	r1, {r0, r1, r2, r3, r4, r6, r8, sl, fp, lr}^
     490:	34205f5f 	strtcc	r5, [r0], #-3935	; 0xf5f
     494:	39343932 	ldmdbcc	r4!, {r1, r4, r5, r8, fp, ip, sp}
     498:	39323736 	ldmdbcc	r2!, {r1, r2, r4, r5, r8, r9, sl, ip, sp}
     49c:	5f005535 	svcpl	0x00005535
     4a0:	42444c5f 	submi	r4, r4, #24320	; 0x5f00
     4a4:	414d5f4c 	cmpmi	sp, ip, asr #30
     4a8:	205f5f58 	subscs	r5, pc, r8, asr pc	; <UNPREDICTABLE>
     4ac:	39372e31 	ldmdbcc	r7!, {r0, r4, r5, r9, sl, fp, sp}
     4b0:	33393637 	teqcc	r9, #57671680	; 0x3700000
     4b4:	38343331 	ldmdacc	r4!, {r0, r4, r5, r8, r9, ip, sp}
     4b8:	31333236 	teqcc	r3, r6, lsr r2
     4bc:	2b653735 	blcs	194e198 <multiplylookup+0x1944ac8>
     4c0:	4c383033 	ldcmi	0, cr3, [r8], #-204	; 0xffffff34
     4c4:	4c5f5f00 	mrrcmi	15, 0, r5, pc, cr0	; <UNPREDICTABLE>
     4c8:	5f4c4244 	svcpl	0x004c4244
     4cc:	544e414d 	strbpl	r4, [lr], #-333	; 0x14d
     4d0:	4749445f 	smlsldmi	r4, r9, pc, r4	; <UNPREDICTABLE>
     4d4:	35205f5f 	strcc	r5, [r0, #-3935]!	; 0xf5f
     4d8:	5f5f0033 	svcpl	0x005f0033
     4dc:	41524653 	cmpmi	r2, r3, asr r6
     4e0:	495f5443 	ldmdbmi	pc, {r0, r1, r6, sl, ip, lr}^	; <UNPREDICTABLE>
     4e4:	5f544942 	svcpl	0x00544942
     4e8:	0030205f 	eorseq	r2, r0, pc, asr r0
     4ec:	49535f5f 	ldmdbmi	r3, {r0, r1, r2, r3, r4, r6, r8, r9, sl, fp, ip, lr}^
     4f0:	545f455a 	ldrbpl	r4, [pc], #-1370	; 4f8 <_start-0x7b08>
     4f4:	5f455059 	svcpl	0x00455059
     4f8:	6e75205f 	mrcvs	0, 3, r2, cr5, cr15, {2}
     4fc:	6e676973 	mcrvs	9, 3, r6, cr7, cr3, {3}
     500:	69206465 	stmdbvs	r0!, {r0, r2, r5, r6, sl, sp, lr}
     504:	5f00746e 	svcpl	0x0000746e
     508:	52464c5f 	subpl	r4, r6, #24320	; 0x5f00
     50c:	5f544341 	svcpl	0x00544341
     510:	5f58414d 	svcpl	0x0058414d
     514:	5830205f 	ldmdapl	r0!, {r0, r1, r2, r3, r4, r6, sp}
     518:	46464637 			; <UNDEFINED> instruction: 0x46464637
     51c:	46464646 	strbmi	r4, [r6], -r6, asr #12
     520:	31332d50 	teqcc	r3, r0, asr sp
     524:	5f00524c 	svcpl	0x0000524c
     528:	4345445f 	movtmi	r4, #21599	; 0x545f
     52c:	535f3436 	cmppl	pc, #905969664	; 0x36000000
     530:	4f4e4255 	svcmi	0x004e4255
     534:	4c414d52 	mcrrmi	13, 5, r4, r1, cr2
     538:	4e494d5f 	mcrmi	13, 2, r4, cr9, cr15, {2}
     53c:	30205f5f 	eorcc	r5, r0, pc, asr pc
     540:	3030302e 	eorscc	r3, r0, lr, lsr #32
     544:	30303030 	eorscc	r3, r0, r0, lsr r0
     548:	30303030 	eorscc	r3, r0, r0, lsr r0
     54c:	31303030 	teqcc	r0, r0, lsr r0
     550:	38332d45 	ldmdacc	r3!, {r0, r2, r6, r8, sl, fp, sp}
     554:	00444433 	subeq	r4, r4, r3, lsr r4
     558:	4c465f5f 	mcrrmi	15, 5, r5, r6, cr15
     55c:	494d5f54 	stmdbmi	sp, {r2, r4, r6, r8, r9, sl, fp, ip, lr}^
     560:	205f5f4e 	subscs	r5, pc, lr, asr #30
     564:	37312e31 			; <UNDEFINED> instruction: 0x37312e31
     568:	34393435 	ldrtcc	r3, [r9], #-1077	; 0x435
     56c:	38303533 	ldmdacc	r0!, {r0, r1, r4, r5, r8, sl, ip, sp}
     570:	38323232 	ldmdacc	r2!, {r1, r4, r5, r9, ip, sp}
     574:	2d653537 	cfstr64cs	mvdx3, [r5, #-220]!	; 0xffffff24
     578:	00463833 	subeq	r3, r6, r3, lsr r8
     57c:	42445f5f 	submi	r5, r4, #380	; 0x17c
     580:	414d5f4c 	cmpmi	sp, ip, asr #30
     584:	445f544e 	ldrbmi	r5, [pc], #-1102	; 58c <_start-0x7a74>
     588:	5f5f4749 	svcpl	0x005f4749
     58c:	00333520 	eorseq	r3, r3, r0, lsr #10
     590:	4c555f5f 	mrrcmi	15, 5, r5, r5, cr15	; <UNPREDICTABLE>
     594:	4152464c 	cmpmi	r2, ip, asr #12
     598:	495f5443 	ldmdbmi	pc, {r0, r1, r6, sl, ip, lr}^	; <UNPREDICTABLE>
     59c:	5f544942 	svcpl	0x00544942
     5a0:	0030205f 	eorseq	r2, r0, pc, asr r0
     5a4:	5f585541 	svcpl	0x00585541
     5a8:	435f554d 	cmpmi	pc, #322961408	; 0x13400000
     5ac:	5f4c544e 	svcpl	0x004c544e
     5b0:	20474552 	subcs	r4, r7, r2, asr r5
     5b4:	30327830 	eorscc	r7, r2, r0, lsr r8
     5b8:	30353132 	eorscc	r3, r5, r2, lsr r1
     5bc:	5f003036 	svcpl	0x00003036
     5c0:	4e49555f 	mcrmi	5, 2, r5, cr9, cr15, {2}
     5c4:	454c5f54 	strbmi	r5, [ip, #-3924]	; 0xf54
     5c8:	36545341 	ldrbcc	r5, [r4], -r1, asr #6
     5cc:	59545f34 	ldmdbpl	r4, {r2, r4, r5, r8, r9, sl, fp, ip, lr}^
     5d0:	5f5f4550 	svcpl	0x005f4550
     5d4:	6e6f6c20 	cdpvs	12, 6, cr6, cr15, cr0, {1}
     5d8:	6f6c2067 	svcvs	0x006c2067
     5dc:	7520676e 	strvc	r6, [r0, #-1902]!	; 0x76e
     5e0:	6769736e 	strbvs	r7, [r9, -lr, ror #6]!
     5e4:	2064656e 	rsbcs	r6, r4, lr, ror #10
     5e8:	00746e69 	rsbseq	r6, r4, r9, ror #28
     5ec:	4c555f5f 	mrrcmi	15, 5, r5, r5, cr15	; <UNPREDICTABLE>
     5f0:	43415246 	movtmi	r5, #4678	; 0x1246
     5f4:	494d5f54 	stmdbmi	sp, {r2, r4, r6, r8, r9, sl, fp, ip, lr}^
     5f8:	205f5f4e 	subscs	r5, pc, lr, asr #30
     5fc:	55302e30 	ldrpl	r2, [r0, #-3632]!	; 0xe30
     600:	5f00524c 	svcpl	0x0000524c
     604:	544e495f 	strbpl	r4, [lr], #-2399	; 0x95f
     608:	5f525450 	svcpl	0x00525450
     60c:	45505954 	ldrbmi	r5, [r0, #-2388]	; 0x954
     610:	69205f5f 	stmdbvs	r0!, {r0, r1, r2, r3, r4, r6, r8, r9, sl, fp, ip, lr}
     614:	5f00746e 	svcpl	0x0000746e
     618:	42444c5f 	submi	r4, r4, #24320	; 0x5f00
     61c:	494d5f4c 	stmdbmi	sp, {r2, r3, r6, r8, r9, sl, fp, ip, lr}^
     620:	205f5f4e 	subscs	r5, pc, lr, asr #30
     624:	32322e32 	eorscc	r2, r2, #800	; 0x320
     628:	33373035 	teqcc	r7, #53	; 0x35
     62c:	35383538 	ldrcc	r3, [r8, #-1336]!	; 0x538
     630:	30323730 	eorscc	r3, r2, r0, lsr r7
     634:	2d653431 	cfstrdcs	mvd3, [r5, #-196]!	; 0xffffff3c
     638:	4c383033 	ldcmi	0, cr3, [r8], #-204	; 0xffffff34
     63c:	555f5f00 	ldrbpl	r5, [pc, #-3840]	; fffff744 <multiplylookup+0xffff6074>
     640:	4152464c 	cmpmi	r2, ip, asr #12
     644:	465f5443 	ldrbmi	r5, [pc], -r3, asr #8
     648:	5f544942 	svcpl	0x00544942
     64c:	3233205f 	eorscc	r2, r3, #95	; 0x5f
     650:	555f5f00 	ldrbpl	r5, [pc, #-3840]	; fffff758 <multiplylookup+0xffff6088>
     654:	38544e49 	ldmdacc	r4, {r0, r3, r6, r9, sl, fp, lr}^
     658:	5059545f 	subspl	r5, r9, pc, asr r4
     65c:	205f5f45 	subscs	r5, pc, r5, asr #30
     660:	69736e75 	ldmdbvs	r3!, {r0, r2, r4, r5, r6, r9, sl, fp, sp, lr}^
     664:	64656e67 	strbtvs	r6, [r5], #-3687	; 0xe67
     668:	61686320 	cmnvs	r8, r0, lsr #6
     66c:	5f5f0072 	svcpl	0x005f0072
     670:	4c42444c 	cfstrdmi	mvd4, [r2], {76}	; 0x4c
     674:	4e494d5f 	mcrmi	13, 2, r4, cr9, cr15, {2}
     678:	5f30315f 	svcpl	0x0030315f
     67c:	5f505845 	svcpl	0x00505845
     680:	2d28205f 	stccs	0, cr2, [r8, #-380]!	; 0xfffffe84
     684:	29373033 	ldmdbcs	r7!, {r0, r1, r4, r5, ip, sp}
     688:	4c5f5f00 	mrrcmi	15, 0, r5, pc, cr0	; <UNPREDICTABLE>
     68c:	5f4c4244 	svcpl	0x004c4244
     690:	5f58414d 	svcpl	0x0058414d
     694:	5f505845 	svcpl	0x00505845
     698:	3031205f 	eorscc	r2, r1, pc, asr r0
     69c:	5f003432 	svcpl	0x00003432
     6a0:	4749535f 	smlsldmi	r5, r9, pc, r3	; <UNPREDICTABLE>
     6a4:	4f54415f 	svcmi	0x0054415f
     6a8:	5f43494d 	svcpl	0x0043494d
     6ac:	45505954 	ldrbmi	r5, [r0, #-2388]	; 0x954
     6b0:	69205f5f 	stmdbvs	r0!, {r0, r1, r2, r3, r4, r6, r8, r9, sl, fp, ip, lr}
     6b4:	5f00746e 	svcpl	0x0000746e
     6b8:	4345445f 	movtmi	r4, #21599	; 0x545f
     6bc:	4d5f3436 	cfldrdmi	mvd3, [pc, #-216]	; 5ec <_start-0x7a14>
     6c0:	455f5841 	ldrbmi	r5, [pc, #-2113]	; fffffe87 <multiplylookup+0xffff67b7>
     6c4:	5f5f5058 	svcpl	0x005f5058
     6c8:	35383320 	ldrcc	r3, [r8, #-800]!	; 0x320
     6cc:	535f5f00 	cmppl	pc, #0, 30
     6d0:	4f455a49 	svcmi	0x00455a49
     6d4:	4f4c5f46 	svcmi	0x004c5f46
     6d8:	445f474e 	ldrbmi	r4, [pc], #-1870	; 6e0 <_start-0x7920>
     6dc:	4c42554f 	cfstr64mi	mvdx5, [r2], {79}	; 0x4f
     6e0:	205f5f45 	subscs	r5, pc, r5, asr #30
     6e4:	5f5f0038 	svcpl	0x005f0038
     6e8:	43415246 	movtmi	r5, #4678	; 0x1246
     6ec:	42465f54 	submi	r5, r6, #84, 30	; 0x150
     6f0:	5f5f5449 	svcpl	0x005f5449
     6f4:	00353120 	eorseq	r3, r5, r0, lsr #2
     6f8:	4c4c5f5f 	mcrrmi	15, 5, r5, ip, cr15
     6fc:	43415246 	movtmi	r5, #4678	; 0x1246
     700:	414d5f54 	cmpmi	sp, r4, asr pc
     704:	205f5f58 	subscs	r5, pc, r8, asr pc	; <UNPREDICTABLE>
     708:	46375830 			; <UNDEFINED> instruction: 0x46375830
     70c:	46464646 	strbmi	r4, [r6], -r6, asr #12
     710:	46464646 	strbmi	r4, [r6], -r6, asr #12
     714:	46464646 	strbmi	r4, [r6], -r6, asr #12
     718:	2d504646 	ldclcs	6, cr4, [r0, #-280]	; 0xfffffee8
     71c:	4c4c3336 	mcrrmi	3, 3, r3, ip, cr6
     720:	5f5f0052 	svcpl	0x005f0052
     724:	455a4953 	ldrbmi	r4, [sl, #-2387]	; 0x953
     728:	4c5f464f 	mrrcmi	6, 4, r4, pc, cr15	; <UNPREDICTABLE>
     72c:	5f474e4f 	svcpl	0x00474e4f
     730:	0034205f 	eorseq	r2, r4, pc, asr r0
     734:	45445f5f 	strbmi	r5, [r4, #-3935]	; 0xf5f
     738:	5f323343 	svcpl	0x00323343
     73c:	5f58414d 	svcpl	0x0058414d
     740:	2e39205f 	mrccs	0, 1, r2, cr9, cr15, {2}
     744:	39393939 	ldmdbcc	r9!, {r0, r3, r4, r5, r8, fp, ip, sp}
     748:	39453939 	stmdbcc	r5, {r0, r3, r4, r5, r8, fp, ip, sp}^
     74c:	00464436 	subeq	r4, r6, r6, lsr r4
     750:	5f585541 	svcpl	0x00585541
     754:	4d5f554d 	cfldr64mi	mvdx5, [pc, #-308]	; 628 <_start-0x79d8>
     758:	525f5243 	subspl	r5, pc, #805306372	; 0x30000004
     75c:	30204745 	eorcc	r4, r0, r5, asr #14
     760:	32303278 	eorscc	r3, r0, #120, 4	; 0x80000007
     764:	35303531 	ldrcc	r3, [r0, #-1329]!	; 0x531
     768:	5f5f0030 	svcpl	0x005f0030
     76c:	495f4154 	ldmdbmi	pc, {r2, r4, r6, r8, lr}^	; <UNPREDICTABLE>
     770:	5f544942 	svcpl	0x00544942
     774:	3436205f 	ldrtcc	r2, [r6], #-95	; 0x5f
     778:	4c5f5f00 	mrrcmi	15, 0, r5, pc, cr0	; <UNPREDICTABLE>
     77c:	5f4c4244 	svcpl	0x004c4244
     780:	5f534148 	svcpl	0x00534148
     784:	49464e49 	stmdbmi	r6, {r0, r3, r6, r9, sl, fp, lr}^
     788:	5954494e 	ldmdbpl	r4, {r1, r2, r3, r6, r8, fp, lr}^
     78c:	31205f5f 	teqcc	r0, pc, asr pc
     790:	535f5f00 	cmppl	pc, #0, 30
     794:	4f455a49 	svcmi	0x00455a49
     798:	54505f46 	ldrbpl	r5, [r0], #-3910	; 0xf46
     79c:	46494452 			; <UNDEFINED> instruction: 0x46494452
     7a0:	5f545f46 	svcpl	0x00545f46
     7a4:	0034205f 	eorseq	r2, r4, pc, asr r0
     7a8:	41535f5f 	cmpmi	r3, pc, asr pc
     7ac:	4d554343 	ldclmi	3, cr4, [r5, #-268]	; 0xfffffef4
     7b0:	4942465f 	stmdbmi	r2, {r0, r1, r2, r3, r4, r6, r9, sl, lr}^
     7b4:	205f5f54 	subscs	r5, pc, r4, asr pc	; <UNPREDICTABLE>
     7b8:	5f5f0037 	svcpl	0x005f0037
     7bc:	38544e49 	ldmdacc	r4, {r0, r3, r6, r9, sl, fp, lr}^
     7c0:	5059545f 	subspl	r5, r9, pc, asr r4
     7c4:	205f5f45 	subscs	r5, pc, r5, asr #30
     7c8:	6e676973 	mcrvs	9, 3, r6, cr7, cr3, {3}
     7cc:	63206465 	teqvs	r0, #1694498816	; 0x65000000
     7d0:	00726168 	rsbseq	r6, r2, r8, ror #2
     7d4:	59425f5f 	stmdbpl	r2, {r0, r1, r2, r3, r4, r6, r8, r9, sl, fp, ip, lr}^
     7d8:	4f5f4554 	svcmi	0x005f4554
     7dc:	52454452 	subpl	r4, r5, #1375731712	; 0x52000000
     7e0:	5f205f5f 	svcpl	0x00205f5f
     7e4:	44524f5f 	ldrbmi	r4, [r2], #-3935	; 0xf5f
     7e8:	4c5f5245 	lfmmi	f5, 2, [pc], {69}	; 0x45
     7ec:	4c545449 	cfldrdmi	mvd5, [r4], {73}	; 0x49
     7f0:	4e455f45 	cdpmi	15, 4, cr5, cr5, cr5, {2}
     7f4:	4e414944 	cdpmi	9, 4, cr4, cr1, cr4, {2}
     7f8:	41005f5f 	tstmi	r0, pc, asr pc
     7fc:	455f5855 	ldrbmi	r5, [pc, #-2133]	; ffffffaf <multiplylookup+0xffff68df>
     800:	4c42414e 	stfmie	f4, [r2], {78}	; 0x4e
     804:	30205345 	eorcc	r5, r0, r5, asr #6
     808:	32303278 	eorscc	r3, r0, #120, 4	; 0x80000007
     80c:	30303531 	eorscc	r3, r0, r1, lsr r5
     810:	5f5f0034 	svcpl	0x005f0034
     814:	43415246 	movtmi	r5, #4678	; 0x1246
     818:	50455f54 	subpl	r5, r5, r4, asr pc
     81c:	4f4c4953 	svcmi	0x004c4953
     820:	205f5f4e 	subscs	r5, pc, lr, asr #30
     824:	50317830 	eorspl	r7, r1, r0, lsr r8
     828:	5235312d 	eorspl	r3, r5, #1073741835	; 0x4000000b
     82c:	505f5f00 	subspl	r5, pc, r0, lsl #30
     830:	4d474152 	stfmie	f4, [r7, #-328]	; 0xfffffeb8
     834:	45525f41 	ldrbmi	r5, [r2, #-3905]	; 0xf41
     838:	49464544 	stmdbmi	r6, {r2, r6, r8, sl, lr}^
     83c:	455f454e 	ldrbmi	r4, [pc, #-1358]	; 2f6 <_start-0x7d0a>
     840:	414e5458 	cmpmi	lr, r8, asr r4
     844:	3120454d 	teqcc	r0, sp, asr #10
     848:	465f5f00 	ldrbmi	r5, [pc], -r0, lsl #30
     84c:	54414f4c 	strbpl	r4, [r1], #-3916	; 0xf4c
     850:	524f575f 	subpl	r5, pc, #24903680	; 0x17c0000
     854:	524f5f44 	subpl	r5, pc, #68, 30	; 0x110
     858:	5f524544 	svcpl	0x00524544
     85c:	5f5f205f 	svcpl	0x005f205f
     860:	4544524f 	strbmi	r5, [r4, #-591]	; 0x24f
     864:	494c5f52 	stmdbmi	ip, {r1, r4, r6, r8, r9, sl, fp, ip, lr}^
     868:	454c5454 	strbmi	r5, [ip, #-1108]	; 0x454
     86c:	444e455f 	strbmi	r4, [lr], #-1375	; 0x55f
     870:	5f4e4149 	svcpl	0x004e4149
     874:	5f5f005f 	svcpl	0x005f005f
     878:	43554e47 	cmpmi	r5, #1136	; 0x470
     87c:	554e475f 	strbpl	r4, [lr, #-1887]	; 0x75f
     880:	4c4e495f 	mcrrmi	9, 5, r4, lr, cr15
     884:	5f454e49 	svcpl	0x00454e49
     888:	0031205f 	eorseq	r2, r1, pc, asr r0
     88c:	414c5f5f 	cmpmi	ip, pc, asr pc
     890:	4d554343 	ldclmi	3, cr4, [r5, #-268]	; 0xfffffef4
     894:	5350455f 	cmppl	r0, #398458880	; 0x17c00000
     898:	4e4f4c49 	cdpmi	12, 4, cr4, cr15, cr9, {2}
     89c:	30205f5f 	eorcc	r5, r0, pc, asr pc
     8a0:	2d503178 	ldfcse	f3, [r0, #-480]	; 0xfffffe20
     8a4:	4b4c3133 	blmi	130cd78 <multiplylookup+0x13036a8>
     8a8:	46504700 	ldrbmi	r4, [r0], -r0, lsl #14
     8ac:	314c4553 	cmpcc	ip, r3, asr r5
     8b0:	32783020 	rsbscc	r3, r8, #32
     8b4:	30303230 	eorscc	r3, r0, r0, lsr r2
     8b8:	00343030 	eorseq	r3, r4, r0, lsr r0
     8bc:	4e495f5f 	mcrmi	15, 2, r5, cr9, cr15, {2}
     8c0:	5f323354 	svcpl	0x00323354
     8c4:	5f58414d 	svcpl	0x0058414d
     8c8:	3132205f 	teqcc	r2, pc, asr r0
     8cc:	38343734 	ldmdacc	r4!, {r2, r4, r5, r8, r9, sl, ip, sp}
     8d0:	37343633 			; <UNDEFINED> instruction: 0x37343633
     8d4:	5f5f004c 	svcpl	0x005f004c
     8d8:	5f544e49 	svcpl	0x00544e49
     8dc:	54534146 	ldrbpl	r4, [r3], #-326	; 0x146
     8e0:	545f3631 	ldrbpl	r3, [pc], #-1585	; 8e8 <_start-0x7718>
     8e4:	5f455059 	svcpl	0x00455059
     8e8:	6e69205f 	mcrvs	0, 3, r2, cr9, cr15, {2}
     8ec:	5f5f0074 	svcpl	0x005f0074
     8f0:	53455355 	movtpl	r5, #21333	; 0x5355
     8f4:	494e495f 	stmdbmi	lr, {r0, r1, r2, r3, r4, r6, r8, fp, lr}^
     8f8:	4e494654 	mcrmi	6, 2, r4, cr9, cr4, {2}
     8fc:	205f5f49 	subscs	r5, pc, r9, asr #30
     900:	5f5f0031 	svcpl	0x005f0031
     904:	55434341 	strbpl	r4, [r3, #-833]	; 0x341
     908:	42495f4d 	submi	r5, r9, #308	; 0x134
     90c:	5f5f5449 	svcpl	0x005f5449
     910:	00363120 	eorseq	r3, r6, r0, lsr #2
     914:	464c5f5f 			; <UNDEFINED> instruction: 0x464c5f5f
     918:	54434152 	strbpl	r4, [r3], #-338	; 0x152
     91c:	4e494d5f 	mcrmi	13, 2, r4, cr9, cr15, {2}
     920:	28205f5f 	stmdacs	r0!, {r0, r1, r2, r3, r4, r6, r8, r9, sl, fp, ip, lr}
     924:	352e302d 	strcc	r3, [lr, #-45]!	; 0x2d
     928:	302d524c 	eorcc	r5, sp, ip, asr #4
     92c:	524c352e 	subpl	r3, ip, #192937984	; 0xb800000
     930:	5f5f0029 	svcpl	0x005f0029
     934:	5f544e49 	svcpl	0x00544e49
     938:	54534146 	ldrbpl	r4, [r3], #-326	; 0x146
     93c:	59545f38 	ldmdbpl	r4, {r3, r4, r5, r8, r9, sl, fp, ip, lr}^
     940:	5f5f4550 	svcpl	0x005f4550
     944:	746e6920 	strbtvc	r6, [lr], #-2336	; 0x920
     948:	555f5f00 	ldrbpl	r5, [pc, #-3840]	; fffffa50 <multiplylookup+0xffff6380>
     94c:	495f5154 	ldmdbmi	pc, {r2, r4, r6, r8, ip, lr}^	; <UNPREDICTABLE>
     950:	5f544942 	svcpl	0x00544942
     954:	0030205f 	eorseq	r2, r0, pc, asr r0
     958:	41555f5f 	cmpmi	r5, pc, asr pc
     95c:	4d554343 	ldclmi	3, cr4, [r5, #-268]	; 0xfffffef4
     960:	58414d5f 	stmdapl	r1, {r0, r1, r2, r3, r4, r6, r8, sl, fp, lr}^
     964:	30205f5f 	eorcc	r5, r0, pc, asr pc
     968:	46464658 			; <UNDEFINED> instruction: 0x46464658
     96c:	46464646 	strbmi	r4, [r6], -r6, asr #12
     970:	312d5046 	teqcc	sp, r6, asr #32
     974:	004b5536 	subeq	r5, fp, r6, lsr r5
     978:	4e495f5f 	mcrmi	15, 2, r5, cr9, cr15, {2}
     97c:	5f363154 	svcpl	0x00363154
     980:	45505954 	ldrbmi	r5, [r0, #-2388]	; 0x954
     984:	73205f5f 	teqvc	r0, #380	; 0x17c
     988:	74726f68 	ldrbtvc	r6, [r2], #-3944	; 0xf68
     98c:	746e6920 	strbtvc	r6, [lr], #-2336	; 0x920
     990:	4c5f5f00 	mrrcmi	15, 0, r5, pc, cr0	; <UNPREDICTABLE>
     994:	5f4c4244 	svcpl	0x004c4244
     998:	5f534148 	svcpl	0x00534148
     99c:	45495551 	strbmi	r5, [r9, #-1361]	; 0x551
     9a0:	414e5f54 	cmpmi	lr, r4, asr pc
     9a4:	205f5f4e 	subscs	r5, pc, lr, asr #30
     9a8:	5f5f0031 	svcpl	0x005f0031
     9ac:	43414c4c 	movtmi	r4, #7244	; 0x1c4c
     9b0:	5f4d5543 	svcpl	0x004d5543
     9b4:	49535045 	ldmdbmi	r3, {r0, r2, r6, ip, lr}^
     9b8:	5f4e4f4c 	svcpl	0x004e4f4c
     9bc:	7830205f 	ldmdavc	r0!, {r0, r1, r2, r3, r4, r6, sp}
     9c0:	332d5031 	teqcc	sp, #49	; 0x31
     9c4:	4b4c4c31 	blmi	1313a90 <multiplylookup+0x130a3c0>
     9c8:	535f5f00 	cmppl	pc, #0, 30
     9cc:	4f455a49 	svcmi	0x00455a49
     9d0:	4f445f46 	svcmi	0x00445f46
     9d4:	454c4255 	strbmi	r4, [ip, #-597]	; 0x255
     9d8:	38205f5f 	stmdacc	r0!, {r0, r1, r2, r3, r4, r6, r8, r9, sl, fp, ip, lr}
     9dc:	535f5f00 	cmppl	pc, #0, 30
     9e0:	43415246 	movtmi	r5, #4678	; 0x1246
     9e4:	494d5f54 	stmdbmi	sp, {r2, r4, r6, r8, r9, sl, fp, ip, lr}^
     9e8:	205f5f4e 	subscs	r5, pc, lr, asr #30
     9ec:	2e302d28 	cdpcs	13, 3, cr2, cr0, cr8, {1}
     9f0:	2d524835 	ldclcs	8, cr4, [r2, #-212]	; 0xffffff2c
     9f4:	48352e30 	ldmdami	r5!, {r4, r5, r9, sl, fp, sp}
     9f8:	5f002952 	svcpl	0x00002952
     9fc:	4e49555f 	mcrmi	5, 2, r5, cr9, cr15, {2}
     a00:	41465f54 	cmpmi	r6, r4, asr pc
     a04:	34365453 	ldrtcc	r5, [r6], #-1107	; 0x453
     a08:	58414d5f 	stmdapl	r1, {r0, r1, r2, r3, r4, r6, r8, sl, fp, lr}^
     a0c:	31205f5f 	teqcc	r0, pc, asr pc
     a10:	36343438 			; <UNDEFINED> instruction: 0x36343438
     a14:	30343437 	eorscc	r3, r4, r7, lsr r4
     a18:	30373337 	eorscc	r3, r7, r7, lsr r3
     a1c:	31353539 	teqcc	r5, r9, lsr r5
     a20:	55353136 	ldrpl	r3, [r5, #-310]!	; 0x136
     a24:	5f004c4c 	svcpl	0x00004c4c
     a28:	4345445f 	movtmi	r4, #21599	; 0x545f
     a2c:	535f3233 	cmppl	pc, #805306371	; 0x30000003
     a30:	4f4e4255 	svcmi	0x004e4255
     a34:	4c414d52 	mcrrmi	13, 5, r4, r1, cr2
     a38:	4e494d5f 	mcrmi	13, 2, r4, cr9, cr15, {2}
     a3c:	30205f5f 	eorcc	r5, r0, pc, asr pc
     a40:	3030302e 	eorscc	r3, r0, lr, lsr #32
     a44:	45313030 	ldrmi	r3, [r1, #-48]!	; 0x30
     a48:	4435392d 	ldrtmi	r3, [r5], #-2349	; 0x92d
     a4c:	5f5f0046 	svcpl	0x005f0046
     a50:	495f5154 	ldmdbmi	pc, {r2, r4, r6, r8, ip, lr}^	; <UNPREDICTABLE>
     a54:	5f544942 	svcpl	0x00544942
     a58:	0030205f 	eorseq	r2, r0, pc, asr r0
     a5c:	54415f5f 	strbpl	r5, [r1], #-3935	; 0xf5f
     a60:	43494d4f 	movtmi	r4, #40271	; 0x9d4f
     a64:	5145535f 	cmppl	r5, pc, asr r3
     a68:	5453435f 	ldrbpl	r4, [r3], #-863	; 0x35f
     a6c:	5f003520 	svcpl	0x00003520
     a70:	5f51535f 	svcpl	0x0051535f
     a74:	54494249 	strbpl	r4, [r9], #-585	; 0x249
     a78:	30205f5f 	eorcc	r5, r0, pc, asr pc
     a7c:	475f5f00 	ldrbmi	r5, [pc, -r0, lsl #30]
     a80:	485f4343 	ldmdami	pc, {r0, r1, r6, r8, r9, lr}^	; <UNPREDICTABLE>
     a84:	5f455641 	svcpl	0x00455641
     a88:	52415744 	subpl	r5, r1, #68, 14	; 0x1100000
     a8c:	435f3246 	cmpmi	pc, #1610612740	; 0x60000004
     a90:	415f4946 	cmpmi	pc, r6, asr #18
     a94:	31204d53 	teqcc	r0, r3, asr sp
     a98:	535f5f00 	cmppl	pc, #0, 30
     a9c:	43415246 	movtmi	r5, #4678	; 0x1246
     aa0:	414d5f54 	cmpmi	sp, r4, asr pc
     aa4:	205f5f58 	subscs	r5, pc, r8, asr pc	; <UNPREDICTABLE>
     aa8:	46375830 			; <UNDEFINED> instruction: 0x46375830
     aac:	48372d50 	ldmdami	r7!, {r4, r6, r8, sl, fp, sp}
     ab0:	5f5f0052 	svcpl	0x005f0052
     ab4:	33544e49 	cmpcc	r4, #1168	; 0x490
     ab8:	28435f32 	stmdacs	r3, {r1, r4, r5, r8, r9, sl, fp, ip, lr}^
     abc:	63202963 	teqvs	r0, #1622016	; 0x18c000
     ac0:	20232320 	eorcs	r2, r3, r0, lsr #6
     ac4:	5f5f004c 	svcpl	0x005f004c
     ac8:	43434155 	movtmi	r4, #12629	; 0x3155
     acc:	455f4d55 	ldrbmi	r4, [pc, #-3413]	; fffffd7f <multiplylookup+0xffff66af>
     ad0:	4c495350 	mcrrmi	3, 5, r5, r9, cr0
     ad4:	5f5f4e4f 	svcpl	0x005f4e4f
     ad8:	31783020 	cmncc	r8, r0, lsr #32
     adc:	36312d50 			; <UNDEFINED> instruction: 0x36312d50
     ae0:	5f004b55 	svcpl	0x00004b55
     ae4:	4343475f 	movtmi	r4, #14175	; 0x375f
     ae8:	4f54415f 	svcmi	0x0054415f
     aec:	5f43494d 	svcpl	0x0043494d
     af0:	52414843 	subpl	r4, r1, #4390912	; 0x430000
     af4:	545f3233 	ldrbpl	r3, [pc], #-563	; afc <_start-0x7504>
     af8:	434f4c5f 	movtmi	r4, #64607	; 0xfc5f
     afc:	52465f4b 	subpl	r5, r6, #300	; 0x12c
     b00:	31204545 	teqcc	r0, r5, asr #10
     b04:	555f5f00 	ldrbpl	r5, [pc, #-3840]	; fffffc0c <multiplylookup+0xffff653c>
     b08:	465f4154 			; <UNDEFINED> instruction: 0x465f4154
     b0c:	5f544942 	svcpl	0x00544942
     b10:	3436205f 	ldrtcc	r2, [r6], #-95	; 0x5f
     b14:	6d756400 	cfldrdvs	mvd6, [r5, #-0]
     b18:	5f00796d 	svcpl	0x0000796d
     b1c:	5f51545f 	svcpl	0x0051545f
     b20:	54494246 	strbpl	r4, [r9], #-582	; 0x246
     b24:	31205f5f 	teqcc	r0, pc, asr pc
     b28:	5f003732 	svcpl	0x00003732
     b2c:	4153555f 	cmpmi	r3, pc, asr r5
     b30:	4d554343 	ldclmi	3, cr4, [r5, #-268]	; 0xfffffef4
     b34:	5350455f 	cmppl	r0, #398458880	; 0x17c00000
     b38:	4e4f4c49 	cdpmi	12, 4, cr4, cr15, cr9, {2}
     b3c:	30205f5f 	eorcc	r5, r0, pc, asr pc
     b40:	2d503178 	ldfcse	f3, [r0, #-480]	; 0xfffffe20
     b44:	4b485538 	blmi	121602c <multiplylookup+0x120c95c>
     b48:	72617500 	rsbvc	r7, r1, #0, 10
     b4c:	636c5f74 	cmnvs	ip, #116, 30	; 0x1d0
     b50:	5f5f0072 	svcpl	0x005f0072
     b54:	49474552 	stmdbmi	r7, {r1, r4, r6, r8, sl, lr}^
     b58:	52455453 	subpl	r5, r5, #1392508928	; 0x53000000
     b5c:	4552505f 	ldrbmi	r5, [r2, #-95]	; 0x5f
     b60:	5f584946 	svcpl	0x00584946
     b64:	5f00205f 	svcpl	0x0000205f
     b68:	52464c5f 	subpl	r4, r6, #24320	; 0x5f00
     b6c:	5f544341 	svcpl	0x00544341
     b70:	49535045 	ldmdbmi	r3, {r0, r2, r6, ip, lr}^
     b74:	5f4e4f4c 	svcpl	0x004e4f4c
     b78:	7830205f 	ldmdavc	r0!, {r0, r1, r2, r3, r4, r6, sp}
     b7c:	332d5031 	teqcc	sp, #49	; 0x31
     b80:	00524c31 	subseq	r4, r2, r1, lsr ip
     b84:	4c4c5f5f 	mcrrmi	15, 5, r5, ip, cr15
     b88:	43415246 	movtmi	r5, #4678	; 0x1246
     b8c:	50455f54 	subpl	r5, r5, r4, asr pc
     b90:	4f4c4953 	svcmi	0x004c4953
     b94:	205f5f4e 	subscs	r5, pc, lr, asr #30
     b98:	50317830 	eorspl	r7, r1, r0, lsr r8
     b9c:	4c33362d 	ldcmi	6, cr3, [r3], #-180	; 0xffffff4c
     ba0:	5f00524c 	svcpl	0x0000524c
     ba4:	5a49535f 	bpl	1255928 <multiplylookup+0x124c258>
     ba8:	5f464f45 	svcpl	0x00464f45
     bac:	474e4f4c 	strbmi	r4, [lr, -ip, asr #30]
     bb0:	4e4f4c5f 	mcrmi	12, 2, r4, cr15, cr15, {2}
     bb4:	205f5f47 	subscs	r5, pc, r7, asr #30
     bb8:	69740038 	ldmdbvs	r4!, {r3, r4, r5}^
     bbc:	5f72656d 	svcpl	0x0072656d
     bc0:	6b636974 	blvs	18db198 <multiplylookup+0x18d1ac8>
     bc4:	555f5f00 	ldrbpl	r5, [pc, #-3840]	; fffffccc <multiplylookup+0xffff65fc>
     bc8:	4152464c 	cmpmi	r2, ip, asr #12
     bcc:	455f5443 	ldrbmi	r5, [pc, #-1091]	; 791 <_start-0x786f>
     bd0:	4c495350 	mcrrmi	3, 5, r5, r9, cr0
     bd4:	5f5f4e4f 	svcpl	0x005f4e4f
     bd8:	31783020 	cmncc	r8, r0, lsr #32
     bdc:	32332d50 	eorscc	r2, r3, #80, 26	; 0x1400
     be0:	00524c55 	subseq	r4, r2, r5, asr ip
     be4:	4e495f5f 	mcrmi	15, 2, r5, cr9, cr15, {2}
     be8:	454c5f54 	strbmi	r5, [ip, #-3924]	; 0xf54
     bec:	31545341 	cmpcc	r4, r1, asr #6
     bf0:	59545f36 	ldmdbpl	r4, {r1, r2, r4, r5, r8, r9, sl, fp, ip, lr}^
     bf4:	5f5f4550 	svcpl	0x005f4550
     bf8:	6f687320 	svcvs	0x00687320
     bfc:	69207472 	stmdbvs	r0!, {r1, r4, r5, r6, sl, ip, sp, lr}
     c00:	5f00746e 	svcpl	0x0000746e
     c04:	4e49465f 	mcrmi	6, 2, r4, cr9, cr15, {2}
     c08:	5f455449 	svcpl	0x00455449
     c0c:	4854414d 	ldmdami	r4, {r0, r2, r3, r6, r8, lr}^
     c10:	4c4e4f5f 	mcrrmi	15, 5, r4, lr, cr15
     c14:	205f5f59 	subscs	r5, pc, r9, asr pc	; <UNPREDICTABLE>
     c18:	5f5f0030 	svcpl	0x005f0030
     c1c:	5f434544 	svcpl	0x00434544
     c20:	4c415645 	mcrrmi	6, 4, r5, r1, cr5
     c24:	54454d5f 	strbpl	r4, [r5], #-3423	; 0xd5f
     c28:	5f444f48 	svcpl	0x00444f48
     c2c:	0032205f 	eorseq	r2, r2, pc, asr r0
     c30:	4c465f5f 	mcrrmi	15, 5, r5, r6, cr15
     c34:	414d5f54 	cmpmi	sp, r4, asr pc
     c38:	30315f58 	eorscc	r5, r1, r8, asr pc
     c3c:	5058455f 	subspl	r4, r8, pc, asr r5
     c40:	33205f5f 	teqcc	r0, #380	; 0x17c
     c44:	5f5f0038 	svcpl	0x005f0038
     c48:	5f544e49 	svcpl	0x00544e49
     c4c:	5341454c 	movtpl	r4, #5452	; 0x154c
     c50:	5f363154 	svcpl	0x00363154
     c54:	5f58414d 	svcpl	0x0058414d
     c58:	3233205f 	eorscc	r2, r3, #95	; 0x5f
     c5c:	00373637 	eorseq	r3, r7, r7, lsr r6
     c60:	45445f5f 	strbmi	r5, [r4, #-3935]	; 0xf5f
     c64:	5f323343 	svcpl	0x00323343
     c68:	5f4e494d 	svcpl	0x004e494d
     c6c:	5f505845 	svcpl	0x00505845
     c70:	2d28205f 	stccs	0, cr2, [r8, #-380]!	; 0xfffffe84
     c74:	00293439 	eoreq	r3, r9, r9, lsr r4
     c78:	45445f5f 	strbmi	r5, [r4, #-3935]	; 0xf5f
     c7c:	5f323343 	svcpl	0x00323343
     c80:	5f58414d 	svcpl	0x0058414d
     c84:	5f505845 	svcpl	0x00505845
     c88:	3739205f 			; <UNDEFINED> instruction: 0x3739205f
     c8c:	4c5f5f00 	mrrcmi	15, 0, r5, pc, cr0	; <UNPREDICTABLE>
     c90:	4343414c 	movtmi	r4, #12620	; 0x314c
     c94:	4d5f4d55 	ldclmi	13, cr4, [pc, #-340]	; b48 <_start-0x74b8>
     c98:	5f5f4e49 	svcpl	0x005f4e49
     c9c:	302d2820 	eorcc	r2, sp, r0, lsr #16
     ca0:	33503158 	cmpcc	r0, #88, 2
     ca4:	4b4c4c31 	blmi	1313d70 <multiplylookup+0x130a6a0>
     ca8:	3158302d 	cmpcc	r8, sp, lsr #32
     cac:	4c313350 	ldcmi	3, cr3, [r1], #-320	; 0xfffffec0
     cb0:	00294b4c 	eoreq	r4, r9, ip, asr #22
     cb4:	4e495f5f 	mcrmi	15, 2, r5, cr9, cr15, {2}
     cb8:	435f3854 	cmpmi	pc, #84, 16	; 0x540000
     cbc:	20296328 	eorcs	r6, r9, r8, lsr #6
     cc0:	5f5f0063 	svcpl	0x005f0063
     cc4:	5f4c4244 	svcpl	0x004c4244
     cc8:	4f4e4544 	svcmi	0x004e4544
     ccc:	4d5f4d52 	ldclmi	13, cr4, [pc, #-328]	; b8c <_start-0x7474>
     cd0:	5f5f4e49 	svcpl	0x005f4e49
     cd4:	64282820 	strtvs	r2, [r8], #-2080	; 0x820
     cd8:	6c62756f 	cfstr64vs	mvdx7, [r2], #-444	; 0xfffffe44
     cdc:	2e342965 	cdpcs	9, 3, cr2, cr4, cr5, {3}
     ce0:	36303439 			; <UNDEFINED> instruction: 0x36303439
     ce4:	35343635 	ldrcc	r3, [r4, #-1589]!	; 0x635
     ce8:	32313438 	eorscc	r3, r1, #56, 8	; 0x38000000
     cec:	34353634 	ldrtcc	r3, [r5], #-1588	; 0x634
     cf0:	32332d65 	eorscc	r2, r3, #6464	; 0x1940
     cf4:	00294c34 	eoreq	r4, r9, r4, lsr ip
     cf8:	55505047 	ldrbpl	r5, [r0, #-71]	; 0x47
     cfc:	4b4c4344 	blmi	1311a14 <multiplylookup+0x1308344>
     d00:	78302030 	ldmdavc	r0!, {r4, r5, sp}
     d04:	30323032 	eorscc	r3, r2, r2, lsr r0
     d08:	38393030 	ldmdacc	r9!, {r4, r5, ip, sp}
     d0c:	475f5f00 	ldrbmi	r5, [pc, -r0, lsl #30]
     d10:	5f43554e 	svcpl	0x0043554e
     d14:	4f4e494d 	svcmi	0x004e494d
     d18:	205f5f52 	subscs	r5, pc, r2, asr pc	; <UNPREDICTABLE>
     d1c:	5f5f0037 	svcpl	0x005f0037
     d20:	5f434347 	svcpl	0x00434347
     d24:	4d4f5441 	cfstrdmi	mvd5, [pc, #-260]	; c28 <_start-0x73d8>
     d28:	425f4349 	subsmi	r4, pc, #603979777	; 0x24000001
     d2c:	5f4c4f4f 	svcpl	0x004c4f4f
     d30:	4b434f4c 	blmi	10d4a68 <multiplylookup+0x10cb398>
     d34:	4552465f 	ldrbmi	r4, [r2, #-1631]	; 0x65f
     d38:	00312045 	eorseq	r2, r1, r5, asr #32
     d3c:	48555f5f 	ldmdami	r5, {r0, r1, r2, r3, r4, r6, r8, r9, sl, fp, ip, lr}^
     d40:	42495f41 	submi	r5, r9, #260	; 0x104
     d44:	5f5f5449 	svcpl	0x005f5449
     d48:	5f003820 	svcpl	0x00003820
     d4c:	4e49555f 	mcrmi	5, 2, r5, cr9, cr15, {2}
     d50:	435f3854 	cmpmi	pc, #84, 16	; 0x540000
     d54:	20296328 	eorcs	r6, r9, r8, lsr #6
     d58:	5f5f0063 	svcpl	0x005f0063
     d5c:	38544e49 	ldmdacc	r4, {r0, r3, r6, r9, sl, fp, lr}^
     d60:	58414d5f 	stmdapl	r1, {r0, r1, r2, r3, r4, r6, r8, sl, fp, lr}^
     d64:	31205f5f 	teqcc	r0, pc, asr pc
     d68:	75003732 	strvc	r3, [r0, #-1842]	; 0x732
     d6c:	5f747261 	svcpl	0x00747261
     d70:	63656863 	cmnvs	r5, #6488064	; 0x630000
     d74:	5f5f006b 	svcpl	0x005f006b
     d78:	43434155 	movtmi	r4, #12629	; 0x3155
     d7c:	495f4d55 	ldmdbmi	pc, {r0, r2, r4, r6, r8, sl, fp, lr}^	; <UNPREDICTABLE>
     d80:	5f544942 	svcpl	0x00544942
     d84:	3631205f 			; <UNDEFINED> instruction: 0x3631205f
     d88:	555f5f00 	ldrbpl	r5, [pc, #-3840]	; fffffe90 <multiplylookup+0xffff67c0>
     d8c:	36544e49 	ldrbcc	r4, [r4], -r9, asr #28
     d90:	414d5f34 	cmpmi	sp, r4, lsr pc
     d94:	205f5f58 	subscs	r5, pc, r8, asr pc	; <UNPREDICTABLE>
     d98:	34343831 	ldrtcc	r3, [r4], #-2097	; 0x831
     d9c:	34343736 	ldrtcc	r3, [r4], #-1846	; 0x736
     da0:	37333730 			; <UNDEFINED> instruction: 0x37333730
     da4:	35353930 	ldrcc	r3, [r5, #-2352]!	; 0x930
     da8:	35313631 	ldrcc	r3, [r1, #-1585]!	; 0x631
     dac:	004c4c55 	subeq	r4, ip, r5, asr ip
     db0:	4c465f5f 	mcrrmi	15, 5, r5, r6, cr15
     db4:	41485f54 	cmpmi	r8, r4, asr pc
     db8:	55515f53 	ldrbpl	r5, [r1, #-3923]	; 0xf53
     dbc:	5f544549 	svcpl	0x00544549
     dc0:	5f4e414e 	svcpl	0x004e414e
     dc4:	0031205f 	eorseq	r2, r1, pc, asr r0
     dc8:	54535f5f 	ldrbpl	r5, [r3], #-3935	; 0xf5f
     dcc:	485f4344 	ldmdami	pc, {r2, r6, r8, r9, lr}^	; <UNPREDICTABLE>
     dd0:	4554534f 	ldrbmi	r5, [r4, #-847]	; 0x34f
     dd4:	205f5f44 	subscs	r5, pc, r4, asr #30
     dd8:	5f5f0030 	svcpl	0x005f0030
     ddc:	5f544c46 	svcpl	0x00544c46
     de0:	5f4e494d 	svcpl	0x004e494d
     de4:	5f505845 	svcpl	0x00505845
     de8:	2d28205f 	stccs	0, cr2, [r8, #-380]!	; 0xfffffe84
     dec:	29353231 	ldmdbcs	r5!, {r0, r4, r5, r9, ip, sp}
     df0:	495f5f00 	ldmdbmi	pc, {r8, r9, sl, fp, ip, lr}^	; <UNPREDICTABLE>
     df4:	4c5f544e 	cfldrdmi	mvd5, [pc], {78}	; 0x4e
     df8:	54534145 	ldrbpl	r4, [r3], #-325	; 0x145
     dfc:	414d5f38 	cmpmi	sp, r8, lsr pc
     e00:	205f5f58 	subscs	r5, pc, r8, asr pc	; <UNPREDICTABLE>
     e04:	00373231 	eorseq	r3, r7, r1, lsr r2
     e08:	46555f5f 	usaxmi	r5, r5, pc	; <UNPREDICTABLE>
     e0c:	54434152 	strbpl	r4, [r3], #-338	; 0x152
     e10:	58414d5f 	stmdapl	r1, {r0, r1, r2, r3, r4, r6, r8, sl, fp, lr}^
     e14:	30205f5f 	eorcc	r5, r0, pc, asr pc
     e18:	46464658 			; <UNDEFINED> instruction: 0x46464658
     e1c:	312d5046 	teqcc	sp, r6, asr #32
     e20:	00525536 	subseq	r5, r2, r6, lsr r5
     e24:	53555f5f 	cmppl	r5, #380	; 0x17c
     e28:	43415246 	movtmi	r5, #4678	; 0x1246
     e2c:	414d5f54 	cmpmi	sp, r4, asr pc
     e30:	205f5f58 	subscs	r5, pc, r8, asr pc	; <UNPREDICTABLE>
     e34:	46465830 			; <UNDEFINED> instruction: 0x46465830
     e38:	55382d50 	ldrpl	r2, [r8, #-3408]!	; 0xd50
     e3c:	5f005248 	svcpl	0x00005248
     e40:	4c42445f 	cfstrdmi	mvd4, [r2], {95}	; 0x5f
     e44:	4e494d5f 	mcrmi	13, 2, r4, cr9, cr15, {2}
     e48:	5f30315f 	svcpl	0x0030315f
     e4c:	5f505845 	svcpl	0x00505845
     e50:	2d28205f 	stccs	0, cr2, [r8, #-380]!	; 0xfffffe84
     e54:	29373033 	ldmdbcs	r7!, {r0, r1, r4, r5, ip, sp}
     e58:	4f5f5f00 	svcmi	0x005f5f00
     e5c:	52454452 	subpl	r4, r5, #1375731712	; 0x52000000
     e60:	4749425f 	smlsldmi	r4, r9, pc, r2	; <UNPREDICTABLE>
     e64:	444e455f 	strbmi	r4, [lr], #-1375	; 0x55f
     e68:	5f4e4149 	svcpl	0x004e4149
     e6c:	3334205f 	teqcc	r4, #95	; 0x5f
     e70:	5f003132 	svcpl	0x00003132
     e74:	4148435f 	cmpmi	r8, pc, asr r3
     e78:	5f363152 	svcpl	0x00363152
     e7c:	45505954 	ldrbmi	r5, [r0, #-2388]	; 0x954
     e80:	73205f5f 	teqvc	r0, #380	; 0x17c
     e84:	74726f68 	ldrbtvc	r6, [r2], #-3944	; 0xf68
     e88:	736e7520 	cmnvc	lr, #32, 10	; 0x8000000
     e8c:	656e6769 	strbvs	r6, [lr, #-1897]!	; 0x769
     e90:	6e692064 	cdpvs	0, 6, cr2, cr9, cr4, {3}
     e94:	5f5f0074 	svcpl	0x005f0074
     e98:	52465355 	subpl	r5, r6, #1409286145	; 0x54000001
     e9c:	5f544341 	svcpl	0x00544341
     ea0:	5f4e494d 	svcpl	0x004e494d
     ea4:	2e30205f 	mrccs	0, 1, r2, cr0, cr15, {2}
     ea8:	52485530 	subpl	r5, r8, #48, 10	; 0xc000000
     eac:	555f5f00 	ldrbpl	r5, [pc, #-3840]	; ffffffb4 <multiplylookup+0xffff68e4>
     eb0:	465f5153 			; <UNDEFINED> instruction: 0x465f5153
     eb4:	5f544942 	svcpl	0x00544942
     eb8:	3233205f 	eorscc	r2, r3, #95	; 0x5f
     ebc:	495f5f00 	ldmdbmi	pc, {r8, r9, sl, fp, ip, lr}^	; <UNPREDICTABLE>
     ec0:	414d544e 	cmpmi	sp, lr, asr #8
     ec4:	59545f58 	ldmdbpl	r4, {r3, r4, r6, r8, r9, sl, fp, ip, lr}^
     ec8:	5f5f4550 	svcpl	0x005f4550
     ecc:	6e6f6c20 	cdpvs	12, 6, cr6, cr15, cr0, {1}
     ed0:	6f6c2067 	svcvs	0x006c2067
     ed4:	6920676e 	stmdbvs	r0!, {r1, r2, r3, r5, r6, r8, r9, sl, sp, lr}
     ed8:	5f00746e 	svcpl	0x0000746e
     edc:	5a49535f 	bpl	1255c60 <multiplylookup+0x124c590>
     ee0:	5f464f45 	svcpl	0x00464f45
     ee4:	524f4853 	subpl	r4, pc, #5439488	; 0x530000
     ee8:	205f5f54 	subscs	r5, pc, r4, asr pc	; <UNPREDICTABLE>
     eec:	5f5f0032 	svcpl	0x005f0032
     ef0:	52464c55 	subpl	r4, r6, #21760	; 0x5500
     ef4:	5f544341 	svcpl	0x00544341
     ef8:	54494249 	strbpl	r4, [r9], #-585	; 0x249
     efc:	30205f5f 	eorcc	r5, r0, pc, asr pc
     f00:	535f5f00 	cmppl	pc, #0, 30
     f04:	42465f51 	submi	r5, r6, #324	; 0x144
     f08:	5f5f5449 	svcpl	0x005f5449
     f0c:	00313320 	eorseq	r3, r1, r0, lsr #6
     f10:	41445f5f 	cmpmi	r4, pc, asr pc
     f14:	4942465f 	stmdbmi	r2, {r0, r1, r2, r3, r4, r6, r9, sl, lr}^
     f18:	205f5f54 	subscs	r5, pc, r4, asr pc	; <UNPREDICTABLE>
     f1c:	5f003133 	svcpl	0x00003133
     f20:	5245565f 	subpl	r5, r5, #99614720	; 0x5f00000
     f24:	4e4f4953 	mcrmi	9, 2, r4, cr15, cr3, {2}
     f28:	22205f5f 	eorcs	r5, r0, #380	; 0x17c
     f2c:	2e372e34 	mrccs	14, 1, r2, cr7, cr4, {1}
     f30:	74002232 	strvc	r2, [r0], #-562	; 0x232
     f34:	72656d69 	rsbvc	r6, r5, #6720	; 0x1a40
     f38:	696e695f 	stmdbvs	lr!, {r0, r1, r2, r3, r4, r6, r8, fp, sp, lr}^
     f3c:	5f5f0074 	svcpl	0x005f0074
     f40:	454d5241 	strbmi	r5, [sp, #-577]	; 0x241
     f44:	205f5f4c 	subscs	r5, pc, ip, asr #30
     f48:	5f5f0031 	svcpl	0x005f0031
     f4c:	55434341 	strbpl	r4, [r3, #-833]	; 0x341
     f50:	50455f4d 	subpl	r5, r5, sp, asr #30
     f54:	4f4c4953 	svcmi	0x004c4953
     f58:	205f5f4e 	subscs	r5, pc, lr, asr #30
     f5c:	50317830 	eorspl	r7, r1, r0, lsr r8
     f60:	4b35312d 	blmi	d4d41c <multiplylookup+0xd43d4c>
     f64:	465f5f00 	ldrbmi	r5, [pc], -r0, lsl #30
     f68:	4d5f544c 	cfldrdmi	mvd5, [pc, #-304]	; e40 <_start-0x71c0>
     f6c:	455f5841 	ldrbmi	r5, [pc, #-2113]	; 733 <_start-0x78cd>
     f70:	5f5f5058 	svcpl	0x005f5058
     f74:	38323120 	ldmdacc	r2!, {r5, r8, ip, sp}
     f78:	555f5f00 	ldrbpl	r5, [pc, #-3840]	; 80 <_start-0x7f80>
     f7c:	495f4153 	ldmdbmi	pc, {r0, r1, r4, r6, r8, lr}^	; <UNPREDICTABLE>
     f80:	5f544942 	svcpl	0x00544942
     f84:	3631205f 			; <UNDEFINED> instruction: 0x3631205f
     f88:	445f5f00 	ldrbmi	r5, [pc], #-3840	; f90 <_start-0x7070>
     f8c:	485f4c42 	ldmdami	pc, {r1, r6, sl, fp, lr}^	; <UNPREDICTABLE>
     f90:	445f5341 	ldrbmi	r5, [pc], #-833	; f98 <_start-0x7068>
     f94:	524f4e45 	subpl	r4, pc, #1104	; 0x450
     f98:	205f5f4d 	subscs	r5, pc, sp, asr #30
     f9c:	52410031 	subpl	r0, r1, #49	; 0x31
     fa0:	49545f4d 	ldmdbmi	r4, {r0, r2, r3, r6, r8, r9, sl, fp, ip, lr}^
     fa4:	5f52454d 	svcpl	0x0052454d
     fa8:	20544e43 	subscs	r4, r4, r3, asr #28
     fac:	30327830 	eorscc	r7, r2, r0, lsr r8
     fb0:	34423030 	strbcc	r3, [r2], #-48	; 0x30
     fb4:	5f003032 	svcpl	0x00003032
     fb8:	544c465f 	strbpl	r4, [ip], #-1631	; 0x65f
     fbc:	4e414d5f 	mcrmi	13, 2, r4, cr1, cr15, {2}
     fc0:	49445f54 	stmdbmi	r4, {r2, r4, r6, r8, r9, sl, fp, ip, lr}^
     fc4:	205f5f47 	subscs	r5, pc, r7, asr #30
     fc8:	5f003432 	svcpl	0x00003432
     fcc:	5246555f 	subpl	r5, r6, #398458880	; 0x17c00000
     fd0:	5f544341 	svcpl	0x00544341
     fd4:	54494246 	strbpl	r4, [r9], #-582	; 0x246
     fd8:	31205f5f 	teqcc	r0, pc, asr pc
     fdc:	5f5f0036 	svcpl	0x005f0036
     fe0:	474e4f4c 	strbmi	r4, [lr, -ip, asr #30]
     fe4:	58414d5f 	stmdapl	r1, {r0, r1, r2, r3, r4, r6, r8, sl, fp, lr}^
     fe8:	32205f5f 	eorcc	r5, r0, #380	; 0x17c
     fec:	34373431 	ldrtcc	r3, [r7], #-1073	; 0x431
     ff0:	34363338 	ldrtcc	r3, [r6], #-824	; 0x338
     ff4:	5f004c37 	svcpl	0x00004c37
     ff8:	52464c5f 	subpl	r4, r6, #24320	; 0x5f00
     ffc:	5f544341 	svcpl	0x00544341
    1000:	54494246 	strbpl	r4, [r9], #-582	; 0x246
    1004:	33205f5f 	teqcc	r0, #380	; 0x17c
    1008:	5f5f0031 	svcpl	0x005f0031
    100c:	53435041 	movtpl	r5, #12353	; 0x3041
    1010:	5f32335f 	svcpl	0x0032335f
    1014:	0031205f 	eorseq	r2, r1, pc, asr r0
    1018:	43475f5f 	movtmi	r5, #32607	; 0x7f5f
    101c:	54415f43 	strbpl	r5, [r1], #-3907	; 0xf43
    1020:	43494d4f 	movtmi	r4, #40271	; 0x9d4f
    1024:	4f4c4c5f 	svcmi	0x004c4c5f
    1028:	4c5f474e 	mrrcmi	7, 4, r4, pc, cr14	; <UNPREDICTABLE>
    102c:	5f4b434f 	svcpl	0x004b434f
    1030:	45455246 	strbmi	r5, [r5, #-582]	; 0x246
    1034:	5f003120 	svcpl	0x00003120
    1038:	5f51515f 	svcpl	0x0051515f
    103c:	54494249 	strbpl	r4, [r9], #-585	; 0x249
    1040:	30205f5f 	eorcc	r5, r0, pc, asr pc
    1044:	58554100 	ldmdapl	r5, {r8, lr}^
    1048:	5f554d5f 	svcpl	0x00554d5f
    104c:	5f52534c 	svcpl	0x0052534c
    1050:	20474552 	subcs	r4, r7, r2, asr r5
    1054:	30327830 	eorscc	r7, r2, r0, lsr r8
    1058:	30353132 	eorscc	r3, r5, r2, lsr r1
    105c:	5f003435 	svcpl	0x00003435
    1060:	4345445f 	movtmi	r4, #21599	; 0x545f
    1064:	5f383231 	svcpl	0x00383231
    1068:	5f4e494d 	svcpl	0x004e494d
    106c:	5f505845 	svcpl	0x00505845
    1070:	2d28205f 	stccs	0, cr2, [r8, #-380]!	; 0xfffffe84
    1074:	32343136 	eorscc	r3, r4, #-2147483635	; 0x8000000d
    1078:	5f5f0029 	svcpl	0x005f0029
    107c:	4d4f5441 	cfstrdmi	mvd5, [pc, #-260]	; f80 <_start-0x7080>
    1080:	525f4349 	subspl	r4, pc, #603979777	; 0x24000001
    1084:	41454c45 	cmpmi	r5, r5, asr #24
    1088:	33204553 	teqcc	r0, #348127232	; 0x14c00000
    108c:	475f5f00 	ldrbmi	r5, [pc, -r0, lsl #30]
    1090:	5f43554e 	svcpl	0x0043554e
    1094:	43544150 	cmpmi	r4, #80, 2
    1098:	56454c48 	strbpl	r4, [r5], -r8, asr #24
    109c:	5f5f4c45 	svcpl	0x005f4c45
    10a0:	5f003220 	svcpl	0x00003220
    10a4:	4c4c555f 	cfstr64mi	mvdx5, [ip], {95}	; 0x5f
    10a8:	55434341 	strbpl	r4, [r3, #-833]	; 0x341
    10ac:	42495f4d 	submi	r5, r9, #308	; 0x134
    10b0:	5f5f5449 	svcpl	0x005f5449
    10b4:	00323320 	eorseq	r3, r2, r0, lsr #6
    10b8:	46535f5f 	usaxmi	r5, r3, pc	; <UNPREDICTABLE>
    10bc:	54434152 	strbpl	r4, [r3], #-338	; 0x152
    10c0:	4942465f 	stmdbmi	r2, {r0, r1, r2, r3, r4, r6, r9, sl, lr}^
    10c4:	205f5f54 	subscs	r5, pc, r4, asr pc	; <UNPREDICTABLE>
    10c8:	5f5f0037 	svcpl	0x005f0037
    10cc:	5f4c4244 	svcpl	0x004c4244
    10d0:	49434544 	stmdbmi	r3, {r2, r6, r8, sl, lr}^
    10d4:	5f4c414d 	svcpl	0x004c414d
    10d8:	5f474944 	svcpl	0x00474944
    10dc:	3731205f 			; <UNDEFINED> instruction: 0x3731205f
    10e0:	445f5f00 	ldrbmi	r5, [pc], #-3840	; 10e8 <_start-0x6f18>
    10e4:	445f4c42 	ldrbmi	r4, [pc], #-3138	; 10ec <_start-0x6f14>
    10e8:	5f5f4749 	svcpl	0x005f4749
    10ec:	00353120 	eorseq	r3, r5, r0, lsr #2
    10f0:	49555f5f 	ldmdbmi	r5, {r0, r1, r2, r3, r4, r6, r8, r9, sl, fp, ip, lr}^
    10f4:	4c5f544e 	cfldrdmi	mvd5, [pc], {78}	; 0x4e
    10f8:	54534145 	ldrbpl	r4, [r3], #-325	; 0x145
    10fc:	4d5f3233 	lfmmi	f3, 2, [pc, #-204]	; 1038 <_start-0x6fc8>
    1100:	5f5f5841 	svcpl	0x005f5841
    1104:	39323420 	ldmdbcc	r2!, {r5, sl, ip, sp}
    1108:	37363934 			; <UNDEFINED> instruction: 0x37363934
    110c:	55353932 	ldrpl	r3, [r5, #-2354]!	; 0x932
    1110:	5f5f004c 	svcpl	0x005f004c
    1114:	5f544c46 	svcpl	0x00544c46
    1118:	49434544 	stmdbmi	r3, {r2, r6, r8, sl, lr}^
    111c:	5f4c414d 	svcpl	0x004c414d
    1120:	5f474944 	svcpl	0x00474944
    1124:	0039205f 	eorseq	r2, r9, pc, asr r0
    1128:	4e495f5f 	mcrmi	15, 2, r5, cr9, cr15, {2}
    112c:	5f363154 	svcpl	0x00363154
    1130:	5f58414d 	svcpl	0x0058414d
    1134:	3233205f 	eorscc	r2, r3, #95	; 0x5f
    1138:	00373637 	eorseq	r3, r7, r7, lsr r6
    113c:	74726175 	ldrbtvc	r6, [r2], #-373	; 0x175
    1140:	7475705f 	ldrbtvc	r7, [r5], #-95	; 0x5f
    1144:	5f5f0073 	svcpl	0x005f0073
    1148:	455a4953 	ldrbmi	r4, [sl, #-2387]	; 0x953
    114c:	575f464f 	ldrbpl	r4, [pc, -pc, asr #12]
    1150:	5f544e49 	svcpl	0x00544e49
    1154:	205f5f54 	subscs	r5, pc, r4, asr pc	; <UNPREDICTABLE>
    1158:	5f5f0034 	svcpl	0x005f0034
    115c:	455a4953 	ldrbmi	r4, [sl, #-2387]	; 0x953
    1160:	495f464f 	ldmdbmi	pc, {r0, r1, r2, r3, r6, r9, sl, lr}^	; <UNPREDICTABLE>
    1164:	5f5f544e 	svcpl	0x005f544e
    1168:	5f003420 	svcpl	0x00003420
    116c:	544e495f 	strbpl	r4, [lr], #-2399	; 0x95f
    1170:	545f3436 	ldrbpl	r3, [pc], #-1078	; 1178 <_start-0x6e88>
    1174:	5f455059 	svcpl	0x00455059
    1178:	6f6c205f 	svcvs	0x006c205f
    117c:	6c20676e 	stcvs	7, cr6, [r0], #-440	; 0xfffffe48
    1180:	20676e6f 	rsbcs	r6, r7, pc, ror #28
    1184:	00746e69 	rsbseq	r6, r4, r9, ror #28
    1188:	48435f5f 	stmdami	r3, {r0, r1, r2, r3, r4, r6, r8, r9, sl, fp, ip, lr}^
    118c:	555f5241 	ldrbpl	r5, [pc, #-577]	; f53 <_start-0x70ad>
    1190:	4749534e 	strbmi	r5, [r9, -lr, asr #6]
    1194:	5f44454e 	svcpl	0x0044454e
    1198:	0031205f 	eorseq	r2, r1, pc, asr r0
    119c:	45445f5f 	strbmi	r5, [r4, #-3935]	; 0xf5f
    11a0:	38323143 	ldmdacc	r2!, {r0, r1, r6, r8, ip, sp}
    11a4:	58414d5f 	stmdapl	r1, {r0, r1, r2, r3, r4, r6, r8, sl, fp, lr}^
    11a8:	5058455f 	subspl	r4, r8, pc, asr r5
    11ac:	36205f5f 	qsaxcc	r5, r0, pc	; <UNPREDICTABLE>
    11b0:	00353431 	eorseq	r3, r5, r1, lsr r4
    11b4:	51445f5f 	cmppl	r4, pc, asr pc
    11b8:	4942465f 	stmdbmi	r2, {r0, r1, r2, r3, r4, r6, r9, sl, lr}^
    11bc:	205f5f54 	subscs	r5, pc, r4, asr pc	; <UNPREDICTABLE>
    11c0:	5f003336 	svcpl	0x00003336
    11c4:	4341555f 	movtmi	r5, #5471	; 0x155f
    11c8:	5f4d5543 	svcpl	0x004d5543
    11cc:	54494246 	strbpl	r4, [r9], #-582	; 0x246
    11d0:	31205f5f 	teqcc	r0, pc, asr pc
    11d4:	5f5f0036 	svcpl	0x005f0036
    11d8:	4c42444c 	cfstrdmi	mvd4, [r2], {76}	; 0x4c
    11dc:	4e45445f 	mcrmi	4, 2, r4, cr5, cr15, {2}
    11e0:	5f4d524f 	svcpl	0x004d524f
    11e4:	5f4e494d 	svcpl	0x004e494d
    11e8:	2e34205f 	mrccs	0, 1, r2, cr4, cr15, {2}
    11ec:	36303439 			; <UNDEFINED> instruction: 0x36303439
    11f0:	35343635 	ldrcc	r3, [r4, #-1589]!	; 0x635
    11f4:	32313438 	eorscc	r3, r1, #56, 8	; 0x38000000
    11f8:	34353634 	ldrtcc	r3, [r5], #-1588	; 0x634
    11fc:	32332d65 	eorscc	r2, r3, #6464	; 0x1940
    1200:	5f004c34 	svcpl	0x00004c34
    1204:	44524f5f 	ldrbmi	r4, [r2], #-3935	; 0xf5f
    1208:	505f5245 	subspl	r5, pc, r5, asr #4
    120c:	455f5044 	ldrbmi	r5, [pc, #-68]	; 11d0 <_start-0x6e30>
    1210:	4149444e 	cmpmi	r9, lr, asr #8
    1214:	205f5f4e 	subscs	r5, pc, lr, asr #30
    1218:	32313433 	eorscc	r3, r1, #855638016	; 0x33000000
    121c:	415f5f00 	cmpmi	pc, r0, lsl #30
    1220:	494d4f54 	stmdbmi	sp, {r2, r4, r6, r8, r9, sl, fp, lr}^
    1224:	43415f43 	movtmi	r5, #8003	; 0x1f43
    1228:	45525f51 	ldrbmi	r5, [r2, #-3921]	; 0xf51
    122c:	0034204c 	eorseq	r2, r4, ip, asr #32
    1230:	49555f5f 	ldmdbmi	r5, {r0, r1, r2, r3, r4, r6, r8, r9, sl, fp, ip, lr}^
    1234:	4c5f544e 	cfldrdmi	mvd5, [pc], {78}	; 0x4e
    1238:	54534145 	ldrbpl	r4, [r3], #-325	; 0x145
    123c:	4d5f3631 	ldclmi	6, cr3, [pc, #-196]	; 1180 <_start-0x6e80>
    1240:	5f5f5841 	svcpl	0x005f5841
    1244:	35353620 	ldrcc	r3, [r5, #-1568]!	; 0x620
    1248:	5f003533 	svcpl	0x00003533
    124c:	4749425f 	smlsldmi	r4, r9, pc, r2	; <UNPREDICTABLE>
    1250:	54534547 	ldrbpl	r4, [r3], #-1351	; 0x547
    1254:	494c415f 	stmdbmi	ip, {r0, r1, r2, r3, r4, r6, r8, lr}^
    1258:	454d4e47 	strbmi	r4, [sp, #-3655]	; 0xe47
    125c:	5f5f544e 	svcpl	0x005f544e
    1260:	5f003820 	svcpl	0x00003820
    1264:	4843575f 	stmdami	r3, {r0, r1, r2, r3, r4, r6, r8, r9, sl, ip, lr}^
    1268:	4d5f5241 	lfmmi	f5, 2, [pc, #-260]	; 116c <_start-0x6e94>
    126c:	5f5f5841 	svcpl	0x005f5841
    1270:	39323420 	ldmdbcc	r2!, {r5, sl, ip, sp}
    1274:	37363934 			; <UNDEFINED> instruction: 0x37363934
    1278:	55353932 	ldrpl	r3, [r5, #-2354]!	; 0x932
    127c:	555f5f00 	ldrbpl	r5, [pc, #-3840]	; 384 <_start-0x7c7c>
    1280:	465f5148 	ldrbmi	r5, [pc], -r8, asr #2
    1284:	5f544942 	svcpl	0x00544942
    1288:	3631205f 			; <UNDEFINED> instruction: 0x3631205f
    128c:	53504700 	cmppl	r0, #0, 14
    1290:	20305445 	eorscs	r5, r0, r5, asr #8
    1294:	30327830 	eorscc	r7, r2, r0, lsr r8
    1298:	30303032 	eorscc	r3, r0, r2, lsr r0
    129c:	5f004331 	svcpl	0x00004331
    12a0:	5151555f 	cmppl	r1, pc, asr r5
    12a4:	4942465f 	stmdbmi	r2, {r0, r1, r2, r3, r4, r6, r9, sl, lr}^
    12a8:	205f5f54 	subscs	r5, pc, r4, asr pc	; <UNPREDICTABLE>
    12ac:	5f5f0038 	svcpl	0x005f0038
    12b0:	31434544 	cmpcc	r3, r4, asr #10
    12b4:	4d5f3832 	ldclmi	8, cr3, [pc, #-200]	; 11f4 <_start-0x6e0c>
    12b8:	5f5f5841 	svcpl	0x005f5841
    12bc:	392e3920 	stmdbcc	lr!, {r5, r8, fp, ip, sp}
    12c0:	39393939 	ldmdbcc	r9!, {r0, r3, r4, r5, r8, fp, ip, sp}
    12c4:	39393939 	ldmdbcc	r9!, {r0, r3, r4, r5, r8, fp, ip, sp}
    12c8:	39393939 	ldmdbcc	r9!, {r0, r3, r4, r5, r8, fp, ip, sp}
    12cc:	39393939 	ldmdbcc	r9!, {r0, r3, r4, r5, r8, fp, ip, sp}
    12d0:	39393939 	ldmdbcc	r9!, {r0, r3, r4, r5, r8, fp, ip, sp}
    12d4:	39393939 	ldmdbcc	r9!, {r0, r3, r4, r5, r8, fp, ip, sp}
    12d8:	39393939 	ldmdbcc	r9!, {r0, r3, r4, r5, r8, fp, ip, sp}
    12dc:	39393939 	ldmdbcc	r9!, {r0, r3, r4, r5, r8, fp, ip, sp}
    12e0:	34313645 	ldrtcc	r3, [r1], #-1605	; 0x645
    12e4:	004c4434 	subeq	r4, ip, r4, lsr r4
    12e8:	4e495f5f 	mcrmi	15, 2, r5, cr9, cr15, {2}
    12ec:	41465f54 	cmpmi	r6, r4, asr pc
    12f0:	36315453 			; <UNDEFINED> instruction: 0x36315453
    12f4:	58414d5f 	stmdapl	r1, {r0, r1, r2, r3, r4, r6, r8, sl, fp, lr}^
    12f8:	32205f5f 	eorcc	r5, r0, #380	; 0x17c
    12fc:	34373431 	ldrtcc	r3, [r7], #-1073	; 0x431
    1300:	34363338 	ldrtcc	r3, [r6], #-824	; 0x338
    1304:	5f5f0037 	svcpl	0x005f0037
    1308:	544e4955 	strbpl	r4, [lr], #-2389	; 0x955
    130c:	41454c5f 	cmpmi	r5, pc, asr ip
    1310:	36315453 			; <UNDEFINED> instruction: 0x36315453
    1314:	5059545f 	subspl	r5, r9, pc, asr r4
    1318:	205f5f45 	subscs	r5, pc, r5, asr #30
    131c:	726f6873 	rsbvc	r6, pc, #7536640	; 0x730000
    1320:	6e752074 	mrcvs	0, 3, r2, cr5, cr4, {3}
    1324:	6e676973 	mcrvs	9, 3, r6, cr7, cr3, {3}
    1328:	69206465 	stmdbvs	r0!, {r0, r2, r5, r6, sl, sp, lr}
    132c:	5f00746e 	svcpl	0x0000746e
    1330:	5154555f 	cmppl	r4, pc, asr r5
    1334:	4942465f 	stmdbmi	r2, {r0, r1, r2, r3, r4, r6, r9, sl, lr}^
    1338:	205f5f54 	subscs	r5, pc, r4, asr pc	; <UNPREDICTABLE>
    133c:	00383231 	eorseq	r3, r8, r1, lsr r2
    1340:	42445f5f 	submi	r5, r4, #380	; 0x17c
    1344:	414d5f4c 	cmpmi	sp, ip, asr #30
    1348:	58455f58 	stmdapl	r5, {r3, r4, r6, r8, r9, sl, fp, ip, lr}^
    134c:	205f5f50 	subscs	r5, pc, r0, asr pc	; <UNPREDICTABLE>
    1350:	34323031 	ldrtcc	r3, [r2], #-49	; 0x31
    1354:	535f5f00 	cmppl	pc, #0, 30
    1358:	5f434454 	svcpl	0x00434454
    135c:	0031205f 	eorseq	r2, r1, pc, asr r0
    1360:	43475f5f 	movtmi	r5, #32607	; 0x7f5f
    1364:	54415f43 	strbpl	r5, [r1], #-3907	; 0xf43
    1368:	43494d4f 	movtmi	r4, #40271	; 0x9d4f
    136c:	4148435f 	cmpmi	r8, pc, asr r3
    1370:	4f4c5f52 	svcmi	0x004c5f52
    1374:	465f4b43 	ldrbmi	r4, [pc], -r3, asr #22
    1378:	20454552 	subcs	r4, r5, r2, asr r5
    137c:	50470031 	subpl	r0, r7, r1, lsr r0
    1380:	20445550 	subcs	r5, r4, r0, asr r5
    1384:	30327830 	eorscc	r7, r2, r0, lsr r8
    1388:	30303032 	eorscc	r3, r0, r2, lsr r0
    138c:	5f003439 	svcpl	0x00003439
    1390:	544c465f 	strbpl	r4, [ip], #-1631	; 0x65f
    1394:	4156455f 	cmpmi	r6, pc, asr r5
    1398:	454d5f4c 	strbmi	r5, [sp, #-3916]	; 0xf4c
    139c:	444f4854 	strbmi	r4, [pc], #-2132	; 13a4 <_start-0x6c5c>
    13a0:	30205f5f 	eorcc	r5, r0, pc, asr pc
    13a4:	555f5f00 	ldrbpl	r5, [pc, #-3840]	; 4ac <_start-0x7b54>
    13a8:	495f4154 	ldmdbmi	pc, {r2, r4, r6, r8, lr}^	; <UNPREDICTABLE>
    13ac:	5f544942 	svcpl	0x00544942
    13b0:	3436205f 	ldrtcc	r2, [r6], #-95	; 0x5f
    13b4:	415f5f00 	cmpmi	pc, r0, lsl #30
    13b8:	494d4f54 	stmdbmi	sp, {r2, r4, r6, r8, r9, sl, fp, lr}^
    13bc:	43415f43 	movtmi	r5, #8003	; 0x1f43
    13c0:	52495551 	subpl	r5, r9, #339738624	; 0x14400000
    13c4:	00322045 	eorseq	r2, r2, r5, asr #32
    13c8:	45445f5f 	strbmi	r5, [r4, #-3935]	; 0xf5f
    13cc:	5f343643 	svcpl	0x00343643
    13d0:	49535045 	ldmdbmi	r3, {r0, r2, r6, ip, lr}^
    13d4:	5f4e4f4c 	svcpl	0x004e4f4c
    13d8:	4531205f 	ldrmi	r2, [r1, #-95]!	; 0x5f
    13dc:	4435312d 	ldrtmi	r3, [r5], #-301	; 0x12d
    13e0:	5f5f0044 	svcpl	0x005f0044
    13e4:	43414c55 	movtmi	r4, #7253	; 0x1c55
    13e8:	5f4d5543 	svcpl	0x004d5543
    13ec:	49535045 	ldmdbmi	r3, {r0, r2, r6, ip, lr}^
    13f0:	5f4e4f4c 	svcpl	0x004e4f4c
    13f4:	7830205f 	ldmdavc	r0!, {r0, r1, r2, r3, r4, r6, sp}
    13f8:	332d5031 	teqcc	sp, #49	; 0x31
    13fc:	4b4c5532 	blmi	13168cc <multiplylookup+0x130d1fc>
    1400:	554e4700 	strbpl	r4, [lr, #-1792]	; 0x700
    1404:	34204320 	strtcc	r4, [r0], #-800	; 0x320
    1408:	322e372e 	eorcc	r3, lr, #12058624	; 0xb80000
    140c:	475f5f00 	ldrbmi	r5, [pc, -r0, lsl #30]
    1410:	415f4343 	cmpmi	pc, r3, asr #6
    1414:	494d4f54 	stmdbmi	sp, {r2, r4, r6, r8, r9, sl, fp, lr}^
    1418:	4e495f43 	cdpmi	15, 4, cr5, cr9, cr3, {2}
    141c:	4f4c5f54 	svcmi	0x004c5f54
    1420:	465f4b43 	ldrbmi	r4, [pc], -r3, asr #22
    1424:	20454552 	subcs	r4, r5, r2, asr r5
    1428:	5f5f0031 	svcpl	0x005f0031
    142c:	43415355 	movtmi	r5, #4949	; 0x1355
    1430:	5f4d5543 	svcpl	0x004d5543
    1434:	54494246 	strbpl	r4, [r9], #-582	; 0x246
    1438:	38205f5f 	stmdacc	r0!, {r0, r1, r2, r3, r4, r6, r8, r9, sl, fp, ip, lr}
    143c:	555f5f00 	ldrbpl	r5, [pc, #-3840]	; 544 <_start-0x7abc>
    1440:	495f5144 	ldmdbmi	pc, {r2, r6, r8, ip, lr}^	; <UNPREDICTABLE>
    1444:	5f544942 	svcpl	0x00544942
    1448:	0030205f 	eorseq	r2, r0, pc, asr r0
    144c:	49535f5f 	ldmdbmi	r3, {r0, r1, r2, r3, r4, r6, r8, r9, sl, fp, ip, lr}^
    1450:	464f455a 			; <UNDEFINED> instruction: 0x464f455a
    1454:	4843575f 	stmdami	r3, {r0, r1, r2, r3, r4, r6, r8, r9, sl, ip, lr}^
    1458:	545f5241 	ldrbpl	r5, [pc], #-577	; 1460 <_start-0x6ba0>
    145c:	34205f5f 	strtcc	r5, [r0], #-3935	; 0xf5f
    1460:	555f5f00 	ldrbpl	r5, [pc, #-3840]	; 568 <_start-0x7a98>
    1464:	43434153 	movtmi	r4, #12627	; 0x3153
    1468:	4d5f4d55 	ldclmi	13, cr4, [pc, #-340]	; 131c <_start-0x6ce4>
    146c:	5f5f5841 	svcpl	0x005f5841
    1470:	46583020 	ldrbmi	r3, [r8], -r0, lsr #32
    1474:	50464646 	subpl	r4, r6, r6, asr #12
    1478:	4855382d 	ldmdami	r5, {r0, r2, r3, r5, fp, ip, sp}^
    147c:	5f5f004b 	svcpl	0x005f004b
    1480:	544e4955 	strbpl	r4, [lr], #-2389	; 0x955
    1484:	4d5f3233 	lfmmi	f3, 2, [pc, #-204]	; 13c0 <_start-0x6c40>
    1488:	5f5f5841 	svcpl	0x005f5841
    148c:	39323420 	ldmdbcc	r2!, {r5, sl, ip, sp}
    1490:	37363934 			; <UNDEFINED> instruction: 0x37363934
    1494:	55353932 	ldrpl	r3, [r5, #-2354]!	; 0x932
    1498:	5f5f004c 	svcpl	0x005f004c
    149c:	544e4955 	strbpl	r4, [lr], #-2389	; 0x955
    14a0:	5341465f 	movtpl	r4, #5727	; 0x165f
    14a4:	5f323354 	svcpl	0x00323354
    14a8:	45505954 	ldrbmi	r5, [r0, #-2388]	; 0x954
    14ac:	75205f5f 	strvc	r5, [r0, #-3935]!	; 0xf5f
    14b0:	6769736e 	strbvs	r7, [r9, -lr, ror #6]!
    14b4:	2064656e 	rsbcs	r6, r4, lr, ror #10
    14b8:	00746e69 	rsbseq	r6, r4, r9, ror #28
    14bc:	444c5f5f 	strbmi	r5, [ip], #-3935	; 0xf5f
    14c0:	445f4c42 	ldrbmi	r4, [pc], #-3138	; 14c8 <_start-0x6b38>
    14c4:	5f5f4749 	svcpl	0x005f4749
    14c8:	00353120 	eorseq	r3, r5, r0, lsr #2
    14cc:	4c455f5f 	mcrrmi	15, 5, r5, r5, cr15
    14d0:	205f5f46 	subscs	r5, pc, r6, asr #30
    14d4:	5f5f0031 	svcpl	0x005f0031
    14d8:	4c42444c 	cfstrdmi	mvd4, [r2], {76}	; 0x4c
    14dc:	5350455f 	cmppl	r0, #398458880	; 0x17c00000
    14e0:	4e4f4c49 	cdpmi	12, 4, cr4, cr15, cr9, {2}
    14e4:	32205f5f 	eorcc	r5, r0, #380	; 0x17c
    14e8:	3032322e 	eorscc	r3, r2, lr, lsr #4
    14ec:	30363434 	eorscc	r3, r6, r4, lsr r4
    14f0:	35323934 	ldrcc	r3, [r2, #-2356]!	; 0x934
    14f4:	33313330 	teqcc	r1, #48, 6	; 0xc0000000
    14f8:	312d6531 	teqcc	sp, r1, lsr r5
    14fc:	5f004c36 	svcpl	0x00004c36
    1500:	6d72615f 	ldfvse	f6, [r2, #-380]!	; 0xfffffe84
    1504:	31205f5f 	teqcc	r0, pc, asr pc
    1508:	485f5f00 	ldmdami	pc, {r8, r9, sl, fp, ip, lr}^	; <UNPREDICTABLE>
    150c:	42465f41 	submi	r5, r6, #260	; 0x104
    1510:	5f5f5449 	svcpl	0x005f5449
    1514:	5f003720 	svcpl	0x00003720
    1518:	5151555f 	cmppl	r1, pc, asr r5
    151c:	4942495f 	stmdbmi	r2, {r0, r1, r2, r3, r4, r6, r8, fp, lr}^
    1520:	205f5f54 	subscs	r5, pc, r4, asr pc	; <UNPREDICTABLE>
    1524:	5f5f0030 	svcpl	0x005f0030
    1528:	465f5151 			; <UNDEFINED> instruction: 0x465f5151
    152c:	5f544942 	svcpl	0x00544942
    1530:	0037205f 	eorseq	r2, r7, pc, asr r0
    1534:	41485f5f 	cmpmi	r8, pc, asr pc
    1538:	4942495f 	stmdbmi	r2, {r0, r1, r2, r3, r4, r6, r8, fp, lr}^
    153c:	205f5f54 	subscs	r5, pc, r4, asr pc	; <UNPREDICTABLE>
    1540:	5f5f0038 	svcpl	0x005f0038
    1544:	544e4955 	strbpl	r4, [lr], #-2389	; 0x955
    1548:	545f3233 	ldrbpl	r3, [pc], #-563	; 1550 <_start-0x6ab0>
    154c:	5f455059 	svcpl	0x00455059
    1550:	6f6c205f 	svcvs	0x006c205f
    1554:	7520676e 	strvc	r6, [r0, #-1902]!	; 0x76e
    1558:	6769736e 	strbvs	r7, [r9, -lr, ror #6]!
    155c:	2064656e 	rsbcs	r6, r4, lr, ror #10
    1560:	00746e69 	rsbseq	r6, r4, r9, ror #28
    1564:	42445f5f 	submi	r5, r4, #380	; 0x17c
    1568:	494d5f4c 	stmdbmi	sp, {r2, r3, r6, r8, r9, sl, fp, ip, lr}^
    156c:	205f5f4e 	subscs	r5, pc, lr, asr #30
    1570:	6f642828 	svcvs	0x00642828
    1574:	656c6275 	strbvs	r6, [ip, #-629]!	; 0x275
    1578:	322e3229 	eorcc	r3, lr, #-1879048190	; 0x90000002
    157c:	37303532 			; <UNDEFINED> instruction: 0x37303532
    1580:	38353833 	ldmdacc	r5!, {r0, r1, r4, r5, fp, ip, sp}
    1584:	32373035 	eorscc	r3, r7, #53	; 0x35
    1588:	65343130 	ldrvs	r3, [r4, #-304]!	; 0x130
    158c:	3830332d 	ldmdacc	r0!, {r0, r2, r3, r5, r8, r9, ip, sp}
    1590:	5f00294c 	svcpl	0x0000294c
    1594:	544e495f 	strbpl	r4, [lr], #-2399	; 0x95f
    1598:	5341465f 	movtpl	r4, #5727	; 0x165f
    159c:	5f343654 	svcpl	0x00343654
    15a0:	5f58414d 	svcpl	0x0058414d
    15a4:	3239205f 	eorscc	r2, r9, #95	; 0x5f
    15a8:	37333332 			; <UNDEFINED> instruction: 0x37333332
    15ac:	36333032 			; <UNDEFINED> instruction: 0x36333032
    15b0:	37343538 			; <UNDEFINED> instruction: 0x37343538
    15b4:	30383537 	eorscc	r3, r8, r7, lsr r5
    15b8:	004c4c37 	subeq	r4, ip, r7, lsr ip
    15bc:	44555f5f 	ldrbmi	r5, [r5], #-3935	; 0xf5f
    15c0:	42465f51 	submi	r5, r6, #324	; 0x144
    15c4:	5f5f5449 	svcpl	0x005f5449
    15c8:	00343620 	eorseq	r3, r4, r0, lsr #12
    15cc:	42445f5f 	submi	r5, r4, #380	; 0x17c
    15d0:	494d5f4c 	stmdbmi	sp, {r2, r3, r6, r8, r9, sl, fp, ip, lr}^
    15d4:	58455f4e 	stmdapl	r5, {r1, r2, r3, r6, r8, r9, sl, fp, ip, lr}^
    15d8:	205f5f50 	subscs	r5, pc, r0, asr pc	; <UNPREDICTABLE>
    15dc:	30312d28 	eorscc	r2, r1, r8, lsr #26
    15e0:	00293132 	eoreq	r3, r9, r2, lsr r1
    15e4:	49555f5f 	ldmdbmi	r5, {r0, r1, r2, r3, r4, r6, r8, r9, sl, fp, ip, lr}^
    15e8:	3631544e 	ldrtcc	r5, [r1], -lr, asr #8
    15ec:	58414d5f 	stmdapl	r1, {r0, r1, r2, r3, r4, r6, r8, sl, fp, lr}^
    15f0:	36205f5f 	qsaxcc	r5, r0, pc	; <UNPREDICTABLE>
    15f4:	35333535 	ldrcc	r3, [r3, #-1333]!	; 0x535
    15f8:	445f5f00 	ldrbmi	r5, [pc], #-3840	; 1600 <_start-0x6a00>
    15fc:	32314345 	eorscc	r4, r1, #335544321	; 0x14000001
    1600:	414d5f38 	cmpmi	sp, r8, lsr pc
    1604:	445f544e 	ldrbmi	r5, [pc], #-1102	; 160c <_start-0x69f4>
    1608:	5f5f4749 	svcpl	0x005f4749
    160c:	00343320 	eorseq	r3, r4, r0, lsr #6
    1610:	4f4c5f5f 	svcmi	0x004c5f5f
    1614:	4c5f474e 	mrrcmi	7, 4, r4, pc, cr14	; <UNPREDICTABLE>
    1618:	5f474e4f 	svcpl	0x00474e4f
    161c:	5f58414d 	svcpl	0x0058414d
    1620:	3239205f 	eorscc	r2, r9, #95	; 0x5f
    1624:	37333332 			; <UNDEFINED> instruction: 0x37333332
    1628:	36333032 			; <UNDEFINED> instruction: 0x36333032
    162c:	37343538 			; <UNDEFINED> instruction: 0x37343538
    1630:	30383537 	eorscc	r3, r8, r7, lsr r5
    1634:	004c4c37 	subeq	r4, ip, r7, lsr ip
    1638:	51445f5f 	cmppl	r4, pc, asr pc
    163c:	4942495f 	stmdbmi	r2, {r0, r1, r2, r3, r4, r6, r8, fp, lr}^
    1640:	205f5f54 	subscs	r5, pc, r4, asr pc	; <UNPREDICTABLE>
    1644:	65680030 	strbvs	r0, [r8, #-48]!	; 0x30
    1648:	72747378 	rsbsvc	r7, r4, #120, 6	; 0xe0000001
    164c:	00676e69 	rsbeq	r6, r7, r9, ror #28
    1650:	43475f5f 	movtmi	r5, #32607	; 0x7f5f
    1654:	54415f43 	strbpl	r5, [r1], #-3907	; 0xf43
    1658:	43494d4f 	movtmi	r4, #40271	; 0x9d4f
    165c:	4148435f 	cmpmi	r8, pc, asr r3
    1660:	5f363152 	svcpl	0x00363152
    1664:	4f4c5f54 	svcmi	0x004c5f54
    1668:	465f4b43 	ldrbmi	r4, [pc], -r3, asr #22
    166c:	20454552 	subcs	r4, r5, r2, asr r5
    1670:	5f5f0031 	svcpl	0x005f0031
    1674:	44525450 	ldrbmi	r5, [r2], #-1104	; 0x450
    1678:	5f464649 	svcpl	0x00464649
    167c:	5f58414d 	svcpl	0x0058414d
    1680:	3132205f 	teqcc	r2, pc, asr r0
    1684:	38343734 	ldmdacc	r4!, {r2, r4, r5, r8, r9, sl, ip, sp}
    1688:	37343633 			; <UNDEFINED> instruction: 0x37343633
    168c:	58554100 	ldmdapl	r5, {r8, lr}^
    1690:	5f554d5f 	svcpl	0x00554d5f
    1694:	5f52434c 	svcpl	0x0052434c
    1698:	20474552 	subcs	r4, r7, r2, asr r5
    169c:	30327830 	eorscc	r7, r2, r0, lsr r8
    16a0:	30353132 	eorscc	r3, r5, r2, lsr r1
    16a4:	5f004334 	svcpl	0x00004334
    16a8:	544c465f 	strbpl	r4, [ip], #-1631	; 0x65f
    16ac:	4749445f 	smlsldmi	r4, r9, pc, r4	; <UNPREDICTABLE>
    16b0:	36205f5f 	qsaxcc	r5, r0, pc	; <UNPREDICTABLE>
    16b4:	495f5f00 	ldmdbmi	pc, {r8, r9, sl, fp, ip, lr}^	; <UNPREDICTABLE>
    16b8:	3233544e 	eorscc	r5, r3, #1308622848	; 0x4e000000
    16bc:	5059545f 	subspl	r5, r9, pc, asr r4
    16c0:	205f5f45 	subscs	r5, pc, r5, asr #30
    16c4:	676e6f6c 	strbvs	r6, [lr, -ip, ror #30]!
    16c8:	746e6920 	strbtvc	r6, [lr], #-2336	; 0x920
    16cc:	555f5f00 	ldrbpl	r5, [pc, #-3840]	; 7d4 <_start-0x782c>
    16d0:	43434153 	movtmi	r4, #12627	; 0x3153
    16d4:	4d5f4d55 	ldclmi	13, cr4, [pc, #-340]	; 1588 <_start-0x6a78>
    16d8:	5f5f4e49 	svcpl	0x005f4e49
    16dc:	302e3020 	eorcc	r3, lr, r0, lsr #32
    16e0:	004b4855 	subeq	r4, fp, r5, asr r8
    16e4:	4e495f5f 	mcrmi	15, 2, r5, cr9, cr15, {2}
    16e8:	58414d54 	stmdapl	r1, {r2, r4, r6, r8, sl, fp, lr}^
    16ec:	6328435f 	teqvs	r8, #2080374785	; 0x7c000001
    16f0:	20632029 	rsbcs	r2, r3, r9, lsr #32
    16f4:	4c202323 	stcmi	3, cr2, [r0], #-140	; 0xffffff74
    16f8:	5f5f004c 	svcpl	0x005f004c
    16fc:	544e4955 	strbpl	r4, [lr], #-2389	; 0x955
    1700:	41454c5f 	cmpmi	r5, pc, asr ip
    1704:	32335453 	eorscc	r5, r3, #1392508928	; 0x53000000
    1708:	5059545f 	subspl	r5, r9, pc, asr r4
    170c:	205f5f45 	subscs	r5, pc, r5, asr #30
    1710:	676e6f6c 	strbvs	r6, [lr, -ip, ror #30]!
    1714:	736e7520 	cmnvc	lr, #32, 10	; 0x8000000
    1718:	656e6769 	strbvs	r6, [lr, #-1897]!	; 0x769
    171c:	6e692064 	cdpvs	0, 6, cr2, cr9, cr4, {3}
    1720:	5f5f0074 	svcpl	0x005f0074
    1724:	36544e49 	ldrbcc	r4, [r4], -r9, asr #28
    1728:	28435f34 	stmdacs	r3, {r2, r4, r5, r8, r9, sl, fp, ip, lr}^
    172c:	63202963 	teqvs	r0, #1622016	; 0x18c000
    1730:	20232320 	eorcs	r2, r3, r0, lsr #6
    1734:	5f004c4c 	svcpl	0x00004c4c
    1738:	544e495f 	strbpl	r4, [lr], #-2399	; 0x95f
    173c:	41454c5f 	cmpmi	r5, pc, asr ip
    1740:	5f385453 	svcpl	0x00385453
    1744:	45505954 	ldrbmi	r5, [r0, #-2388]	; 0x954
    1748:	73205f5f 	teqvc	r0, #380	; 0x17c
    174c:	656e6769 	strbvs	r6, [lr, #-1897]!	; 0x769
    1750:	68632064 	stmdavs	r3!, {r2, r5, r6, sp}^
    1754:	5f007261 	svcpl	0x00007261
    1758:	4e49555f 	mcrmi	5, 2, r5, cr9, cr15, {2}
    175c:	5f363154 	svcpl	0x00363154
    1760:	29632843 	stmdbcs	r3!, {r0, r1, r6, fp, sp}^
    1764:	5f006320 	svcpl	0x00006320
    1768:	5a49535f 	bpl	12564ec <multiplylookup+0x124ce1c>
    176c:	5f464f45 	svcpl	0x00464f45
    1770:	414f4c46 	cmpmi	pc, r6, asr #24
    1774:	205f5f54 	subscs	r5, pc, r4, asr pc	; <UNPREDICTABLE>
    1778:	5f5f0034 	svcpl	0x005f0034
    177c:	5f4c4244 	svcpl	0x004c4244
    1780:	5f58414d 	svcpl	0x0058414d
    1784:	455f3031 	ldrbmi	r3, [pc, #-49]	; 175b <_start-0x68a5>
    1788:	5f5f5058 	svcpl	0x005f5058
    178c:	38303320 	ldmdacc	r0!, {r5, r8, r9, ip, sp}
    1790:	465f5f00 	ldrbmi	r5, [pc], -r0, lsl #30
    1794:	445f544c 	ldrbmi	r5, [pc], #-1100	; 179c <_start-0x6864>
    1798:	524f4e45 	subpl	r4, pc, #1104	; 0x450
    179c:	494d5f4d 	stmdbmi	sp, {r0, r2, r3, r6, r8, r9, sl, fp, ip, lr}^
    17a0:	205f5f4e 	subscs	r5, pc, lr, asr #30
    17a4:	30342e31 	eorscc	r2, r4, r1, lsr lr
    17a8:	38393231 	ldmdacc	r9!, {r0, r4, r5, r9, ip, sp}
    17ac:	33343634 	teqcc	r4, #52, 12	; 0x3400000
    17b0:	31383432 	teqcc	r8, r2, lsr r4
    17b4:	2d653137 	stfcse	f3, [r5, #-220]!	; 0xffffff24
    17b8:	00463534 	subeq	r3, r6, r4, lsr r5
    17bc:	4c465f5f 	mcrrmi	15, 5, r5, r6, cr15
    17c0:	50455f54 	subpl	r5, r5, r4, asr pc
    17c4:	4f4c4953 	svcmi	0x004c4953
    17c8:	205f5f4e 	subscs	r5, pc, lr, asr #30
    17cc:	39312e31 	ldmdbcc	r1!, {r0, r4, r5, r9, sl, fp, sp}
    17d0:	32393032 	eorscc	r3, r9, #50	; 0x32
    17d4:	35353938 	ldrcc	r3, [r5, #-2360]!	; 0x938
    17d8:	31383730 	teqcc	r8, r0, lsr r7
    17dc:	2d653532 	cfstr64cs	mvdx3, [r5, #-200]!	; 0xffffff38
    17e0:	5f004637 	svcpl	0x00004637
    17e4:	544e495f 	strbpl	r4, [lr], #-2399	; 0x95f
    17e8:	41454c5f 	cmpmi	r5, pc, asr ip
    17ec:	32335453 	eorscc	r5, r3, #1392508928	; 0x53000000
    17f0:	58414d5f 	stmdapl	r1, {r0, r1, r2, r3, r4, r6, r8, sl, fp, lr}^
    17f4:	32205f5f 	eorcc	r5, r0, #380	; 0x17c
    17f8:	34373431 	ldrtcc	r3, [r7], #-1073	; 0x431
    17fc:	34363338 	ldrtcc	r3, [r6], #-824	; 0x338
    1800:	5f004c37 	svcpl	0x00004c37
    1804:	4d52415f 	ldfmie	f4, [r2, #-380]	; 0xfffffe84
    1808:	4352415f 	cmpmi	r2, #-1073741801	; 0xc0000017
    180c:	54345f48 	ldrtpl	r5, [r4], #-3912	; 0xf48
    1810:	31205f5f 	teqcc	r0, pc, asr pc
    1814:	555f5f00 	ldrbpl	r5, [pc, #-3840]	; 91c <_start-0x76e4>
    1818:	43434153 	movtmi	r4, #12627	; 0x3153
    181c:	495f4d55 	ldmdbmi	pc, {r0, r2, r4, r6, r8, sl, fp, lr}^	; <UNPREDICTABLE>
    1820:	5f544942 	svcpl	0x00544942
    1824:	0038205f 	eorseq	r2, r8, pc, asr r0
    1828:	524f5f5f 	subpl	r5, pc, #380	; 0x17c
    182c:	5f524544 	svcpl	0x00524544
    1830:	5454494c 	ldrbpl	r4, [r4], #-2380	; 0x94c
    1834:	455f454c 	ldrbmi	r4, [pc, #-1356]	; 12f0 <_start-0x6d10>
    1838:	4149444e 	cmpmi	r9, lr, asr #8
    183c:	205f5f4e 	subscs	r5, pc, lr, asr #30
    1840:	34333231 	ldrtcc	r3, [r3], #-561	; 0x231
    1844:	575f5f00 	ldrbpl	r5, [pc, -r0, lsl #30]
    1848:	5f544e49 	svcpl	0x00544e49
    184c:	45505954 	ldrbmi	r5, [r0, #-2388]	; 0x954
    1850:	75205f5f 	strvc	r5, [r0, #-3935]!	; 0xf5f
    1854:	6769736e 	strbvs	r7, [r9, -lr, ror #6]!
    1858:	2064656e 	rsbcs	r6, r4, lr, ror #10
    185c:	00746e69 	rsbseq	r6, r4, r9, ror #28
    1860:	5f4d5241 	svcpl	0x004d5241
    1864:	454d4954 	strbmi	r4, [sp, #-2388]	; 0x954
    1868:	54435f52 	strbpl	r5, [r3], #-3922	; 0xf52
    186c:	7830204c 	ldmdavc	r0!, {r2, r3, r6, sp}
    1870:	30303032 	eorscc	r3, r0, r2, lsr r0
    1874:	38303442 	ldmdacc	r0!, {r1, r6, sl, ip, sp}
    1878:	495f5f00 	ldmdbmi	pc, {r8, r9, sl, fp, ip, lr}^	; <UNPREDICTABLE>
    187c:	4c5f544e 	cfldrdmi	mvd5, [pc], {78}	; 0x4e
    1880:	54534145 	ldrbpl	r4, [r3], #-325	; 0x145
    1884:	545f3436 	ldrbpl	r3, [pc], #-1078	; 188c <_start-0x6774>
    1888:	5f455059 	svcpl	0x00455059
    188c:	6f6c205f 	svcvs	0x006c205f
    1890:	6c20676e 	stcvs	7, cr6, [r0], #-440	; 0xfffffe48
    1894:	20676e6f 	rsbcs	r6, r7, pc, ror #28
    1898:	00746e69 	rsbseq	r6, r4, r9, ror #28
    189c:	54415f5f 	strbpl	r5, [r1], #-3935	; 0xf5f
    18a0:	43494d4f 	movtmi	r4, #40271	; 0x9d4f
    18a4:	4c45525f 	sfmmi	f5, 2, [r5], {95}	; 0x5f
    18a8:	44455841 	strbmi	r5, [r5], #-2113	; 0x841
    18ac:	5f003020 	svcpl	0x00003020
    18b0:	5f41445f 	svcpl	0x0041445f
    18b4:	54494249 	strbpl	r4, [r9], #-585	; 0x249
    18b8:	33205f5f 	teqcc	r0, #380	; 0x17c
    18bc:	5f5f0032 	svcpl	0x005f0032
    18c0:	4343414c 	movtmi	r4, #12620	; 0x314c
    18c4:	4d5f4d55 	ldclmi	13, cr4, [pc, #-340]	; 1778 <_start-0x6888>
    18c8:	5f5f5841 	svcpl	0x005f5841
    18cc:	37583020 	ldrbcc	r3, [r8, -r0, lsr #32]
    18d0:	46464646 	strbmi	r4, [r6], -r6, asr #12
    18d4:	46464646 	strbmi	r4, [r6], -r6, asr #12
    18d8:	46464646 	strbmi	r4, [r6], -r6, asr #12
    18dc:	50464646 	subpl	r4, r6, r6, asr #12
    18e0:	4c31332d 	ldcmi	3, cr3, [r1], #-180	; 0xffffff4c
    18e4:	5f5f004b 	svcpl	0x005f004b
    18e8:	414c4c55 	cmpmi	ip, r5, asr ip
    18ec:	4d554343 	ldclmi	3, cr4, [r5, #-268]	; 0xfffffef4
    18f0:	4e494d5f 	mcrmi	13, 2, r4, cr9, cr15, {2}
    18f4:	30205f5f 	eorcc	r5, r0, pc, asr pc
    18f8:	4c55302e 	mrrcmi	0, 2, r3, r5, cr14
    18fc:	5f004b4c 	svcpl	0x00004b4c
    1900:	4345445f 	movtmi	r4, #21599	; 0x545f
    1904:	5f383231 	svcpl	0x00383231
    1908:	5f4e494d 	svcpl	0x004e494d
    190c:	4531205f 	ldrmi	r2, [r1, #-95]!	; 0x5f
    1910:	3431362d 	ldrtcc	r3, [r1], #-1581	; 0x62d
    1914:	004c4433 	subeq	r4, ip, r3, lsr r4
    1918:	45445f5f 	strbmi	r5, [r4, #-3935]	; 0xf5f
    191c:	5f323343 	svcpl	0x00323343
    1920:	544e414d 	strbpl	r4, [lr], #-333	; 0x14d
    1924:	4749445f 	smlsldmi	r4, r9, pc, r4	; <UNPREDICTABLE>
    1928:	37205f5f 			; <UNDEFINED> instruction: 0x37205f5f
    192c:	72617500 	rsbvc	r7, r1, #0, 10
    1930:	65735f74 	ldrbvs	r5, [r3, #-3956]!	; 0xf74
    1934:	5f00646e 	svcpl	0x0000646e
    1938:	4749535f 	smlsldmi	r5, r9, pc, r3	; <UNPREDICTABLE>
    193c:	4f54415f 	svcmi	0x0054415f
    1940:	5f43494d 	svcpl	0x0043494d
    1944:	5f58414d 	svcpl	0x0058414d
    1948:	3132205f 	teqcc	r2, pc, asr r0
    194c:	38343734 	ldmdacc	r4!, {r2, r4, r5, r8, r9, sl, ip, sp}
    1950:	37343633 			; <UNDEFINED> instruction: 0x37343633
    1954:	495f5f00 	ldmdbmi	pc, {r8, r9, sl, fp, ip, lr}^	; <UNPREDICTABLE>
    1958:	4c5f544e 	cfldrdmi	mvd5, [pc], {78}	; 0x4e
    195c:	54534145 	ldrbpl	r4, [r3], #-325	; 0x145
    1960:	545f3233 	ldrbpl	r3, [pc], #-563	; 1968 <_start-0x6698>
    1964:	5f455059 	svcpl	0x00455059
    1968:	6f6c205f 	svcvs	0x006c205f
    196c:	6920676e 	stmdbvs	r0!, {r1, r2, r3, r5, r6, r8, r9, sl, sp, lr}
    1970:	5f00746e 	svcpl	0x0000746e
    1974:	4341535f 	movtmi	r5, #4959	; 0x135f
    1978:	5f4d5543 	svcpl	0x004d5543
    197c:	5f58414d 	svcpl	0x0058414d
    1980:	5830205f 	ldmdapl	r0!, {r0, r1, r2, r3, r4, r6, sp}
    1984:	46464637 			; <UNDEFINED> instruction: 0x46464637
    1988:	48372d50 	ldmdami	r7!, {r4, r6, r8, sl, fp, sp}
    198c:	5f5f004b 	svcpl	0x005f004b
    1990:	4d544e49 	ldclmi	14, cr4, [r4, #-292]	; 0xfffffedc
    1994:	4d5f5841 	ldclmi	8, cr5, [pc, #-260]	; 1898 <_start-0x6768>
    1998:	5f5f5841 	svcpl	0x005f5841
    199c:	32323920 	eorscc	r3, r2, #32, 18	; 0x80000
    19a0:	32373333 	eorscc	r3, r7, #-872415232	; 0xcc000000
    19a4:	38363330 	ldmdacc	r6!, {r4, r5, r8, r9, ip, sp}
    19a8:	37373435 			; <UNDEFINED> instruction: 0x37373435
    19ac:	37303835 			; <UNDEFINED> instruction: 0x37303835
    19b0:	5f004c4c 	svcpl	0x00004c4c
    19b4:	5858475f 	ldmdapl	r8, {r0, r1, r2, r3, r4, r6, r8, r9, sl, lr}^
    19b8:	4942415f 	stmdbmi	r2, {r0, r1, r2, r3, r4, r6, r8, lr}^
    19bc:	5245565f 	subpl	r5, r5, #99614720	; 0x5f00000
    19c0:	4e4f4953 	mcrmi	9, 2, r4, cr15, cr3, {2}
    19c4:	30303120 	eorscc	r3, r0, r0, lsr #2
    19c8:	5f5f0032 	svcpl	0x005f0032
    19cc:	41524655 	cmpmi	r2, r5, asr r6
    19d0:	495f5443 	ldmdbmi	pc, {r0, r1, r6, sl, ip, lr}^	; <UNPREDICTABLE>
    19d4:	5f544942 	svcpl	0x00544942
    19d8:	0030205f 	eorseq	r2, r0, pc, asr r0
    19dc:	53555f5f 	cmppl	r5, #380	; 0x17c
    19e0:	43415246 	movtmi	r5, #4678	; 0x1246
    19e4:	42495f54 	submi	r5, r9, #84, 30	; 0x150
    19e8:	5f5f5449 	svcpl	0x005f5449
    19ec:	5f003020 	svcpl	0x00003020
    19f0:	5f41535f 	svcpl	0x0041535f
    19f4:	54494246 	strbpl	r4, [r9], #-582	; 0x246
    19f8:	31205f5f 	teqcc	r0, pc, asr pc
    19fc:	5f5f0035 	svcpl	0x005f0035
    1a00:	43414c55 	movtmi	r4, #7253	; 0x1c55
    1a04:	5f4d5543 	svcpl	0x004d5543
    1a08:	54494249 	strbpl	r4, [r9], #-585	; 0x249
    1a0c:	33205f5f 	teqcc	r0, #380	; 0x17c
    1a10:	5f5f0032 	svcpl	0x005f0032
    1a14:	4152464c 	cmpmi	r2, ip, asr #12
    1a18:	495f5443 	ldmdbmi	pc, {r0, r1, r6, sl, ip, lr}^	; <UNPREDICTABLE>
    1a1c:	5f544942 	svcpl	0x00544942
    1a20:	0030205f 	eorseq	r2, r0, pc, asr r0
    1a24:	51485f5f 	cmppl	r8, pc, asr pc
    1a28:	4942495f 	stmdbmi	r2, {r0, r1, r2, r3, r4, r6, r8, fp, lr}^
    1a2c:	205f5f54 	subscs	r5, pc, r4, asr pc	; <UNPREDICTABLE>
    1a30:	55410030 	strbpl	r0, [r1, #-48]	; 0x30
    1a34:	554d5f58 	strbpl	r5, [sp, #-3928]	; 0xf58
    1a38:	5541425f 	strbpl	r4, [r1, #-607]	; 0x25f
    1a3c:	45525f44 	ldrbmi	r5, [r2, #-3908]	; 0xf44
    1a40:	78302047 	ldmdavc	r0!, {r0, r1, r2, r6, sp}
    1a44:	31323032 	teqcc	r2, r2, lsr r0
    1a48:	38363035 	ldmdacc	r6!, {r0, r2, r4, r5, ip, sp}
    1a4c:	58554100 	ldmdapl	r5, {r8, lr}^
    1a50:	5f554d5f 	svcpl	0x00554d5f
    1a54:	5f524949 	svcpl	0x00524949
    1a58:	20474552 	subcs	r4, r7, r2, asr r5
    1a5c:	30327830 	eorscc	r7, r2, r0, lsr r8
    1a60:	30353132 	eorscc	r3, r5, r2, lsr r1
    1a64:	5f003834 	svcpl	0x00003834
    1a68:	5246555f 	subpl	r5, r6, #398458880	; 0x17c00000
    1a6c:	5f544341 	svcpl	0x00544341
    1a70:	49535045 	ldmdbmi	r3, {r0, r2, r6, ip, lr}^
    1a74:	5f4e4f4c 	svcpl	0x004e4f4c
    1a78:	7830205f 	ldmdavc	r0!, {r0, r1, r2, r3, r4, r6, sp}
    1a7c:	312d5031 	teqcc	sp, r1, lsr r0
    1a80:	00525536 	subseq	r5, r2, r6, lsr r5
    1a84:	49555f5f 	ldmdbmi	r5, {r0, r1, r2, r3, r4, r6, r8, r9, sl, fp, ip, lr}^
    1a88:	5450544e 	ldrbpl	r5, [r0], #-1102	; 0x44e
    1a8c:	59545f52 	ldmdbpl	r4, {r1, r4, r6, r8, r9, sl, fp, ip, lr}^
    1a90:	5f5f4550 	svcpl	0x005f4550
    1a94:	736e7520 	cmnvc	lr, #32, 10	; 0x8000000
    1a98:	656e6769 	strbvs	r6, [lr, #-1897]!	; 0x769
    1a9c:	6e692064 	cdpvs	0, 6, cr2, cr9, cr4, {3}
    1aa0:	5f5f0074 	svcpl	0x005f0074
    1aa4:	4c42444c 	cfstrdmi	mvd4, [r2], {76}	; 0x4c
    1aa8:	4e494d5f 	mcrmi	13, 2, r4, cr9, cr15, {2}
    1aac:	5058455f 	subspl	r4, r8, pc, asr r5
    1ab0:	28205f5f 	stmdacs	r0!, {r0, r1, r2, r3, r4, r6, r8, r9, sl, fp, ip, lr}
    1ab4:	3230312d 	eorscc	r3, r0, #1073741835	; 0x4000000b
    1ab8:	5f002931 	svcpl	0x00002931
    1abc:	544c465f 	strbpl	r4, [ip], #-1631	; 0x65f
    1ac0:	4441525f 	strbmi	r5, [r1], #-607	; 0x25f
    1ac4:	5f5f5849 	svcpl	0x005f5849
    1ac8:	5f003220 	svcpl	0x00003220
    1acc:	4e49575f 	mcrmi	7, 2, r5, cr9, cr15, {2}
    1ad0:	414d5f54 	cmpmi	sp, r4, asr pc
    1ad4:	205f5f58 	subscs	r5, pc, r8, asr pc	; <UNPREDICTABLE>
    1ad8:	34393234 	ldrtcc	r3, [r9], #-564	; 0x234
    1adc:	32373639 	eorscc	r3, r7, #59768832	; 0x3900000
    1ae0:	00553539 	subseq	r3, r5, r9, lsr r5
    1ae4:	41535f5f 	cmpmi	r3, pc, asr pc
    1ae8:	4d554343 	ldclmi	3, cr4, [r5, #-268]	; 0xfffffef4
    1aec:	4e494d5f 	mcrmi	13, 2, r4, cr9, cr15, {2}
    1af0:	28205f5f 	stmdacs	r0!, {r0, r1, r2, r3, r4, r6, r8, r9, sl, fp, ip, lr}
    1af4:	3158302d 	cmpcc	r8, sp, lsr #32
    1af8:	4b483750 	blmi	120f840 <multiplylookup+0x1206170>
    1afc:	3158302d 	cmpcc	r8, sp, lsr #32
    1b00:	4b483750 	blmi	120f848 <multiplylookup+0x1206178>
    1b04:	5f5f0029 	svcpl	0x005f0029
    1b08:	5f544c46 	svcpl	0x00544c46
    1b0c:	5f534148 	svcpl	0x00534148
    1b10:	49464e49 	stmdbmi	r6, {r0, r3, r6, r9, sl, fp, lr}^
    1b14:	5954494e 	ldmdbpl	r4, {r1, r2, r3, r6, r8, fp, lr}^
    1b18:	31205f5f 	teqcc	r0, pc, asr pc
    1b1c:	575f5f00 	ldrbpl	r5, [pc, -r0, lsl #30]
    1b20:	52414843 	subpl	r4, r1, #4390912	; 0x430000
    1b24:	4e494d5f 	mcrmi	13, 2, r4, cr9, cr15, {2}
    1b28:	30205f5f 	eorcc	r5, r0, pc, asr pc
    1b2c:	5f5f0055 	svcpl	0x005f0055
    1b30:	54524853 	ldrbpl	r4, [r2], #-2131	; 0x853
    1b34:	58414d5f 	stmdapl	r1, {r0, r1, r2, r3, r4, r6, r8, sl, fp, lr}^
    1b38:	33205f5f 	teqcc	r0, #380	; 0x17c
    1b3c:	37363732 			; <UNDEFINED> instruction: 0x37363732
    1b40:	555f5f00 	ldrbpl	r5, [pc, #-3840]	; c48 <_start-0x73b8>
    1b44:	5f544e49 	svcpl	0x00544e49
    1b48:	5341454c 	movtpl	r4, #5452	; 0x154c
    1b4c:	5f343654 	svcpl	0x00343654
    1b50:	5f58414d 	svcpl	0x0058414d
    1b54:	3831205f 	ldmdacc	r1!, {r0, r1, r2, r3, r4, r6, sp}
    1b58:	37363434 			; <UNDEFINED> instruction: 0x37363434
    1b5c:	37303434 			; <UNDEFINED> instruction: 0x37303434
    1b60:	39303733 	ldmdbcc	r0!, {r0, r1, r4, r5, r8, r9, sl, ip, sp}
    1b64:	36313535 			; <UNDEFINED> instruction: 0x36313535
    1b68:	4c553531 	cfldr64mi	mvdx3, [r5], {49}	; 0x31
    1b6c:	5f5f004c 	svcpl	0x005f004c
    1b70:	4c42444c 	cfstrdmi	mvd4, [r2], {76}	; 0x4c
    1b74:	58414d5f 	stmdapl	r1, {r0, r1, r2, r3, r4, r6, r8, sl, fp, lr}^
    1b78:	5f30315f 	svcpl	0x0030315f
    1b7c:	5f505845 	svcpl	0x00505845
    1b80:	3033205f 	eorscc	r2, r3, pc, asr r0
    1b84:	55410038 	strbpl	r0, [r1, #-56]	; 0x38
    1b88:	554d5f58 	strbpl	r5, [sp, #-3928]	; 0xf58
    1b8c:	5245495f 	subpl	r4, r5, #1556480	; 0x17c000
    1b90:	4745525f 	smlsldmi	r5, r5, pc, r2	; <UNPREDICTABLE>
    1b94:	32783020 	rsbscc	r3, r8, #32
    1b98:	35313230 	ldrcc	r3, [r1, #-560]!	; 0x230
    1b9c:	00343430 	eorseq	r3, r4, r0, lsr r4
    1ba0:	73786568 	cmnvc	r8, #104, 10	; 0x1a000000
    1ba4:	6e697274 	mcrvs	2, 3, r7, cr9, cr4, {3}
    1ba8:	5f007367 	svcpl	0x00007367
    1bac:	4c4c555f 	cfstr64mi	mvdx5, [ip], {95}	; 0x5f
    1bb0:	43415246 	movtmi	r5, #4678	; 0x1246
    1bb4:	50455f54 	subpl	r5, r5, r4, asr pc
    1bb8:	4f4c4953 	svcmi	0x004c4953
    1bbc:	205f5f4e 	subscs	r5, pc, lr, asr #30
    1bc0:	50317830 	eorspl	r7, r1, r0, lsr r8
    1bc4:	5534362d 	ldrpl	r3, [r4, #-1581]!	; 0x62d
    1bc8:	00524c4c 	subseq	r4, r2, ip, asr #24
    1bcc:	4e495f5f 	mcrmi	15, 2, r5, cr9, cr15, {2}
    1bd0:	41465f54 	cmpmi	r6, r4, asr pc
    1bd4:	32335453 	eorscc	r5, r3, #1392508928	; 0x53000000
    1bd8:	58414d5f 	stmdapl	r1, {r0, r1, r2, r3, r4, r6, r8, sl, fp, lr}^
    1bdc:	32205f5f 	eorcc	r5, r0, #380	; 0x17c
    1be0:	34373431 	ldrtcc	r3, [r7], #-1073	; 0x431
    1be4:	34363338 	ldrtcc	r3, [r6], #-824	; 0x338
    1be8:	65700037 	ldrbvs	r0, [r0, #-55]!	; 0x37
    1bec:	68706972 	ldmdavs	r0!, {r1, r4, r5, r6, r8, fp, sp, lr}^
    1bf0:	5f00632e 	svcpl	0x0000632e
    1bf4:	5153555f 	cmppl	r3, pc, asr r5
    1bf8:	4942495f 	stmdbmi	r2, {r0, r1, r2, r3, r4, r6, r8, fp, lr}^
    1bfc:	205f5f54 	subscs	r5, pc, r4, asr pc	; <UNPREDICTABLE>
    1c00:	5f5f0030 	svcpl	0x005f0030
    1c04:	544e4955 	strbpl	r4, [lr], #-2389	; 0x955
    1c08:	5341465f 	movtpl	r4, #5727	; 0x165f
    1c0c:	545f3854 	ldrbpl	r3, [pc], #-2132	; 1c14 <_start-0x63ec>
    1c10:	5f455059 	svcpl	0x00455059
    1c14:	6e75205f 	mrcvs	0, 3, r2, cr5, cr15, {2}
    1c18:	6e676973 	mcrvs	9, 3, r6, cr7, cr3, {3}
    1c1c:	69206465 	stmdbvs	r0!, {r0, r2, r5, r6, sl, sp, lr}
    1c20:	5f00746e 	svcpl	0x0000746e
    1c24:	5254505f 	subspl	r5, r4, #95	; 0x5f
    1c28:	46464944 	strbmi	r4, [r6], -r4, asr #18
    1c2c:	5059545f 	subspl	r5, r9, pc, asr r4
    1c30:	205f5f45 	subscs	r5, pc, r5, asr #30
    1c34:	00746e69 	rsbseq	r6, r4, r9, ror #28
    1c38:	444c5f5f 	strbmi	r5, [ip], #-3935	; 0xf5f
    1c3c:	485f4c42 	ldmdami	pc, {r1, r6, sl, fp, lr}^	; <UNPREDICTABLE>
    1c40:	445f5341 	ldrbmi	r5, [pc], #-833	; 1c48 <_start-0x63b8>
    1c44:	524f4e45 	subpl	r4, pc, #1104	; 0x450
    1c48:	205f5f4d 	subscs	r5, pc, sp, asr #30
    1c4c:	5f5f0031 	svcpl	0x005f0031
    1c50:	4343414c 	movtmi	r4, #12620	; 0x314c
    1c54:	465f4d55 			; <UNDEFINED> instruction: 0x465f4d55
    1c58:	5f544942 	svcpl	0x00544942
    1c5c:	3133205f 	teqcc	r3, pc, asr r0
    1c60:	575f5f00 	ldrbpl	r5, [pc, -r0, lsl #30]
    1c64:	52414843 	subpl	r4, r1, #4390912	; 0x430000
    1c68:	5059545f 	subspl	r5, r9, pc, asr r4
    1c6c:	205f5f45 	subscs	r5, pc, r5, asr #30
    1c70:	69736e75 	ldmdbvs	r3!, {r0, r2, r4, r5, r6, r9, sl, fp, sp, lr}^
    1c74:	64656e67 	strbtvs	r6, [r5], #-3687	; 0xe67
    1c78:	746e6920 	strbtvc	r6, [lr], #-2336	; 0x920
    1c7c:	445f5f00 	ldrbmi	r5, [pc], #-3840	; 1c84 <_start-0x637c>
    1c80:	455f4c42 	ldrbmi	r4, [pc, #-3138]	; 1046 <_start-0x6fba>
    1c84:	4c495350 	mcrrmi	3, 5, r5, r9, cr0
    1c88:	5f5f4e4f 	svcpl	0x005f4e4f
    1c8c:	64282820 	strtvs	r2, [r8], #-2080	; 0x820
    1c90:	6c62756f 	cfstr64vs	mvdx7, [r2], #-444	; 0xfffffe44
    1c94:	2e322965 	cdpcs	9, 3, cr2, cr2, cr5, {3}
    1c98:	34303232 	ldrtcc	r3, [r0], #-562	; 0x232
    1c9c:	34303634 	ldrtcc	r3, [r0], #-1588	; 0x634
    1ca0:	30353239 	eorscc	r3, r5, r9, lsr r2
    1ca4:	31333133 	teqcc	r3, r3, lsr r1
    1ca8:	36312d65 	ldrtcc	r2, [r1], -r5, ror #26
    1cac:	5f00294c 	svcpl	0x0000294c
    1cb0:	4e49555f 	mcrmi	5, 2, r5, cr9, cr15, {2}
    1cb4:	5f323354 	svcpl	0x00323354
    1cb8:	29632843 	stmdbcs	r3!, {r0, r1, r6, fp, sp}^
    1cbc:	23206320 	teqcs	r0, #32, 6	; 0x80000000
    1cc0:	4c552023 	mrrcmi	0, 2, r2, r5, cr3
    1cc4:	555f5f00 	ldrbpl	r5, [pc, #-3840]	; dcc <_start-0x7234>
    1cc8:	465f4148 	ldrbmi	r4, [pc], -r8, asr #2
    1ccc:	5f544942 	svcpl	0x00544942
    1cd0:	0038205f 	eorseq	r2, r8, pc, asr r0
    1cd4:	54415f5f 	strbpl	r5, [r1], #-3935	; 0xf5f
    1cd8:	43494d4f 	movtmi	r4, #40271	; 0x9d4f
    1cdc:	4e4f435f 	mcrmi	3, 2, r4, cr15, cr15, {2}
    1ce0:	454d5553 	strbmi	r5, [sp, #-1363]	; 0x553
    1ce4:	5f003120 	svcpl	0x00003120
    1ce8:	5246555f 	subpl	r5, r6, #398458880	; 0x17c00000
    1cec:	5f544341 	svcpl	0x00544341
    1cf0:	5f4e494d 	svcpl	0x004e494d
    1cf4:	2e30205f 	mrccs	0, 1, r2, cr0, cr15, {2}
    1cf8:	00525530 	subseq	r5, r2, r0, lsr r5
    1cfc:	45445f5f 	strbmi	r5, [r4, #-3935]	; 0xf5f
    1d00:	38323143 	ldmdacc	r2!, {r0, r1, r6, r8, ip, sp}
    1d04:	4255535f 	subsmi	r5, r5, #2080374785	; 0x7c000001
    1d08:	4d524f4e 	ldclmi	15, cr4, [r2, #-312]	; 0xfffffec8
    1d0c:	4d5f4c41 	ldclmi	12, cr4, [pc, #-260]	; 1c10 <_start-0x63f0>
    1d10:	5f5f4e49 	svcpl	0x005f4e49
    1d14:	302e3020 	eorcc	r3, lr, r0, lsr #32
    1d18:	30303030 	eorscc	r3, r0, r0, lsr r0
    1d1c:	30303030 	eorscc	r3, r0, r0, lsr r0
    1d20:	30303030 	eorscc	r3, r0, r0, lsr r0
    1d24:	30303030 	eorscc	r3, r0, r0, lsr r0
    1d28:	30303030 	eorscc	r3, r0, r0, lsr r0
    1d2c:	30303030 	eorscc	r3, r0, r0, lsr r0
    1d30:	30303030 	eorscc	r3, r0, r0, lsr r0
    1d34:	31303030 	teqcc	r0, r0, lsr r0
    1d38:	31362d45 	teqcc	r6, r5, asr #26
    1d3c:	4c443334 	mcrrmi	3, 3, r3, r4, cr4
    1d40:	415f5f00 	cmpmi	pc, r0, lsl #30
    1d44:	455f4d52 	ldrbmi	r4, [pc, #-3410]	; ffa <_start-0x7006>
    1d48:	5f494241 	svcpl	0x00494241
    1d4c:	0031205f 	eorseq	r2, r1, pc, asr r0
    1d50:	45445f5f 	strbmi	r5, [r4, #-3935]	; 0xf5f
    1d54:	38323143 	ldmdacc	r2!, {r0, r1, r6, r8, ip, sp}
    1d58:	5350455f 	cmppl	r0, #398458880	; 0x17c00000
    1d5c:	4e4f4c49 	cdpmi	12, 4, cr4, cr15, cr9, {2}
    1d60:	31205f5f 	teqcc	r0, pc, asr pc
    1d64:	33332d45 	teqcc	r3, #4416	; 0x1140
    1d68:	5f004c44 	svcpl	0x00004c44
    1d6c:	4e49555f 	mcrmi	5, 2, r5, cr9, cr15, {2}
    1d70:	5f363154 	svcpl	0x00363154
    1d74:	45505954 	ldrbmi	r5, [r0, #-2388]	; 0x954
    1d78:	73205f5f 	teqvc	r0, #380	; 0x17c
    1d7c:	74726f68 	ldrbtvc	r6, [r2], #-3944	; 0xf68
    1d80:	736e7520 	cmnvc	lr, #32, 10	; 0x8000000
    1d84:	656e6769 	strbvs	r6, [lr, #-1897]!	; 0x769
    1d88:	6e692064 	cdpvs	0, 6, cr2, cr9, cr4, {3}
    1d8c:	5f5f0074 	svcpl	0x005f0074
    1d90:	544e4955 	strbpl	r4, [lr], #-2389	; 0x955
    1d94:	5341465f 	movtpl	r4, #5727	; 0x165f
    1d98:	5f363154 	svcpl	0x00363154
    1d9c:	5f58414d 	svcpl	0x0058414d
    1da0:	3234205f 	eorscc	r2, r4, #95	; 0x5f
    1da4:	36393439 			; <UNDEFINED> instruction: 0x36393439
    1da8:	35393237 	ldrcc	r3, [r9, #-567]!	; 0x237
    1dac:	5f5f0055 	svcpl	0x005f0055
    1db0:	4954504f 	ldmdbmi	r4, {r0, r1, r2, r3, r6, ip, lr}^
    1db4:	455a494d 	ldrbmi	r4, [sl, #-2381]	; 0x94d
    1db8:	31205f5f 	teqcc	r0, pc, asr pc
    1dbc:	555f5f00 	ldrbpl	r5, [pc, #-3840]	; ec4 <_start-0x713c>
    1dc0:	465f4144 	ldrbmi	r4, [pc], -r4, asr #2
    1dc4:	5f544942 	svcpl	0x00544942
    1dc8:	3233205f 	eorscc	r2, r3, #95	; 0x5f
    1dcc:	58554100 	ldmdapl	r5, {r8, lr}^
    1dd0:	5f554d5f 	svcpl	0x00554d5f
    1dd4:	41524353 	cmpmi	r2, r3, asr r3
    1dd8:	20484354 	subcs	r4, r8, r4, asr r3
    1ddc:	30327830 	eorscc	r7, r2, r0, lsr r8
    1de0:	30353132 	eorscc	r3, r5, r2, lsr r1
    1de4:	5f004335 	svcpl	0x00004335
    1de8:	4c4c555f 	cfstr64mi	mvdx5, [ip], {95}	; 0x5f
    1dec:	43415246 	movtmi	r5, #4678	; 0x1246
    1df0:	414d5f54 	cmpmi	sp, r4, asr pc
    1df4:	205f5f58 	subscs	r5, pc, r8, asr pc	; <UNPREDICTABLE>
    1df8:	46465830 			; <UNDEFINED> instruction: 0x46465830
    1dfc:	46464646 	strbmi	r4, [r6], -r6, asr #12
    1e00:	46464646 	strbmi	r4, [r6], -r6, asr #12
    1e04:	46464646 	strbmi	r4, [r6], -r6, asr #12
    1e08:	2d504646 	ldclcs	6, cr4, [r0, #-280]	; 0xfffffee8
    1e0c:	4c553436 	cfldrdmi	mvd3, [r5], {54}	; 0x36
    1e10:	5f00524c 	svcpl	0x0000524c
    1e14:	5858475f 	ldmdapl	r8, {r0, r1, r2, r3, r4, r6, r8, r9, sl, lr}^
    1e18:	5059545f 	subspl	r5, r9, pc, asr r4
    1e1c:	464e4945 	strbmi	r4, [lr], -r5, asr #18
    1e20:	51455f4f 	cmppl	r5, pc, asr #30
    1e24:	494c4155 	stmdbmi	ip, {r0, r2, r4, r6, r8, lr}^
    1e28:	495f5954 	ldmdbmi	pc, {r2, r4, r6, r8, fp, ip, lr}^	; <UNPREDICTABLE>
    1e2c:	4e494c4e 	cdpmi	12, 4, cr4, cr9, cr14, {2}
    1e30:	00302045 	eorseq	r2, r0, r5, asr #32
    1e34:	4c465f5f 	mcrrmi	15, 5, r5, r6, cr15
    1e38:	414d5f54 	cmpmi	sp, r4, asr pc
    1e3c:	205f5f58 	subscs	r5, pc, r8, asr pc	; <UNPREDICTABLE>
    1e40:	30342e33 	eorscc	r2, r4, r3, lsr lr
    1e44:	33323832 	teqcc	r2, #3276800	; 0x320000
    1e48:	33363634 	teqcc	r6, #52, 12	; 0x3400000
    1e4c:	38323538 	ldmdacc	r2!, {r3, r4, r5, r8, sl, ip, sp}
    1e50:	2b653638 	blcs	194f738 <multiplylookup+0x1946068>
    1e54:	00463833 	subeq	r3, r6, r3, lsr r8
    1e58:	414c5f5f 	cmpmi	ip, pc, asr pc
    1e5c:	4d554343 	ldclmi	3, cr4, [r5, #-268]	; 0xfffffef4
    1e60:	4e494d5f 	mcrmi	13, 2, r4, cr9, cr15, {2}
    1e64:	28205f5f 	stmdacs	r0!, {r0, r1, r2, r3, r4, r6, r8, r9, sl, fp, ip, lr}
    1e68:	3158302d 	cmpcc	r8, sp, lsr #32
    1e6c:	4c313350 	ldcmi	3, cr3, [r1], #-320	; 0xfffffec0
    1e70:	58302d4b 	ldmdapl	r0!, {r0, r1, r3, r6, r8, sl, fp, sp}
    1e74:	31335031 	teqcc	r3, r1, lsr r0
    1e78:	00294b4c 	eoreq	r4, r9, ip, asr #22
    1e7c:	48435f5f 	stmdami	r3, {r0, r1, r2, r3, r4, r6, r8, r9, sl, fp, ip, lr}^
    1e80:	425f5241 	subsmi	r5, pc, #268435460	; 0x10000004
    1e84:	5f5f5449 	svcpl	0x005f5449
    1e88:	5f003820 	svcpl	0x00003820
    1e8c:	4749535f 	smlsldmi	r5, r9, pc, r3	; <UNPREDICTABLE>
    1e90:	4f54415f 	svcmi	0x0054415f
    1e94:	5f43494d 	svcpl	0x0043494d
    1e98:	5f4e494d 	svcpl	0x004e494d
    1e9c:	2d28205f 	stccs	0, cr2, [r8, #-380]!	; 0xfffffe84
    1ea0:	49535f5f 	ldmdbmi	r3, {r0, r1, r2, r3, r4, r6, r8, r9, sl, fp, ip, lr}^
    1ea4:	54415f47 	strbpl	r5, [r1], #-3911	; 0xf47
    1ea8:	43494d4f 	movtmi	r4, #40271	; 0x9d4f
    1eac:	58414d5f 	stmdapl	r1, {r0, r1, r2, r3, r4, r6, r8, sl, fp, lr}^
    1eb0:	2d205f5f 	stccs	15, cr5, [r0, #-380]!	; 0xfffffe84
    1eb4:	00293120 	eoreq	r3, r9, r0, lsr #2
    1eb8:	4c555f5f 	mrrcmi	15, 5, r5, r5, cr15	; <UNPREDICTABLE>
    1ebc:	55434341 	strbpl	r4, [r3, #-833]	; 0x341
    1ec0:	494d5f4d 	stmdbmi	sp, {r0, r2, r3, r6, r8, r9, sl, fp, ip, lr}^
    1ec4:	205f5f4e 	subscs	r5, pc, lr, asr #30
    1ec8:	55302e30 	ldrpl	r2, [r0, #-3632]!	; 0xe30
    1ecc:	5f004b4c 	svcpl	0x00004b4c
    1ed0:	5f41545f 	svcpl	0x0041545f
    1ed4:	54494246 	strbpl	r4, [r9], #-582	; 0x246
    1ed8:	36205f5f 	qsaxcc	r5, r0, pc	; <UNPREDICTABLE>
    1edc:	5f5f0033 	svcpl	0x005f0033
    1ee0:	33434544 	movtcc	r4, #13636	; 0x3544
    1ee4:	50455f32 	subpl	r5, r5, r2, lsr pc
    1ee8:	4f4c4953 	svcmi	0x004c4953
    1eec:	205f5f4e 	subscs	r5, pc, lr, asr #30
    1ef0:	362d4531 			; <UNDEFINED> instruction: 0x362d4531
    1ef4:	5f004644 	svcpl	0x00004644
    1ef8:	4152465f 	cmpmi	r2, pc, asr r6
    1efc:	4d5f5443 	cfldrdmi	mvd5, [pc, #-268]	; 1df8 <_start-0x6208>
    1f00:	5f5f4e49 	svcpl	0x005f4e49
    1f04:	302d2820 	eorcc	r2, sp, r0, lsr #16
    1f08:	2d52352e 	cfldr64cs	mvdx3, [r2, #-184]	; 0xffffff48
    1f0c:	52352e30 	eorspl	r2, r5, #48, 28	; 0x300
    1f10:	5f5f0029 	svcpl	0x005f0029
    1f14:	5f544e49 	svcpl	0x00544e49
    1f18:	54534146 	ldrbpl	r4, [r3], #-326	; 0x146
    1f1c:	545f3233 	ldrbpl	r3, [pc], #-563	; 1f24 <_start-0x60dc>
    1f20:	5f455059 	svcpl	0x00455059
    1f24:	6e69205f 	mcrvs	0, 3, r2, cr9, cr15, {2}
    1f28:	5f5f0074 	svcpl	0x005f0074
    1f2c:	544e4955 	strbpl	r4, [lr], #-2389	; 0x955
    1f30:	5341465f 	movtpl	r4, #5727	; 0x165f
    1f34:	5f363154 	svcpl	0x00363154
    1f38:	45505954 	ldrbmi	r5, [r0, #-2388]	; 0x954
    1f3c:	75205f5f 	strvc	r5, [r0, #-3935]!	; 0xf5f
    1f40:	6769736e 	strbvs	r7, [r9, -lr, ror #6]!
    1f44:	2064656e 	rsbcs	r6, r4, lr, ror #10
    1f48:	00746e69 	rsbseq	r6, r4, r9, ror #28
    1f4c:	52465f5f 	subpl	r5, r6, #380	; 0x17c
    1f50:	5f544341 	svcpl	0x00544341
    1f54:	54494249 	strbpl	r4, [r9], #-585	; 0x249
    1f58:	30205f5f 	eorcc	r5, r0, pc, asr pc
    1f5c:	495f5f00 	ldmdbmi	pc, {r8, r9, sl, fp, ip, lr}^	; <UNPREDICTABLE>
    1f60:	5450544e 	ldrbpl	r5, [r0], #-1102	; 0x44e
    1f64:	414d5f52 	cmpmi	sp, r2, asr pc
    1f68:	205f5f58 	subscs	r5, pc, r8, asr pc	; <UNPREDICTABLE>
    1f6c:	37343132 			; <UNDEFINED> instruction: 0x37343132
    1f70:	36333834 			; <UNDEFINED> instruction: 0x36333834
    1f74:	5f003734 	svcpl	0x00003734
    1f78:	4152465f 	cmpmi	r2, pc, asr r6
    1f7c:	4d5f5443 	cfldrdmi	mvd5, [pc, #-268]	; 1e78 <_start-0x6188>
    1f80:	5f5f5841 	svcpl	0x005f5841
    1f84:	37583020 	ldrbcc	r3, [r8, -r0, lsr #32]
    1f88:	50464646 	subpl	r4, r6, r6, asr #12
    1f8c:	5235312d 	eorspl	r3, r5, #1073741835	; 0x4000000b
    1f90:	475f5f00 	ldrbmi	r5, [pc, -r0, lsl #30]
    1f94:	415f4343 	cmpmi	pc, r3, asr #6
    1f98:	494d4f54 	stmdbmi	sp, {r2, r4, r6, r8, r9, sl, fp, lr}^
    1f9c:	43575f43 	cmpmi	r7, #268	; 0x10c
    1fa0:	5f524148 	svcpl	0x00524148
    1fa4:	4f4c5f54 	svcmi	0x004c5f54
    1fa8:	465f4b43 	ldrbmi	r4, [pc], -r3, asr #22
    1fac:	20454552 	subcs	r4, r5, r2, asr r5
    1fb0:	5f5f0031 	svcpl	0x005f0031
    1fb4:	36434544 	strbcc	r4, [r3], -r4, asr #10
    1fb8:	414d5f34 	cmpmi	sp, r4, lsr pc
    1fbc:	205f5f58 	subscs	r5, pc, r8, asr pc	; <UNPREDICTABLE>
    1fc0:	39392e39 	ldmdbcc	r9!, {r0, r3, r4, r5, r9, sl, fp, sp}
    1fc4:	39393939 	ldmdbcc	r9!, {r0, r3, r4, r5, r8, fp, ip, sp}
    1fc8:	39393939 	ldmdbcc	r9!, {r0, r3, r4, r5, r8, fp, ip, sp}
    1fcc:	39393939 	ldmdbcc	r9!, {r0, r3, r4, r5, r8, fp, ip, sp}
    1fd0:	38334539 	ldmdacc	r3!, {r0, r3, r4, r5, r8, sl, lr}
    1fd4:	00444434 	subeq	r4, r4, r4, lsr r4
    1fd8:	4c4c5f5f 	mcrrmi	15, 5, r5, ip, cr15
    1fdc:	43415246 	movtmi	r5, #4678	; 0x1246
    1fe0:	42465f54 	submi	r5, r6, #84, 30	; 0x150
    1fe4:	5f5f5449 	svcpl	0x005f5449
    1fe8:	00333620 	eorseq	r3, r3, r0, lsr #12
    1fec:	4c4c5f5f 	mcrrmi	15, 5, r5, ip, cr15
    1ff0:	55434341 	strbpl	r4, [r3, #-833]	; 0x341
    1ff4:	42465f4d 	submi	r5, r6, #308	; 0x134
    1ff8:	5f5f5449 	svcpl	0x005f5449
    1ffc:	00313320 	eorseq	r3, r1, r0, lsr #6
    2000:	49535f5f 	ldmdbmi	r3, {r0, r1, r2, r3, r4, r6, r8, r9, sl, fp, ip, lr}^
    2004:	4d5f455a 	cfldr64mi	mvdx4, [pc, #-360]	; 1ea4 <_start-0x615c>
    2008:	5f5f5841 	svcpl	0x005f5841
    200c:	39323420 	ldmdbcc	r2!, {r5, sl, ip, sp}
    2010:	37363934 			; <UNDEFINED> instruction: 0x37363934
    2014:	55353932 	ldrpl	r3, [r5, #-2354]!	; 0x932
    2018:	465f5f00 	ldrbmi	r5, [pc], -r0, lsl #30
    201c:	4d5f544c 	cfldrdmi	mvd5, [pc, #-304]	; 1ef4 <_start-0x610c>
    2020:	315f4e49 	cmpcc	pc, r9, asr #28
    2024:	58455f30 	stmdapl	r5, {r4, r5, r8, r9, sl, fp, ip, lr}^
    2028:	205f5f50 	subscs	r5, pc, r0, asr pc	; <UNPREDICTABLE>
    202c:	37332d28 	ldrcc	r2, [r3, -r8, lsr #26]!
    2030:	5f5f0029 	svcpl	0x005f0029
    2034:	464c4c55 			; <UNDEFINED> instruction: 0x464c4c55
    2038:	54434152 	strbpl	r4, [r3], #-338	; 0x152
    203c:	4942465f 	stmdbmi	r2, {r0, r1, r2, r3, r4, r6, r9, sl, lr}^
    2040:	205f5f54 	subscs	r5, pc, r4, asr pc	; <UNPREDICTABLE>
    2044:	5f003436 	svcpl	0x00003436
    2048:	4345445f 	movtmi	r4, #21599	; 0x545f
    204c:	4d5f3436 	cfldrdmi	mvd3, [pc, #-216]	; 1f7c <_start-0x6084>
    2050:	455f4e49 	ldrbmi	r4, [pc, #-3657]	; 120f <_start-0x6df1>
    2054:	5f5f5058 	svcpl	0x005f5058
    2058:	332d2820 	teqcc	sp, #32, 16	; 0x200000
    205c:	00293238 	eoreq	r3, r9, r8, lsr r2
    2060:	4c4c5f5f 	mcrrmi	15, 5, r5, ip, cr15
    2064:	43415246 	movtmi	r5, #4678	; 0x1246
    2068:	494d5f54 	stmdbmi	sp, {r2, r4, r6, r8, r9, sl, fp, ip, lr}^
    206c:	205f5f4e 	subscs	r5, pc, lr, asr #30
    2070:	2e302d28 	cdpcs	13, 3, cr2, cr0, cr8, {1}
    2074:	524c4c35 	subpl	r4, ip, #13568	; 0x3500
    2078:	352e302d 	strcc	r3, [lr, #-45]!	; 0x2d
    207c:	29524c4c 	ldmdbcs	r2, {r2, r3, r6, sl, fp, lr}^
    2080:	555f5f00 	ldrbpl	r5, [pc, #-3840]	; 1188 <_start-0x6e78>
    2084:	4d544e49 	ldclmi	14, cr4, [r4, #-292]	; 0xfffffedc
    2088:	4d5f5841 	ldclmi	8, cr5, [pc, #-260]	; 1f8c <_start-0x6074>
    208c:	5f5f5841 	svcpl	0x005f5841
    2090:	34383120 	ldrtcc	r3, [r8], #-288	; 0x120
    2094:	34373634 	ldrtcc	r3, [r7], #-1588	; 0x634
    2098:	33373034 	teqcc	r7, #52	; 0x34
    209c:	35393037 	ldrcc	r3, [r9, #-55]!	; 0x37
    20a0:	31363135 	teqcc	r6, r5, lsr r1
    20a4:	4c4c5535 	cfstr64mi	mvdx5, [ip], {53}	; 0x35
    20a8:	4c5f5f00 	mrrcmi	15, 0, r5, pc, cr0	; <UNPREDICTABLE>
    20ac:	4343414c 	movtmi	r4, #12620	; 0x314c
    20b0:	495f4d55 	ldmdbmi	pc, {r0, r2, r4, r6, r8, sl, fp, lr}^	; <UNPREDICTABLE>
    20b4:	5f544942 	svcpl	0x00544942
    20b8:	3233205f 	eorscc	r2, r3, #95	; 0x5f
    20bc:	72617500 	rsbvc	r7, r1, #0, 10
    20c0:	65725f74 	ldrbvs	r5, [r2, #-3956]!	; 0xf74
    20c4:	5f007663 	svcpl	0x00007663
    20c8:	4c4c555f 	cfstr64mi	mvdx5, [ip], {95}	; 0x5f
    20cc:	55434341 	strbpl	r4, [r3, #-833]	; 0x341
    20d0:	414d5f4d 	cmpmi	sp, sp, asr #30
    20d4:	205f5f58 	subscs	r5, pc, r8, asr pc	; <UNPREDICTABLE>
    20d8:	46465830 			; <UNDEFINED> instruction: 0x46465830
    20dc:	46464646 	strbmi	r4, [r6], -r6, asr #12
    20e0:	46464646 	strbmi	r4, [r6], -r6, asr #12
    20e4:	46464646 	strbmi	r4, [r6], -r6, asr #12
    20e8:	2d504646 	ldclcs	6, cr4, [r0, #-280]	; 0xfffffee8
    20ec:	4c553233 	lfmmi	f3, 2, [r5], {51}	; 0x33
    20f0:	41004b4c 	tstmi	r0, ip, asr #22
    20f4:	4d5f5855 	ldclmi	8, cr5, [pc, #-340]	; 1fa8 <_start-0x6058>
    20f8:	534d5f55 	movtpl	r5, #57173	; 0xdf55
    20fc:	45525f52 	ldrbmi	r5, [r2, #-3922]	; 0xf52
    2100:	78302047 	ldmdavc	r0!, {r0, r1, r2, r6, sp}
    2104:	31323032 	teqcc	r2, r2, lsr r0
    2108:	38353035 	ldmdacc	r5!, {r0, r2, r4, r5, ip, sp}
    210c:	555f5f00 	ldrbpl	r5, [pc, #-3840]	; 1214 <_start-0x6dec>
    2110:	5f544e49 	svcpl	0x00544e49
    2114:	54534146 	ldrbpl	r4, [r3], #-326	; 0x146
    2118:	414d5f38 	cmpmi	sp, r8, lsr pc
    211c:	205f5f58 	subscs	r5, pc, r8, asr pc	; <UNPREDICTABLE>
    2120:	34393234 	ldrtcc	r3, [r9], #-564	; 0x234
    2124:	32373639 	eorscc	r3, r7, #59768832	; 0x3900000
    2128:	00553539 	subseq	r3, r5, r9, lsr r5
    212c:	4c4c5f5f 	mcrrmi	15, 5, r5, ip, cr15
    2130:	55434341 	strbpl	r4, [r3, #-833]	; 0x341
    2134:	414d5f4d 	cmpmi	sp, sp, asr #30
    2138:	205f5f58 	subscs	r5, pc, r8, asr pc	; <UNPREDICTABLE>
    213c:	46375830 			; <UNDEFINED> instruction: 0x46375830
    2140:	46464646 	strbmi	r4, [r6], -r6, asr #12
    2144:	46464646 	strbmi	r4, [r6], -r6, asr #12
    2148:	46464646 	strbmi	r4, [r6], -r6, asr #12
    214c:	2d504646 	ldclcs	6, cr4, [r0, #-280]	; 0xfffffee8
    2150:	4c4c3133 	stfmie	f3, [ip], {51}	; 0x33
    2154:	5541004b 	strbpl	r0, [r1, #-75]	; 0x4b
    2158:	554d5f58 	strbpl	r5, [sp, #-3928]	; 0xf58
    215c:	5f4f495f 	svcpl	0x004f495f
    2160:	20474552 	subcs	r4, r7, r2, asr r5
    2164:	30327830 	eorscc	r7, r2, r0, lsr r8
    2168:	30353132 	eorscc	r3, r5, r2, lsr r1
    216c:	5f003034 	svcpl	0x00003034
    2170:	4341555f 	movtmi	r5, #5471	; 0x155f
    2174:	5f4d5543 	svcpl	0x004d5543
    2178:	5f4e494d 	svcpl	0x004e494d
    217c:	2e30205f 	mrccs	0, 1, r2, cr0, cr15, {2}
    2180:	004b5530 	subeq	r5, fp, r0, lsr r5
    2184:	53555f5f 	cmppl	r5, #380	; 0x17c
    2188:	42465f41 	submi	r5, r6, #260	; 0x104
    218c:	5f5f5449 	svcpl	0x005f5449
    2190:	00363120 	eorseq	r3, r6, r0, lsr #2
    2194:	53555f5f 	cmppl	r5, #380	; 0x17c
    2198:	4c5f5245 	lfmmi	f5, 2, [pc], {69}	; 0x45
    219c:	4c454241 	sfmmi	f4, 2, [r5], {65}	; 0x41
    21a0:	4552505f 	ldrbmi	r5, [r2, #-95]	; 0x5f
    21a4:	5f584946 	svcpl	0x00584946
    21a8:	5f00205f 	svcpl	0x0000205f
    21ac:	464c4c5f 			; <UNDEFINED> instruction: 0x464c4c5f
    21b0:	54434152 	strbpl	r4, [r3], #-338	; 0x152
    21b4:	4942495f 	stmdbmi	r2, {r0, r1, r2, r3, r4, r6, r8, fp, lr}^
    21b8:	205f5f54 	subscs	r5, pc, r4, asr pc	; <UNPREDICTABLE>
    21bc:	5f5f0030 	svcpl	0x005f0030
    21c0:	52464c55 	subpl	r4, r6, #21760	; 0x5500
    21c4:	5f544341 	svcpl	0x00544341
    21c8:	5f58414d 	svcpl	0x0058414d
    21cc:	5830205f 	ldmdapl	r0!, {r0, r1, r2, r3, r4, r6, sp}
    21d0:	46464646 	strbmi	r4, [r6], -r6, asr #12
    21d4:	46464646 	strbmi	r4, [r6], -r6, asr #12
    21d8:	32332d50 	eorscc	r2, r3, #80, 26	; 0x1400
    21dc:	00524c55 	subseq	r4, r2, r5, asr ip
    21e0:	49555f5f 	ldmdbmi	r5, {r0, r1, r2, r3, r4, r6, r8, r9, sl, fp, ip, lr}^
    21e4:	465f544e 	ldrbmi	r5, [pc], -lr, asr #8
    21e8:	36545341 	ldrbcc	r5, [r4], -r1, asr #6
    21ec:	59545f34 	ldmdbpl	r4, {r2, r4, r5, r8, r9, sl, fp, ip, lr}^
    21f0:	5f5f4550 	svcpl	0x005f4550
    21f4:	6e6f6c20 	cdpvs	12, 6, cr6, cr15, cr0, {1}
    21f8:	6f6c2067 	svcvs	0x006c2067
    21fc:	7520676e 	strvc	r6, [r0, #-1902]!	; 0x76e
    2200:	6769736e 	strbvs	r7, [r9, -lr, ror #6]!
    2204:	2064656e 	rsbcs	r6, r4, lr, ror #10
    2208:	00746e69 	rsbseq	r6, r4, r9, ror #28
    220c:	4e495f5f 	mcrmi	15, 2, r5, cr9, cr15, {2}
    2210:	41465f54 	cmpmi	r6, r4, asr pc
    2214:	34365453 	ldrtcc	r5, [r6], #-1107	; 0x453
    2218:	5059545f 	subspl	r5, r9, pc, asr r4
    221c:	205f5f45 	subscs	r5, pc, r5, asr #30
    2220:	676e6f6c 	strbvs	r6, [lr, -ip, ror #30]!
    2224:	6e6f6c20 	cdpvs	12, 6, cr6, cr15, cr0, {1}
    2228:	6e692067 	cdpvs	0, 6, cr2, cr9, cr7, {3}
    222c:	5f5f0074 	svcpl	0x005f0074
    2230:	544e4955 	strbpl	r4, [lr], #-2389	; 0x955
    2234:	41454c5f 	cmpmi	r5, pc, asr ip
    2238:	5f385453 	svcpl	0x00385453
    223c:	45505954 	ldrbmi	r5, [r0, #-2388]	; 0x954
    2240:	75205f5f 	strvc	r5, [r0, #-3935]!	; 0xf5f
    2244:	6769736e 	strbvs	r7, [r9, -lr, ror #6]!
    2248:	2064656e 	rsbcs	r6, r4, lr, ror #10
    224c:	72616863 	rsbvc	r6, r1, #6488064	; 0x630000
    2250:	475f5f00 	ldrbmi	r5, [pc, -r0, lsl #30]
    2254:	415f4343 	cmpmi	pc, r3, asr #6
    2258:	494d4f54 	stmdbmi	sp, {r2, r4, r6, r8, r9, sl, fp, lr}^
    225c:	48535f43 	ldmdami	r3, {r0, r1, r6, r8, r9, sl, fp, ip, lr}^
    2260:	5f54524f 	svcpl	0x0054524f
    2264:	4b434f4c 	blmi	10d5f9c <multiplylookup+0x10cc8cc>
    2268:	4552465f 	ldrbmi	r4, [r2, #-1631]	; 0x65f
    226c:	00312045 	eorseq	r2, r1, r5, asr #32
    2270:	4c435047 	mcrrmi	0, 4, r5, r3, cr7
    2274:	30203052 	eorcc	r3, r0, r2, asr r0
    2278:	32303278 	eorscc	r3, r0, #120, 4	; 0x80000007
    227c:	32303030 	eorscc	r3, r0, #48	; 0x30
    2280:	5f5f0038 	svcpl	0x005f0038
    2284:	55434341 	strbpl	r4, [r3, #-833]	; 0x341
    2288:	494d5f4d 	stmdbmi	sp, {r0, r2, r3, r6, r8, r9, sl, fp, ip, lr}^
    228c:	205f5f4e 	subscs	r5, pc, lr, asr #30
    2290:	58302d28 	ldmdapl	r0!, {r3, r5, r8, sl, fp, sp}
    2294:	35315031 	ldrcc	r5, [r1, #-49]!	; 0x31
    2298:	58302d4b 	ldmdapl	r0!, {r0, r1, r3, r6, r8, sl, fp, sp}
    229c:	35315031 	ldrcc	r5, [r1, #-49]!	; 0x31
    22a0:	5f00294b 	svcpl	0x0000294b
    22a4:	4343475f 	movtmi	r4, #14175	; 0x375f
    22a8:	4f54415f 	svcmi	0x0054415f
    22ac:	5f43494d 	svcpl	0x0043494d
    22b0:	4e494f50 	mcrmi	15, 2, r4, cr9, cr0, {2}
    22b4:	5f524554 	svcpl	0x00524554
    22b8:	4b434f4c 	blmi	10d5ff0 <multiplylookup+0x10cc920>
    22bc:	4552465f 	ldrbmi	r4, [r2, #-1631]	; 0x65f
    22c0:	00312045 	eorseq	r2, r1, r5, asr #32
    22c4:	4f535f5f 	svcmi	0x00535f5f
    22c8:	50465446 	subpl	r5, r6, r6, asr #8
    22cc:	31205f5f 	teqcc	r0, pc, asr pc
    22d0:	555f5f00 	ldrbpl	r5, [pc, #-3840]	; 13d8 <_start-0x6c28>
    22d4:	50544e49 	subspl	r4, r4, r9, asr #28
    22d8:	4d5f5254 	lfmmi	f5, 2, [pc, #-336]	; 2190 <_start-0x5e70>
    22dc:	5f5f5841 	svcpl	0x005f5841
    22e0:	39323420 	ldmdbcc	r2!, {r5, sl, ip, sp}
    22e4:	37363934 			; <UNDEFINED> instruction: 0x37363934
    22e8:	55353932 	ldrpl	r3, [r5, #-2354]!	; 0x932
    22ec:	465f5f00 	ldrbmi	r5, [pc], -r0, lsl #30
    22f0:	485f544c 	ldmdami	pc, {r2, r3, r6, sl, ip, lr}^	; <UNPREDICTABLE>
    22f4:	445f5341 	ldrbmi	r5, [pc], #-833	; 22fc <_start-0x5d04>
    22f8:	524f4e45 	subpl	r4, pc, #1104	; 0x450
    22fc:	205f5f4d 	subscs	r5, pc, sp, asr #30
    2300:	5f5f0031 	svcpl	0x005f0031
    2304:	36434544 	strbcc	r4, [r3], -r4, asr #10
    2308:	494d5f34 	stmdbmi	sp, {r2, r4, r5, r8, r9, sl, fp, ip, lr}^
    230c:	205f5f4e 	subscs	r5, pc, lr, asr #30
    2310:	332d4531 	teqcc	sp, #205520896	; 0xc400000
    2314:	44443338 	strbmi	r3, [r4], #-824	; 0x338
    2318:	54555000 	ldrbpl	r5, [r5], #-0
    231c:	5f003233 	svcpl	0x00003233
    2320:	4341535f 	movtmi	r5, #4959	; 0x135f
    2324:	5f4d5543 	svcpl	0x004d5543
    2328:	54494249 	strbpl	r4, [r9], #-585	; 0x249
    232c:	38205f5f 	stmdacc	r0!, {r0, r1, r2, r3, r4, r6, r8, r9, sl, fp, ip, lr}
    2330:	535f5f00 	cmppl	pc, #0, 30
    2334:	52414843 	subpl	r4, r1, #4390912	; 0x430000
    2338:	58414d5f 	stmdapl	r1, {r0, r1, r2, r3, r4, r6, r8, sl, fp, lr}^
    233c:	31205f5f 	teqcc	r0, pc, asr pc
    2340:	47003732 	smladxmi	r0, r2, r7, r3
    2344:	69547465 	ldmdbvs	r4, {r0, r2, r5, r6, sl, ip, sp, lr}^
    2348:	7453656d 	ldrbvc	r6, [r3], #-1389	; 0x56d
    234c:	00706d61 	rsbseq	r6, r0, r1, ror #26
    2350:	6c69614d 	stfvse	f6, [r9], #-308	; 0xfffffecc
    2354:	57786f62 	ldrbpl	r6, [r8, -r2, ror #30]!
    2358:	65746972 	ldrbvs	r6, [r4, #-2418]!	; 0x972
    235c:	52435300 	subpl	r5, r3, #0, 6
    2360:	424e4545 	submi	r4, lr, #289406976	; 0x11400000
    2364:	4c5f4655 	mrrcmi	6, 5, r4, pc, cr5	; <UNPREDICTABLE>
    2368:	54474e45 	strbpl	r4, [r7], #-3653	; 0xe45
    236c:	30312048 	eorscc	r2, r1, r8, asr #32
    2370:	61570030 	cmpvs	r7, r0, lsr r0
    2374:	694d7469 	stmdbvs	sp, {r0, r3, r5, r6, sl, ip, sp, lr}^
    2378:	736f7263 	cmnvc	pc, #805306374	; 0x30000006
    237c:	414f4300 	mrsmi	r4, (UNDEF: 127)
    2380:	5f455352 	svcpl	0x00455352
    2384:	4c424154 	stfmie	f4, [r2], {84}	; 0x54
    2388:	4f575f45 	svcmi	0x00575f45
    238c:	20534452 	subscs	r4, r3, r2, asr r4
    2390:	3c3c3128 	ldfccs	f3, [ip], #-160	; 0xffffff60
    2394:	39312828 	ldmdbcc	r1!, {r3, r5, fp, sp}
    2398:	2932312d 	ldmdbcs	r2!, {r0, r2, r3, r5, r8, ip, sp}
    239c:	2929312b 	stmdbcs	r9!, {r0, r1, r3, r5, r8, ip, sp}
    23a0:	6c6f6300 	stclvs	3, cr6, [pc], #-0	; 23a8 <_start-0x5c58>
    23a4:	5400726f 	strpl	r7, [r0], #-623	; 0x26f
    23a8:	4c5f504f 	mrrcmi	0, 4, r5, pc, cr15	; <UNPREDICTABLE>
    23ac:	4c455645 	mcrrmi	6, 4, r5, r5, cr5
    23b0:	524f575f 	subpl	r5, pc, #24903680	; 0x17c0000
    23b4:	28205344 	stmdacs	r0!, {r2, r6, r8, r9, ip, lr}
    23b8:	283c3c31 	ldmdacs	ip!, {r0, r4, r5, sl, fp, ip, sp}
    23bc:	2d313328 	ldccs	3, cr3, [r1, #-160]!	; 0xffffff60
    23c0:	2b293032 	blcs	a4e490 <multiplylookup+0xa44dc0>
    23c4:	00292931 	eoreq	r2, r9, r1, lsr r9
    23c8:	54554d4d 	ldrbpl	r4, [r5], #-3405	; 0xd4d
    23cc:	454c4241 	strbmi	r4, [ip, #-577]	; 0x241
    23d0:	455a4953 	ldrbmi	r4, [sl, #-2387]	; 0x953
    23d4:	78302820 	ldmdavc	r0!, {r5, fp, sp}
    23d8:	30303038 	eorscc	r3, r0, r8, lsr r0
    23dc:	72640029 	rsbvc	r0, r4, #41	; 0x29
    23e0:	694c7761 	stmdbvs	ip, {r0, r5, r6, r8, r9, sl, ip, sp, lr}^
    23e4:	4d00656e 	cfstr32mi	mvfx6, [r0, #-440]	; 0xfffffe48
    23e8:	4154554d 	cmpmi	r4, sp, asr #10
    23ec:	4d454c42 	stclmi	12, cr4, [r5, #-264]	; 0xfffffef8
    23f0:	204b5341 	subcs	r5, fp, r1, asr #6
    23f4:	4d4d2828 	stclmi	8, cr2, [sp, #-160]	; 0xffffff60
    23f8:	42415455 	submi	r5, r1, #1426063360	; 0x55000000
    23fc:	4953454c 	ldmdbmi	r3, {r2, r3, r6, r8, sl, lr}^
    2400:	312d455a 	teqcc	sp, sl, asr r5
    2404:	323e3e29 	eorscc	r3, lr, #656	; 0x290
    2408:	4d530029 	ldclmi	0, cr0, [r3, #-164]	; 0xffffff5c
    240c:	5f4c4c41 	svcpl	0x004c4c41
    2410:	4c424154 	stfmie	f4, [r2], {84}	; 0x54
    2414:	4f575f45 	svcmi	0x00575f45
    2418:	20534452 	subscs	r4, r3, r2, asr r4
    241c:	3c3c3128 	ldfccs	f3, [ip], #-160	; 0xffffff60
    2420:	31312828 	teqcc	r1, r8, lsr #16
    2424:	2b29302d 	blcs	a4e4e0 <multiplylookup+0xa44e10>
    2428:	00292931 	eoreq	r2, r9, r1, lsr r9
    242c:	65646976 	strbvs	r6, [r4, #-2422]!	; 0x976
    2430:	2e31306f 	cdpcs	0, 3, cr3, cr1, cr15, {3}
    2434:	6c630063 	stclvs	0, cr0, [r3], #-396	; 0xfffffe74
    2438:	72635372 	rsbvc	r5, r3, #-939524095	; 0xc8000001
    243c:	006e6565 	rsbeq	r6, lr, r5, ror #10
    2440:	77617264 	strbvc	r7, [r1, -r4, ror #4]!
    2444:	74636552 	strbtvc	r6, [r3], #-1362	; 0x552
    2448:	61686300 	cmnvs	r8, r0, lsl #6
    244c:	6c656e6e 	stclvs	14, cr6, [r5], #-440	; 0xfffffe48
    2450:	6c756d00 	ldclvs	13, cr6, [r5], #-0
    2454:	6c706974 	ldclvs	9, cr6, [r0], #-464	; 0xfffffe30
    2458:	6f6f6c79 	svcvs	0x006f6c79
    245c:	0070756b 	rsbseq	r7, r0, fp, ror #10
    2460:	6c69614d 	stfvse	f6, [r9], #-308	; 0xfffffecc
    2464:	52786f62 	rsbspl	r6, r8, #392	; 0x188
    2468:	00646165 	rsbeq	r6, r4, r5, ror #2
    246c:	6e696266 	cdpvs	2, 6, cr6, cr9, cr6, {3}
    2470:	615f6f66 	cmpvs	pc, r6, ror #30
    2474:	00726464 	rsbseq	r6, r2, r4, ror #8
    2478:	54554d4d 	ldrbpl	r4, [r5], #-3405	; 0xd4d
    247c:	454c4241 	strbmi	r4, [ip, #-577]	; 0x241
    2480:	45534142 	ldrbmi	r4, [r3, #-322]	; 0x142
    2484:	30783020 	rsbscc	r3, r8, r0, lsr #32
    2488:	30303130 	eorscc	r3, r0, r0, lsr r1
    248c:	00303030 	eorseq	r3, r0, r0, lsr r0
    2490:	657a6973 	ldrbvs	r6, [sl, #-2419]!	; 0x973
    2494:	65707974 	ldrbvs	r7, [r0, #-2420]!	; 0x974
    2498:	6d697400 	cfstrdvs	mvd7, [r9, #-0]
    249c:	61747365 	cmnvs	r4, r5, ror #6
    24a0:	6e00706d 	cdpvs	0, 0, cr7, cr0, cr13, {3}
    24a4:	616d746f 	cmnvs	sp, pc, ror #8
    24a8:	6d006e69 	stcvs	14, cr6, [r0, #-420]	; 0xfffffe5c
    24ac:	626c6961 	rsbvs	r6, ip, #1589248	; 0x184000
    24b0:	7300786f 	movwvc	r7, #2159	; 0x86f
    24b4:	6d637274 	sfmvs	f7, 2, [r3, #-464]!	; 0xfffffe30
    24b8:	72640070 	rsbvc	r0, r4, #112	; 0x70
    24bc:	74537761 	ldrbvc	r7, [r3], #-1889	; 0x761
    24c0:	676e6972 			; <UNDEFINED> instruction: 0x676e6972
    24c4:	72657400 	rsbvc	r7, r5, #0, 8
    24c8:	616e696d 	cmnvs	lr, sp, ror #18
    24cc:	00632e6c 	rsbeq	r2, r3, ip, ror #28
    24d0:	66667562 	strbtvs	r7, [r6], -r2, ror #10
    24d4:	65007265 	strvs	r7, [r0, #-613]	; 0x265
    24d8:	436c6176 	cmnmi	ip, #-2147483619	; 0x8000001d
    24dc:	616d6d6f 	cmnvs	sp, pc, ror #26
    24e0:	6400646e 	strvs	r6, [r0], #-1134	; 0x46e
    24e4:	68436c65 	stmdavs	r3, {r0, r2, r5, r6, sl, fp, sp, lr}^
    24e8:	68007261 	stmdavs	r0, {r0, r5, r6, r9, ip, sp, lr}
    24ec:	68676965 	stmdavs	r7!, {r0, r2, r5, r6, r8, fp, sp, lr}^
    24f0:	69640074 	stmdbvs	r4!, {r2, r4, r5, r6}^
    24f4:	616c7073 	smcvs	50947	; 0xc703
    24f8:	00632e79 	rsbeq	r2, r3, r9, ror lr
    24fc:	74646977 	strbtvc	r6, [r4], #-2423	; 0x977
    2500:	666f0068 	strbtvs	r0, [pc], -r8, rrx
    2504:	74657366 	strbtvc	r7, [r5], #-870	; 0x366
    2508:	61724400 	cmnvs	r2, r0, lsl #8
    250c:	61684377 	smcvs	33847	; 0x8437
    2510:	6d780072 	ldclvs	0, cr0, [r8, #-456]!	; 0xfffffe38
    2514:	79007861 	stmdbvc	r0, {r0, r5, r6, fp, ip, sp, lr}
    2518:	006e696d 	rsbeq	r6, lr, sp, ror #18
    251c:	72646461 	rsbvc	r6, r4, #1627389952	; 0x61000000
    2520:	00737365 	rsbseq	r7, r3, r5, ror #6
    2524:	50746573 	rsbspl	r6, r4, r3, ror r5
    2528:	6c657869 	stclvs	8, cr7, [r5], #-420	; 0xfffffe5c
    252c:	54555000 	ldrbpl	r5, [r5], #-0
    2530:	78003631 	stmdavc	r0, {r0, r4, r5, r9, sl, ip, sp}
    2534:	006e696d 	rsbeq	r6, lr, sp, ror #18
    2538:	77617264 	strbvc	r7, [r1, -r4, ror #4]!
    253c:	72616843 	rsbvc	r6, r1, #4390912	; 0x430000
    2540:	616d7900 	cmnvs	sp, r0, lsl #18
    2544:	72640078 	rsbvc	r0, r4, #120	; 0x78
    2548:	72547761 	subsvc	r7, r4, #25427968	; 0x1840000
    254c:	676e6169 	strbvs	r6, [lr, -r9, ror #2]!
    2550:	Address 0x0000000000002550 is out of bounds.


Disassembly of section .debug_frame:

00000000 <.debug_frame>:
   0:	0000000c 	andeq	r0, r0, ip
   4:	ffffffff 			; <UNDEFINED> instruction: 0xffffffff
   8:	7c020001 	stcvc	0, cr0, [r2], {1}
   c:	000d0c0e 	andeq	r0, sp, lr, lsl #24
  10:	00000014 	andeq	r0, r0, r4, lsl r0
  14:	00000000 	andeq	r0, r0, r0
  18:	000080a0 	andeq	r8, r0, r0, lsr #1
  1c:	00000018 	andeq	r0, r0, r8, lsl r0
  20:	83080e42 	movwhi	r0, #36418	; 0x8e42
  24:	00018e02 	andeq	r8, r1, r2, lsl #28
  28:	00000014 	andeq	r0, r0, r4, lsl r0
  2c:	00000000 	andeq	r0, r0, r0
  30:	000080b8 	strheq	r8, [r0], -r8	; <UNPREDICTABLE>
  34:	00000030 	andeq	r0, r0, r0, lsr r0
  38:	83080e42 	movwhi	r0, #36418	; 0x8e42
  3c:	00018e02 	andeq	r8, r1, r2, lsl #28
  40:	00000014 	andeq	r0, r0, r4, lsl r0
  44:	00000000 	andeq	r0, r0, r0
  48:	000080e8 	andeq	r8, r0, r8, ror #1
  4c:	0000001c 	andeq	r0, r0, ip, lsl r0
  50:	83080e42 	movwhi	r0, #36418	; 0x8e42
  54:	00018e02 	andeq	r8, r1, r2, lsl #28
  58:	00000014 	andeq	r0, r0, r4, lsl r0
  5c:	00000000 	andeq	r0, r0, r0
  60:	00008104 	andeq	r8, r0, r4, lsl #2
  64:	00000034 	andeq	r0, r0, r4, lsr r0
  68:	84080e42 	strhi	r0, [r8], #-3650	; 0xe42
  6c:	00018e02 	andeq	r8, r1, r2, lsl #28
  70:	00000014 	andeq	r0, r0, r4, lsl r0
  74:	00000000 	andeq	r0, r0, r0
  78:	00008138 	andeq	r8, r0, r8, lsr r1
  7c:	0000002c 	andeq	r0, r0, ip, lsr #32
  80:	84080e42 	strhi	r0, [r8], #-3650	; 0xe42
  84:	00018e02 	andeq	r8, r1, r2, lsl #28
  88:	00000014 	andeq	r0, r0, r4, lsl r0
  8c:	00000000 	andeq	r0, r0, r0
  90:	00008164 	andeq	r8, r0, r4, ror #2
  94:	00000020 	andeq	r0, r0, r0, lsr #32
  98:	83080e42 	movwhi	r0, #36418	; 0x8e42
  9c:	00018e02 	andeq	r8, r1, r2, lsl #28
  a0:	00000018 	andeq	r0, r0, r8, lsl r0
  a4:	00000000 	andeq	r0, r0, r0
  a8:	00008184 	andeq	r8, r0, r4, lsl #3
  ac:	0000003c 	andeq	r0, r0, ip, lsr r0
  b0:	83100e42 	tsthi	r0, #1056	; 0x420
  b4:	85038404 	strhi	r8, [r3, #-1028]	; 0x404
  b8:	00018e02 	andeq	r8, r1, r2, lsl #28
  bc:	00000014 	andeq	r0, r0, r4, lsl r0
  c0:	00000000 	andeq	r0, r0, r0
  c4:	000081c0 	andeq	r8, r0, r0, asr #3
  c8:	0000001c 	andeq	r0, r0, ip, lsl r0
  cc:	83080e42 	movwhi	r0, #36418	; 0x8e42
  d0:	00018e02 	andeq	r8, r1, r2, lsl #28
  d4:	00000014 	andeq	r0, r0, r4, lsl r0
  d8:	00000000 	andeq	r0, r0, r0
  dc:	000081dc 	ldrdeq	r8, [r0], -ip
  e0:	00000110 	andeq	r0, r0, r0, lsl r1
  e4:	84080e42 	strhi	r0, [r8], #-3650	; 0xe42
  e8:	00018e02 	andeq	r8, r1, r2, lsl #28
  ec:	00000014 	andeq	r0, r0, r4, lsl r0
  f0:	00000000 	andeq	r0, r0, r0
  f4:	000082ec 	andeq	r8, r0, ip, ror #5
  f8:	00000030 	andeq	r0, r0, r0, lsr r0
  fc:	84080e42 	strhi	r0, [r8], #-3650	; 0xe42
 100:	00018e02 	andeq	r8, r1, r2, lsl #28
 104:	00000014 	andeq	r0, r0, r4, lsl r0
 108:	00000000 	andeq	r0, r0, r0
 10c:	0000831c 	andeq	r8, r0, ip, lsl r3
 110:	00000018 	andeq	r0, r0, r8, lsl r0
 114:	83080e42 	movwhi	r0, #36418	; 0x8e42
 118:	00018e02 	andeq	r8, r1, r2, lsl #28
 11c:	0000000c 	andeq	r0, r0, ip
 120:	ffffffff 			; <UNDEFINED> instruction: 0xffffffff
 124:	7c020001 	stcvc	0, cr0, [r2], {1}
 128:	000d0c0e 	andeq	r0, sp, lr, lsl #24
 12c:	00000018 	andeq	r0, r0, r8, lsl r0
 130:	0000011c 	andeq	r0, r0, ip, lsl r1
 134:	00008334 	andeq	r8, r0, r4, lsr r3
 138:	0000003c 	andeq	r0, r0, ip, lsr r0
 13c:	83100e42 	tsthi	r0, #1056	; 0x420
 140:	85038404 	strhi	r8, [r3, #-1028]	; 0x404
 144:	00018e02 	andeq	r8, r1, r2, lsl #28
 148:	00000014 	andeq	r0, r0, r4, lsl r0
 14c:	0000011c 	andeq	r0, r0, ip, lsl r1
 150:	00008370 	andeq	r8, r0, r0, ror r3
 154:	0000003c 	andeq	r0, r0, ip, lsr r0
 158:	84080e42 	strhi	r0, [r8], #-3650	; 0xe42
 15c:	00018e02 	andeq	r8, r1, r2, lsl #28
 160:	0000001c 	andeq	r0, r0, ip, lsl r0
 164:	0000011c 	andeq	r0, r0, ip, lsl r1
 168:	000083ac 	andeq	r8, r0, ip, lsr #7
 16c:	000001a4 	andeq	r0, r0, r4, lsr #3
 170:	84100e42 	ldrhi	r0, [r0], #-3650	; 0xe42
 174:	86038504 	strhi	r8, [r3], -r4, lsl #10
 178:	42018e02 	andmi	r8, r1, #2, 28
 17c:	0000180e 	andeq	r1, r0, lr, lsl #16
 180:	0000000c 	andeq	r0, r0, ip
 184:	ffffffff 			; <UNDEFINED> instruction: 0xffffffff
 188:	7c020001 	stcvc	0, cr0, [r2], {1}
 18c:	000d0c0e 	andeq	r0, sp, lr, lsl #24
 190:	0000000c 	andeq	r0, r0, ip
 194:	00000180 	andeq	r0, r0, r0, lsl #3
 198:	00008698 	muleq	r0, r8, r6
 19c:	00000030 	andeq	r0, r0, r0, lsr r0
 1a0:	00000024 	andeq	r0, r0, r4, lsr #32
 1a4:	00000180 	andeq	r0, r0, r0, lsl #3
 1a8:	000086c8 	andeq	r8, r0, r8, asr #13
 1ac:	00000154 	andeq	r0, r0, r4, asr r1
 1b0:	841c0e42 	ldrhi	r0, [ip], #-3650	; 0xe42
 1b4:	86068507 	strhi	r8, [r6], -r7, lsl #10
 1b8:	88048705 	stmdahi	r4, {r0, r2, r8, r9, sl, pc}
 1bc:	8e028a03 	vmlahi.f32	s16, s4, s6
 1c0:	e80e4601 	stmda	lr, {r0, r9, sl, lr}
 1c4:	00000001 	andeq	r0, r0, r1
 1c8:	0000000c 	andeq	r0, r0, ip
 1cc:	ffffffff 			; <UNDEFINED> instruction: 0xffffffff
 1d0:	7c020001 	stcvc	0, cr0, [r2], {1}
 1d4:	000d0c0e 	andeq	r0, sp, lr, lsl #24
 1d8:	0000000c 	andeq	r0, r0, ip
 1dc:	000001c8 	andeq	r0, r0, r8, asr #3
 1e0:	0000881c 	andeq	r8, r0, ip, lsl r8
 1e4:	0000000c 	andeq	r0, r0, ip
 1e8:	00000014 	andeq	r0, r0, r4, lsl r0
 1ec:	000001c8 	andeq	r0, r0, r8, asr #3
 1f0:	00008828 	andeq	r8, r0, r8, lsr #16
 1f4:	00000050 	andeq	r0, r0, r0, asr r0
 1f8:	84080e42 	strhi	r0, [r8], #-3650	; 0xe42
 1fc:	00018e02 	andeq	r8, r1, r2, lsl #28
 200:	00000018 	andeq	r0, r0, r8, lsl r0
 204:	000001c8 	andeq	r0, r0, r8, asr #3
 208:	00008878 	andeq	r8, r0, r8, ror r8
 20c:	00000048 	andeq	r0, r0, r8, asr #32
 210:	84100e46 	ldrhi	r0, [r0], #-3654	; 0xe46
 214:	86038504 	strhi	r8, [r3], -r4, lsl #10
 218:	00018e02 	andeq	r8, r1, r2, lsl #28
 21c:	00000024 	andeq	r0, r0, r4, lsr #32
 220:	000001c8 	andeq	r0, r0, r8, asr #3
 224:	000088c0 	andeq	r8, r0, r0, asr #17
 228:	0000014c 	andeq	r0, r0, ip, asr #2
 22c:	84240e42 	strthi	r0, [r4], #-3650	; 0xe42
 230:	86088509 	strhi	r8, [r8], -r9, lsl #10
 234:	88068707 	stmdahi	r6, {r0, r1, r2, r8, r9, sl, pc}
 238:	8a048905 	bhi	122654 <multiplylookup+0x118f84>
 23c:	8e028b03 	vmlahi.f64	d8, d2, d3
 240:	400e5c01 	andmi	r5, lr, r1, lsl #24
 244:	00000024 	andeq	r0, r0, r4, lsr #32
 248:	000001c8 	andeq	r0, r0, r8, asr #3
 24c:	00008a0c 	andeq	r8, r0, ip, lsl #20
 250:	000000a0 	andeq	r0, r0, r0, lsr #1
 254:	84240e42 	strthi	r0, [r4], #-3650	; 0xe42
 258:	86088509 	strhi	r8, [r8], -r9, lsl #10
 25c:	88068707 	stmdahi	r6, {r0, r1, r2, r8, r9, sl, pc}
 260:	8a048905 	bhi	12267c <multiplylookup+0x118fac>
 264:	8e028b03 	vmlahi.f64	d8, d2, d3
 268:	300e4401 	andcc	r4, lr, r1, lsl #8
 26c:	00000014 	andeq	r0, r0, r4, lsl r0
 270:	000001c8 	andeq	r0, r0, r8, asr #3
 274:	00008aac 	andeq	r8, r0, ip, lsr #21
 278:	00000028 	andeq	r0, r0, r8, lsr #32
 27c:	83080e44 	movwhi	r0, #36420	; 0x8e44
 280:	00018e02 	andeq	r8, r1, r2, lsl #28
 284:	0000001c 	andeq	r0, r0, ip, lsl r0
 288:	000001c8 	andeq	r0, r0, r8, asr #3
 28c:	00008ad4 	ldrdeq	r8, [r0], -r4
 290:	00000054 	andeq	r0, r0, r4, asr r0
 294:	83180e42 	tsthi	r8, #1056	; 0x420
 298:	85058406 	strhi	r8, [r5, #-1030]	; 0x406
 29c:	87038604 	strhi	r8, [r3, -r4, lsl #12]
 2a0:	00018e02 	andeq	r8, r1, r2, lsl #28
 2a4:	00000024 	andeq	r0, r0, r4, lsr #32
 2a8:	000001c8 	andeq	r0, r0, r8, asr #3
 2ac:	00008b28 	andeq	r8, r0, r8, lsr #22
 2b0:	000000b0 	strheq	r0, [r0], -r0	; <UNPREDICTABLE>
 2b4:	84240e42 	strthi	r0, [r4], #-3650	; 0xe42
 2b8:	86088509 	strhi	r8, [r8], -r9, lsl #10
 2bc:	88068707 	stmdahi	r6, {r0, r1, r2, r8, r9, sl, pc}
 2c0:	8a048905 	bhi	1226dc <multiplylookup+0x11900c>
 2c4:	8e028b03 	vmlahi.f64	d8, d2, d3
 2c8:	300e4401 	andcc	r4, lr, r1, lsl #8
 2cc:	00000024 	andeq	r0, r0, r4, lsr #32
 2d0:	000001c8 	andeq	r0, r0, r8, asr #3
 2d4:	00008bd8 	ldrdeq	r8, [r0], -r8	; <UNPREDICTABLE>
 2d8:	000002bc 			; <UNDEFINED> instruction: 0x000002bc
 2dc:	84240e42 	strthi	r0, [r4], #-3650	; 0xe42
 2e0:	86088509 	strhi	r8, [r8], -r9, lsl #10
 2e4:	88068707 	stmdahi	r6, {r0, r1, r2, r8, r9, sl, pc}
 2e8:	8a048905 	bhi	122704 <multiplylookup+0x119034>
 2ec:	8e028b03 	vmlahi.f64	d8, d2, d3
 2f0:	600e4201 	andvs	r4, lr, r1, lsl #4
