
bootloader07_rpi2.elf:     file format elf32-littlearm


Disassembly of section .text:

00008000 <_start>:
    8000:	ea07dffe 	b	200000 <skip>
	...

00200000 <skip>:
  200000:	e3a0d302 	mov	sp, #134217728	; 0x8000000
  200004:	eb0000a6 	bl	2002a4 <notmain>

00200008 <hang>:
  200008:	eafffffe 	b	200008 <hang>

0020000c <PUT32>:
  20000c:	e5801000 	str	r1, [r0]
  200010:	e12fff1e 	bx	lr

00200014 <PUT16>:
  200014:	e1c010b0 	strh	r1, [r0]
  200018:	e12fff1e 	bx	lr

0020001c <PUT8>:
  20001c:	e5c01000 	strb	r1, [r0]
  200020:	e12fff1e 	bx	lr

00200024 <GET32>:
  200024:	e5900000 	ldr	r0, [r0]
  200028:	e12fff1e 	bx	lr

0020002c <GETPC>:
  20002c:	e1a0000e 	mov	r0, lr
  200030:	e12fff1e 	bx	lr

00200034 <BRANCHTO>:
  200034:	e12fff10 	bx	r0

00200038 <dummy>:
  200038:	e12fff1e 	bx	lr

0020003c <uart_lcr>:
  20003c:	e92d4010 	push	{r4, lr}
  200040:	e59f0008 	ldr	r0, [pc, #8]	; 200050 <uart_lcr+0x14>
  200044:	ebfffff6 	bl	200024 <GET32>
  200048:	e8bd4010 	pop	{r4, lr}
  20004c:	e12fff1e 	bx	lr
  200050:	3f215054 	svccc	0x00215054

00200054 <uart_recv>:
  200054:	e92d4010 	push	{r4, lr}
  200058:	e59f001c 	ldr	r0, [pc, #28]	; 20007c <uart_recv+0x28>
  20005c:	ebfffff0 	bl	200024 <GET32>
  200060:	e3100001 	tst	r0, #1
  200064:	0afffffb 	beq	200058 <uart_recv+0x4>
  200068:	e59f0010 	ldr	r0, [pc, #16]	; 200080 <uart_recv+0x2c>
  20006c:	ebffffec 	bl	200024 <GET32>
  200070:	e8bd4010 	pop	{r4, lr}
  200074:	e20000ff 	and	r0, r0, #255	; 0xff
  200078:	e12fff1e 	bx	lr
  20007c:	3f215054 	svccc	0x00215054
  200080:	3f215040 	svccc	0x00215040

00200084 <uart_check>:
  200084:	e92d4010 	push	{r4, lr}
  200088:	e59f000c 	ldr	r0, [pc, #12]	; 20009c <uart_check+0x18>
  20008c:	ebffffe4 	bl	200024 <GET32>
  200090:	e8bd4010 	pop	{r4, lr}
  200094:	e2000001 	and	r0, r0, #1
  200098:	e12fff1e 	bx	lr
  20009c:	3f215054 	svccc	0x00215054

002000a0 <uart_send>:
  2000a0:	e92d4010 	push	{r4, lr}
  2000a4:	e1a04000 	mov	r4, r0
  2000a8:	e59f001c 	ldr	r0, [pc, #28]	; 2000cc <uart_send+0x2c>
  2000ac:	ebffffdc 	bl	200024 <GET32>
  2000b0:	e3100020 	tst	r0, #32
  2000b4:	0afffffb 	beq	2000a8 <uart_send+0x8>
  2000b8:	e1a01004 	mov	r1, r4
  2000bc:	e59f000c 	ldr	r0, [pc, #12]	; 2000d0 <uart_send+0x30>
  2000c0:	ebffffd1 	bl	20000c <PUT32>
  2000c4:	e8bd4010 	pop	{r4, lr}
  2000c8:	e12fff1e 	bx	lr
  2000cc:	3f215054 	svccc	0x00215054
  2000d0:	3f215040 	svccc	0x00215040

002000d4 <uart_flush>:
  2000d4:	e92d4010 	push	{r4, lr}
  2000d8:	e59f0010 	ldr	r0, [pc, #16]	; 2000f0 <uart_flush+0x1c>
  2000dc:	ebffffd0 	bl	200024 <GET32>
  2000e0:	e3100c01 	tst	r0, #256	; 0x100
  2000e4:	1afffffb 	bne	2000d8 <uart_flush+0x4>
  2000e8:	e8bd4010 	pop	{r4, lr}
  2000ec:	e12fff1e 	bx	lr
  2000f0:	3f215054 	svccc	0x00215054

002000f4 <hexstrings>:
  2000f4:	e92d4070 	push	{r4, r5, r6, lr}
  2000f8:	e1a05000 	mov	r5, r0
  2000fc:	e3a04020 	mov	r4, #32
  200100:	e2444004 	sub	r4, r4, #4
  200104:	e1a00435 	lsr	r0, r5, r4
  200108:	e200000f 	and	r0, r0, #15
  20010c:	e3500009 	cmp	r0, #9
  200110:	82800037 	addhi	r0, r0, #55	; 0x37
  200114:	92800030 	addls	r0, r0, #48	; 0x30
  200118:	ebffffe0 	bl	2000a0 <uart_send>
  20011c:	e3540000 	cmp	r4, #0
  200120:	1afffff6 	bne	200100 <hexstrings+0xc>
  200124:	e3a00020 	mov	r0, #32
  200128:	e8bd4070 	pop	{r4, r5, r6, lr}
  20012c:	eaffffdb 	b	2000a0 <uart_send>

00200130 <hexstring>:
  200130:	e92d4010 	push	{r4, lr}
  200134:	ebffffee 	bl	2000f4 <hexstrings>
  200138:	e3a0000d 	mov	r0, #13
  20013c:	ebffffd7 	bl	2000a0 <uart_send>
  200140:	e3a0000a 	mov	r0, #10
  200144:	e8bd4010 	pop	{r4, lr}
  200148:	eaffffd4 	b	2000a0 <uart_send>

0020014c <uart_init>:
  20014c:	e92d4010 	push	{r4, lr}
  200150:	e3a01001 	mov	r1, #1
  200154:	e59f00d4 	ldr	r0, [pc, #212]	; 200230 <uart_init+0xe4>
  200158:	ebffffab 	bl	20000c <PUT32>
  20015c:	e3a01000 	mov	r1, #0
  200160:	e59f00cc 	ldr	r0, [pc, #204]	; 200234 <uart_init+0xe8>
  200164:	ebffffa8 	bl	20000c <PUT32>
  200168:	e3a01000 	mov	r1, #0
  20016c:	e59f00c4 	ldr	r0, [pc, #196]	; 200238 <uart_init+0xec>
  200170:	ebffffa5 	bl	20000c <PUT32>
  200174:	e3a01003 	mov	r1, #3
  200178:	e59f00bc 	ldr	r0, [pc, #188]	; 20023c <uart_init+0xf0>
  20017c:	ebffffa2 	bl	20000c <PUT32>
  200180:	e3a01000 	mov	r1, #0
  200184:	e59f00b4 	ldr	r0, [pc, #180]	; 200240 <uart_init+0xf4>
  200188:	ebffff9f 	bl	20000c <PUT32>
  20018c:	e3a01000 	mov	r1, #0
  200190:	e59f009c 	ldr	r0, [pc, #156]	; 200234 <uart_init+0xe8>
  200194:	ebffff9c 	bl	20000c <PUT32>
  200198:	e3a010c6 	mov	r1, #198	; 0xc6
  20019c:	e59f00a0 	ldr	r0, [pc, #160]	; 200244 <uart_init+0xf8>
  2001a0:	ebffff99 	bl	20000c <PUT32>
  2001a4:	e59f109c 	ldr	r1, [pc, #156]	; 200248 <uart_init+0xfc>
  2001a8:	e59f009c 	ldr	r0, [pc, #156]	; 20024c <uart_init+0x100>
  2001ac:	ebffff96 	bl	20000c <PUT32>
  2001b0:	e59f0098 	ldr	r0, [pc, #152]	; 200250 <uart_init+0x104>
  2001b4:	ebffff9a 	bl	200024 <GET32>
  2001b8:	e3c01a3f 	bic	r1, r0, #258048	; 0x3f000
  2001bc:	e3811a12 	orr	r1, r1, #73728	; 0x12000
  2001c0:	e59f0088 	ldr	r0, [pc, #136]	; 200250 <uart_init+0x104>
  2001c4:	ebffff90 	bl	20000c <PUT32>
  2001c8:	e3a01000 	mov	r1, #0
  2001cc:	e59f0080 	ldr	r0, [pc, #128]	; 200254 <uart_init+0x108>
  2001d0:	ebffff8d 	bl	20000c <PUT32>
  2001d4:	e3a04000 	mov	r4, #0
  2001d8:	e1a00004 	mov	r0, r4
  2001dc:	e2844001 	add	r4, r4, #1
  2001e0:	ebffff94 	bl	200038 <dummy>
  2001e4:	e3540096 	cmp	r4, #150	; 0x96
  2001e8:	1afffffa 	bne	2001d8 <uart_init+0x8c>
  2001ec:	e3a01903 	mov	r1, #49152	; 0xc000
  2001f0:	e59f0060 	ldr	r0, [pc, #96]	; 200258 <uart_init+0x10c>
  2001f4:	ebffff84 	bl	20000c <PUT32>
  2001f8:	e3a04000 	mov	r4, #0
  2001fc:	e1a00004 	mov	r0, r4
  200200:	e2844001 	add	r4, r4, #1
  200204:	ebffff8b 	bl	200038 <dummy>
  200208:	e3540096 	cmp	r4, #150	; 0x96
  20020c:	1afffffa 	bne	2001fc <uart_init+0xb0>
  200210:	e3a01000 	mov	r1, #0
  200214:	e59f003c 	ldr	r0, [pc, #60]	; 200258 <uart_init+0x10c>
  200218:	ebffff7b 	bl	20000c <PUT32>
  20021c:	e3a01003 	mov	r1, #3
  200220:	e59f0010 	ldr	r0, [pc, #16]	; 200238 <uart_init+0xec>
  200224:	ebffff78 	bl	20000c <PUT32>
  200228:	e8bd4010 	pop	{r4, lr}
  20022c:	e12fff1e 	bx	lr
  200230:	3f215004 	svccc	0x00215004
  200234:	3f215044 	svccc	0x00215044
  200238:	3f215060 	svccc	0x00215060
  20023c:	3f21504c 	svccc	0x0021504c
  200240:	3f215050 	svccc	0x00215050
  200244:	3f215048 	svccc	0x00215048
  200248:	0000010e 	andeq	r0, r0, lr, lsl #2
  20024c:	3f215068 	svccc	0x00215068
  200250:	3f200004 	svccc	0x00200004
  200254:	3f200094 	svccc	0x00200094
  200258:	3f200098 	svccc	0x00200098

0020025c <timer_init>:
  20025c:	e92d4010 	push	{r4, lr}
  200260:	e59f401c 	ldr	r4, [pc, #28]	; 200284 <timer_init+0x28>
  200264:	e3a018f9 	mov	r1, #16318464	; 0xf90000
  200268:	e1a00004 	mov	r0, r4
  20026c:	ebffff66 	bl	20000c <PUT32>
  200270:	e1a00004 	mov	r0, r4
  200274:	e59f100c 	ldr	r1, [pc, #12]	; 200288 <timer_init+0x2c>
  200278:	ebffff63 	bl	20000c <PUT32>
  20027c:	e8bd4010 	pop	{r4, lr}
  200280:	e12fff1e 	bx	lr
  200284:	3f00b408 	svccc	0x0000b408
  200288:	00f90200 	rscseq	r0, r9, r0, lsl #4

0020028c <timer_tick>:
  20028c:	e92d4010 	push	{r4, lr}
  200290:	e59f0008 	ldr	r0, [pc, #8]	; 2002a0 <timer_tick+0x14>
  200294:	ebffff62 	bl	200024 <GET32>
  200298:	e8bd4010 	pop	{r4, lr}
  20029c:	e12fff1e 	bx	lr
  2002a0:	3f00b420 	svccc	0x0000b420

002002a4 <notmain>:
  2002a4:	e92d4ff0 	push	{r4, r5, r6, r7, r8, r9, sl, fp, lr}
  2002a8:	e3a04000 	mov	r4, #0
  2002ac:	e1a0a004 	mov	sl, r4
  2002b0:	e1a09004 	mov	r9, r4
  2002b4:	e1a06004 	mov	r6, r4
  2002b8:	e1a05004 	mov	r5, r4
  2002bc:	e1a08004 	mov	r8, r4
  2002c0:	e1a07004 	mov	r7, r4
  2002c4:	e24dd014 	sub	sp, sp, #20
  2002c8:	ebffff9f 	bl	20014c <uart_init>
  2002cc:	e59f0538 	ldr	r0, [pc, #1336]	; 20080c <notmain+0x568>
  2002d0:	ebffff96 	bl	200130 <hexstring>
  2002d4:	ebffff54 	bl	20002c <GETPC>
  2002d8:	ebffff94 	bl	200130 <hexstring>
  2002dc:	e3a00069 	mov	r0, #105	; 0x69
  2002e0:	ebffff6e 	bl	2000a0 <uart_send>
  2002e4:	e3a00068 	mov	r0, #104	; 0x68
  2002e8:	ebffff6c 	bl	2000a0 <uart_send>
  2002ec:	e3a00065 	mov	r0, #101	; 0x65
  2002f0:	ebffff6a 	bl	2000a0 <uart_send>
  2002f4:	e3a00078 	mov	r0, #120	; 0x78
  2002f8:	ebffff68 	bl	2000a0 <uart_send>
  2002fc:	e3a0000d 	mov	r0, #13
  200300:	ebffff66 	bl	2000a0 <uart_send>
  200304:	e3a0000a 	mov	r0, #10
  200308:	e58d4008 	str	r4, [sp, #8]
  20030c:	e58d4004 	str	r4, [sp, #4]
  200310:	e59fb4f8 	ldr	fp, [pc, #1272]	; 200810 <notmain+0x56c>
  200314:	ebffff61 	bl	2000a0 <uart_send>
  200318:	e59d1004 	ldr	r1, [sp, #4]
  20031c:	e58d1004 	str	r1, [sp, #4]
  200320:	ebffff4b 	bl	200054 <uart_recv>
  200324:	e350003a 	cmp	r0, #58	; 0x3a
  200328:	0a000022 	beq	2003b8 <notmain+0x114>
  20032c:	e350000d 	cmp	r0, #13
  200330:	e59d1004 	ldr	r1, [sp, #4]
  200334:	0a000032 	beq	200404 <notmain+0x160>
  200338:	e350000a 	cmp	r0, #10
  20033c:	0a00008a 	beq	20056c <notmain+0x2c8>
  200340:	e3c03020 	bic	r3, r0, #32
  200344:	e3530047 	cmp	r3, #71	; 0x47
  200348:	0a000073 	beq	20051c <notmain+0x278>
  20034c:	e2413001 	sub	r3, r1, #1
  200350:	e3530014 	cmp	r3, #20
  200354:	979ff103 	ldrls	pc, [pc, r3, lsl #2]
  200358:	eaffffef 	b	20031c <notmain+0x78>
  20035c:	002007ec 	eoreq	r0, r0, ip, ror #15
  200360:	002007ec 	eoreq	r0, r0, ip, ror #15
  200364:	00200670 	eoreq	r0, r0, r0, ror r6
  200368:	00200670 	eoreq	r0, r0, r0, ror r6
  20036c:	00200670 	eoreq	r0, r0, r0, ror r6
  200370:	00200670 	eoreq	r0, r0, r0, ror r6
  200374:	002005c0 	eoreq	r0, r0, r0, asr #11
  200378:	00200600 	eoreq	r0, r0, r0, lsl #12
  20037c:	00200728 	eoreq	r0, r0, r8, lsr #14
  200380:	00200728 	eoreq	r0, r0, r8, lsr #14
  200384:	00200728 	eoreq	r0, r0, r8, lsr #14
  200388:	00200728 	eoreq	r0, r0, r8, lsr #14
  20038c:	002005ac 	eoreq	r0, r0, ip, lsr #11
  200390:	002006c4 	eoreq	r0, r0, r4, asr #13
  200394:	002006c4 	eoreq	r0, r0, r4, asr #13
  200398:	002006c4 	eoreq	r0, r0, r4, asr #13
  20039c:	002006c4 	eoreq	r0, r0, r4, asr #13
  2003a0:	002006c4 	eoreq	r0, r0, r4, asr #13
  2003a4:	002006c4 	eoreq	r0, r0, r4, asr #13
  2003a8:	002006c4 	eoreq	r0, r0, r4, asr #13
  2003ac:	002006c4 	eoreq	r0, r0, r4, asr #13
  2003b0:	e1a04005 	mov	r4, r5
  2003b4:	e1a0a005 	mov	sl, r5
  2003b8:	ebffff25 	bl	200054 <uart_recv>
  2003bc:	e350003a 	cmp	r0, #58	; 0x3a
  2003c0:	0a000071 	beq	20058c <notmain+0x2e8>
  2003c4:	e350000d 	cmp	r0, #13
  2003c8:	1350000a 	cmpne	r0, #10
  2003cc:	0a000015 	beq	200428 <notmain+0x184>
  2003d0:	e3c03020 	bic	r3, r0, #32
  2003d4:	e3530047 	cmp	r3, #71	; 0x47
  2003d8:	0a00004f 	beq	20051c <notmain+0x278>
  2003dc:	e3a01002 	mov	r1, #2
  2003e0:	e3500039 	cmp	r0, #57	; 0x39
  2003e4:	82400007 	subhi	r0, r0, #7
  2003e8:	e1a07207 	lsl	r7, r7, #4
  2003ec:	e200000f 	and	r0, r0, #15
  2003f0:	e1807007 	orr	r7, r0, r7
  2003f4:	e20770ff 	and	r7, r7, #255	; 0xff
  2003f8:	eaffffc7 	b	20031c <notmain+0x78>
  2003fc:	e1a04005 	mov	r4, r5
  200400:	e1a0a005 	mov	sl, r5
  200404:	ebffff12 	bl	200054 <uart_recv>
  200408:	e350003a 	cmp	r0, #58	; 0x3a
  20040c:	0affffe9 	beq	2003b8 <notmain+0x114>
  200410:	e350000d 	cmp	r0, #13
  200414:	1350000a 	cmpne	r0, #10
  200418:	0a000002 	beq	200428 <notmain+0x184>
  20041c:	e3c00020 	bic	r0, r0, #32
  200420:	e3500047 	cmp	r0, #71	; 0x47
  200424:	0a00003c 	beq	20051c <notmain+0x278>
  200428:	ebffff09 	bl	200054 <uart_recv>
  20042c:	e350003a 	cmp	r0, #58	; 0x3a
  200430:	0affffe0 	beq	2003b8 <notmain+0x114>
  200434:	e350000d 	cmp	r0, #13
  200438:	0afffff1 	beq	200404 <notmain+0x160>
  20043c:	e350000a 	cmp	r0, #10
  200440:	0a000049 	beq	20056c <notmain+0x2c8>
  200444:	e3c00020 	bic	r0, r0, #32
  200448:	e3500047 	cmp	r0, #71	; 0x47
  20044c:	0a000032 	beq	20051c <notmain+0x278>
  200450:	ebfffeff 	bl	200054 <uart_recv>
  200454:	e350003a 	cmp	r0, #58	; 0x3a
  200458:	0affffd6 	beq	2003b8 <notmain+0x114>
  20045c:	e350000d 	cmp	r0, #13
  200460:	0affffe7 	beq	200404 <notmain+0x160>
  200464:	e350000a 	cmp	r0, #10
  200468:	0a00003f 	beq	20056c <notmain+0x2c8>
  20046c:	e3c00020 	bic	r0, r0, #32
  200470:	e3500047 	cmp	r0, #71	; 0x47
  200474:	0a000028 	beq	20051c <notmain+0x278>
  200478:	ebfffef5 	bl	200054 <uart_recv>
  20047c:	e350003a 	cmp	r0, #58	; 0x3a
  200480:	0affffcc 	beq	2003b8 <notmain+0x114>
  200484:	e350000d 	cmp	r0, #13
  200488:	0affffdd 	beq	200404 <notmain+0x160>
  20048c:	e350000a 	cmp	r0, #10
  200490:	0a000035 	beq	20056c <notmain+0x2c8>
  200494:	e3c00020 	bic	r0, r0, #32
  200498:	e3500047 	cmp	r0, #71	; 0x47
  20049c:	0a00001e 	beq	20051c <notmain+0x278>
  2004a0:	e3a01000 	mov	r1, #0
  2004a4:	eaffff9c 	b	20031c <notmain+0x78>
  2004a8:	e0291869 	eor	r1, r9, r9, ror #16
  2004ac:	e1a01421 	lsr	r1, r1, #8
  2004b0:	e3c11cff 	bic	r1, r1, #65280	; 0xff00
  2004b4:	e0219469 	eor	r9, r1, r9, ror #8
  2004b8:	e1a09339 	lsr	r9, r9, r3
  2004bc:	e1a00008 	mov	r0, r8
  2004c0:	e1a01009 	mov	r1, r9
  2004c4:	e58d300c 	str	r3, [sp, #12]
  2004c8:	e58d2004 	str	r2, [sp, #4]
  2004cc:	ebfffece 	bl	20000c <PUT32>
  2004d0:	e59d3008 	ldr	r3, [sp, #8]
  2004d4:	e0891008 	add	r1, r9, r8
  2004d8:	e0833001 	add	r3, r3, r1
  2004dc:	e58d3008 	str	r3, [sp, #8]
  2004e0:	ebfffedb 	bl	200054 <uart_recv>
  2004e4:	e350003a 	cmp	r0, #58	; 0x3a
  2004e8:	e2888004 	add	r8, r8, #4
  2004ec:	0a0000bc 	beq	2007e4 <notmain+0x540>
  2004f0:	e350000d 	cmp	r0, #13
  2004f4:	1350000a 	cmpne	r0, #10
  2004f8:	03a04001 	moveq	r4, #1
  2004fc:	13a04000 	movne	r4, #0
  200500:	0a00008f 	beq	200744 <notmain+0x4a0>
  200504:	e3c01020 	bic	r1, r0, #32
  200508:	e3510047 	cmp	r1, #71	; 0x47
  20050c:	e59d2004 	ldr	r2, [sp, #4]
  200510:	e3a0100e 	mov	r1, #14
  200514:	e59d300c 	ldr	r3, [sp, #12]
  200518:	1a00006d 	bne	2006d4 <notmain+0x430>
  20051c:	e3a0000d 	mov	r0, #13
  200520:	ebfffede 	bl	2000a0 <uart_send>
  200524:	e3a0002d 	mov	r0, #45	; 0x2d
  200528:	ebfffedc 	bl	2000a0 <uart_send>
  20052c:	e3a0002d 	mov	r0, #45	; 0x2d
  200530:	ebfffeda 	bl	2000a0 <uart_send>
  200534:	e3a0000d 	mov	r0, #13
  200538:	ebfffed8 	bl	2000a0 <uart_send>
  20053c:	e3a0000a 	mov	r0, #10
  200540:	ebfffed6 	bl	2000a0 <uart_send>
  200544:	e3a0000a 	mov	r0, #10
  200548:	ebfffed4 	bl	2000a0 <uart_send>
  20054c:	e3a00902 	mov	r0, #32768	; 0x8000
  200550:	ebfffeb7 	bl	200034 <BRANCHTO>
  200554:	e3a00000 	mov	r0, #0
  200558:	e28dd014 	add	sp, sp, #20
  20055c:	e8bd4ff0 	pop	{r4, r5, r6, r7, r8, r9, sl, fp, lr}
  200560:	e12fff1e 	bx	lr
  200564:	e1a04005 	mov	r4, r5
  200568:	e1a0a005 	mov	sl, r5
  20056c:	ebfffeb8 	bl	200054 <uart_recv>
  200570:	e350003a 	cmp	r0, #58	; 0x3a
  200574:	0affff8f 	beq	2003b8 <notmain+0x114>
  200578:	e350000d 	cmp	r0, #13
  20057c:	0affffa0 	beq	200404 <notmain+0x160>
  200580:	e350000a 	cmp	r0, #10
  200584:	1affffa4 	bne	20041c <notmain+0x178>
  200588:	eaffffa6 	b	200428 <notmain+0x184>
  20058c:	ebfffeb0 	bl	200054 <uart_recv>
  200590:	e350003a 	cmp	r0, #58	; 0x3a
  200594:	0affff87 	beq	2003b8 <notmain+0x114>
  200598:	e350000d 	cmp	r0, #13
  20059c:	0affff98 	beq	200404 <notmain+0x160>
  2005a0:	e350000a 	cmp	r0, #10
  2005a4:	1affff89 	bne	2003d0 <notmain+0x12c>
  2005a8:	eaffffef 	b	20056c <notmain+0x2c8>
  2005ac:	ebfffea8 	bl	200054 <uart_recv>
  2005b0:	e350003a 	cmp	r0, #58	; 0x3a
  2005b4:	e1a06206 	lsl	r6, r6, #4
  2005b8:	1affff94 	bne	200410 <notmain+0x16c>
  2005bc:	eaffff7d 	b	2003b8 <notmain+0x114>
  2005c0:	e3500039 	cmp	r0, #57	; 0x39
  2005c4:	82400007 	subhi	r0, r0, #7
  2005c8:	e200000f 	and	r0, r0, #15
  2005cc:	e1a05205 	lsl	r5, r5, #4
  2005d0:	e1805005 	orr	r5, r0, r5
  2005d4:	ebfffe9e 	bl	200054 <uart_recv>
  2005d8:	e350003a 	cmp	r0, #58	; 0x3a
  2005dc:	e20550ff 	and	r5, r5, #255	; 0xff
  2005e0:	0affff74 	beq	2003b8 <notmain+0x114>
  2005e4:	e350000d 	cmp	r0, #13
  2005e8:	0affff85 	beq	200404 <notmain+0x160>
  2005ec:	e350000a 	cmp	r0, #10
  2005f0:	0affffdd 	beq	20056c <notmain+0x2c8>
  2005f4:	e3c03020 	bic	r3, r0, #32
  2005f8:	e3530047 	cmp	r3, #71	; 0x47
  2005fc:	0affffc6 	beq	20051c <notmain+0x278>
  200600:	e3500039 	cmp	r0, #57	; 0x39
  200604:	82400007 	subhi	r0, r0, #7
  200608:	e1a05205 	lsl	r5, r5, #4
  20060c:	e200000f 	and	r0, r0, #15
  200610:	e1805005 	orr	r5, r0, r5
  200614:	e20550ff 	and	r5, r5, #255	; 0xff
  200618:	e3550001 	cmp	r5, #1
  20061c:	0a00003b 	beq	200710 <notmain+0x46c>
  200620:	3a00001b 	bcc	200694 <notmain+0x3f0>
  200624:	e3550002 	cmp	r5, #2
  200628:	1affff75 	bne	200404 <notmain+0x160>
  20062c:	ebfffe88 	bl	200054 <uart_recv>
  200630:	e350003a 	cmp	r0, #58	; 0x3a
  200634:	0affff5f 	beq	2003b8 <notmain+0x114>
  200638:	e350000d 	cmp	r0, #13
  20063c:	1350000a 	cmpne	r0, #10
  200640:	0affff78 	beq	200428 <notmain+0x184>
  200644:	e3c03020 	bic	r3, r0, #32
  200648:	e3530047 	cmp	r3, #71	; 0x47
  20064c:	0affffb2 	beq	20051c <notmain+0x278>
  200650:	e3a0100a 	mov	r1, #10
  200654:	e3500039 	cmp	r0, #57	; 0x39
  200658:	82400007 	subhi	r0, r0, #7
  20065c:	e1a06206 	lsl	r6, r6, #4
  200660:	e200000f 	and	r0, r0, #15
  200664:	e1806006 	orr	r6, r0, r6
  200668:	e006600b 	and	r6, r6, fp
  20066c:	eaffff2a 	b	20031c <notmain+0x78>
  200670:	e3500039 	cmp	r0, #57	; 0x39
  200674:	82400007 	subhi	r0, r0, #7
  200678:	e1a08208 	lsl	r8, r8, #4
  20067c:	e200000f 	and	r0, r0, #15
  200680:	e1808008 	orr	r8, r0, r8
  200684:	e008800b 	and	r8, r8, fp
  200688:	e1868008 	orr	r8, r6, r8
  20068c:	e2811001 	add	r1, r1, #1
  200690:	eaffff21 	b	20031c <notmain+0x78>
  200694:	ebfffe6e 	bl	200054 <uart_recv>
  200698:	e350003a 	cmp	r0, #58	; 0x3a
  20069c:	0a00004d 	beq	2007d8 <notmain+0x534>
  2006a0:	e350000d 	cmp	r0, #13
  2006a4:	1350000a 	cmpne	r0, #10
  2006a8:	0a000028 	beq	200750 <notmain+0x4ac>
  2006ac:	e3c03020 	bic	r3, r0, #32
  2006b0:	e3530047 	cmp	r3, #71	; 0x47
  2006b4:	0affff98 	beq	20051c <notmain+0x278>
  2006b8:	e1a04005 	mov	r4, r5
  2006bc:	e3a0100e 	mov	r1, #14
  2006c0:	e1a0a005 	mov	sl, r5
  2006c4:	e2073003 	and	r3, r7, #3
  2006c8:	e2633004 	rsb	r3, r3, #4
  2006cc:	e1a03183 	lsl	r3, r3, #3
  2006d0:	e1a02087 	lsl	r2, r7, #1
  2006d4:	e152000a 	cmp	r2, sl
  2006d8:	3affff0f 	bcc	20031c <notmain+0x78>
  2006dc:	e3500039 	cmp	r0, #57	; 0x39
  2006e0:	82400007 	subhi	r0, r0, #7
  2006e4:	e2844001 	add	r4, r4, #1
  2006e8:	e1a09209 	lsl	r9, r9, #4
  2006ec:	e200000f 	and	r0, r0, #15
  2006f0:	e3540008 	cmp	r4, #8
  2006f4:	e28aa001 	add	sl, sl, #1
  2006f8:	e1809009 	orr	r9, r0, r9
  2006fc:	0a00000b 	beq	200730 <notmain+0x48c>
  200700:	e152000a 	cmp	r2, sl
  200704:	0affff67 	beq	2004a8 <notmain+0x204>
  200708:	e2811001 	add	r1, r1, #1
  20070c:	eaffff02 	b	20031c <notmain+0x78>
  200710:	e59d0008 	ldr	r0, [sp, #8]
  200714:	ebfffe85 	bl	200130 <hexstring>
  200718:	ebfffe4d 	bl	200054 <uart_recv>
  20071c:	e350003a 	cmp	r0, #58	; 0x3a
  200720:	1affff3a 	bne	200410 <notmain+0x16c>
  200724:	eaffff23 	b	2003b8 <notmain+0x114>
  200728:	e2811001 	add	r1, r1, #1
  20072c:	eaffffc8 	b	200654 <notmain+0x3b0>
  200730:	e0291869 	eor	r1, r9, r9, ror #16
  200734:	e1a01421 	lsr	r1, r1, #8
  200738:	e3c11cff 	bic	r1, r1, #65280	; 0xff00
  20073c:	e0219469 	eor	r9, r1, r9, ror #8
  200740:	eaffff5d 	b	2004bc <notmain+0x218>
  200744:	e3a04000 	mov	r4, #0
  200748:	e1a01004 	mov	r1, r4
  20074c:	eafffef2 	b	20031c <notmain+0x78>
  200750:	ebfffe3f 	bl	200054 <uart_recv>
  200754:	e350003a 	cmp	r0, #58	; 0x3a
  200758:	0a00001e 	beq	2007d8 <notmain+0x534>
  20075c:	e350000d 	cmp	r0, #13
  200760:	0affff25 	beq	2003fc <notmain+0x158>
  200764:	e350000a 	cmp	r0, #10
  200768:	0a000021 	beq	2007f4 <notmain+0x550>
  20076c:	e3c00020 	bic	r0, r0, #32
  200770:	e3500047 	cmp	r0, #71	; 0x47
  200774:	0affff68 	beq	20051c <notmain+0x278>
  200778:	ebfffe35 	bl	200054 <uart_recv>
  20077c:	e350003a 	cmp	r0, #58	; 0x3a
  200780:	0a000014 	beq	2007d8 <notmain+0x534>
  200784:	e350000d 	cmp	r0, #13
  200788:	0a00001c 	beq	200800 <notmain+0x55c>
  20078c:	e350000a 	cmp	r0, #10
  200790:	0affff73 	beq	200564 <notmain+0x2c0>
  200794:	e3c00020 	bic	r0, r0, #32
  200798:	e3500047 	cmp	r0, #71	; 0x47
  20079c:	0affff5e 	beq	20051c <notmain+0x278>
  2007a0:	ebfffe2b 	bl	200054 <uart_recv>
  2007a4:	e350003a 	cmp	r0, #58	; 0x3a
  2007a8:	0affff00 	beq	2003b0 <notmain+0x10c>
  2007ac:	e350000d 	cmp	r0, #13
  2007b0:	0a000012 	beq	200800 <notmain+0x55c>
  2007b4:	e350000a 	cmp	r0, #10
  2007b8:	0affff69 	beq	200564 <notmain+0x2c0>
  2007bc:	e3c00020 	bic	r0, r0, #32
  2007c0:	e3500047 	cmp	r0, #71	; 0x47
  2007c4:	0affff54 	beq	20051c <notmain+0x278>
  2007c8:	e1a04005 	mov	r4, r5
  2007cc:	e1a0a005 	mov	sl, r5
  2007d0:	e1a01005 	mov	r1, r5
  2007d4:	eafffed0 	b	20031c <notmain+0x78>
  2007d8:	e1a04005 	mov	r4, r5
  2007dc:	e1a0a005 	mov	sl, r5
  2007e0:	eafffef4 	b	2003b8 <notmain+0x114>
  2007e4:	e3a04000 	mov	r4, #0
  2007e8:	eafffef2 	b	2003b8 <notmain+0x114>
  2007ec:	e2811001 	add	r1, r1, #1
  2007f0:	eafffefa 	b	2003e0 <notmain+0x13c>
  2007f4:	e1a04005 	mov	r4, r5
  2007f8:	e1a0a005 	mov	sl, r5
  2007fc:	eaffff5a 	b	20056c <notmain+0x2c8>
  200800:	e1a04005 	mov	r4, r5
  200804:	e1a0a005 	mov	sl, r5
  200808:	eafffefd 	b	200404 <notmain+0x160>
  20080c:	12345678 	eorsne	r5, r4, #120, 12	; 0x7800000
  200810:	0000ffff 	strdeq	pc, [r0], -pc	; <UNPREDICTABLE>

Disassembly of section .ARM.attributes:

00000000 <.ARM.attributes>:
   0:	00002a41 	andeq	r2, r0, r1, asr #20
   4:	61656100 	cmnvs	r5, r0, lsl #2
   8:	01006962 	tsteq	r0, r2, ror #18
   c:	00000020 	andeq	r0, r0, r0, lsr #32
  10:	4d524105 	ldfmie	f4, [r2, #-20]	; 0xffffffec
  14:	54347620 	ldrtpl	r7, [r4], #-1568	; 0xfffff9e0
  18:	08020600 	stmdaeq	r2, {r9, sl}
  1c:	12010901 	andne	r0, r1, #16384	; 0x4000
  20:	15011404 	strne	r1, [r1, #-1028]	; 0xfffffbfc
  24:	18031701 	stmdane	r3, {r0, r8, r9, sl, ip}
  28:	Address 0x0000000000000028 is out of bounds.


Disassembly of section .comment:

00000000 <.comment>:
   0:	3a434347 	bcc	10d0d24 <notmain+0xed0a80>
   4:	4e472820 	cdpmi	8, 4, cr2, cr7, cr0, {1}
   8:	35202955 	strcc	r2, [r0, #-2389]!	; 0xfffff6ab
   c:	302e332e 	eorcc	r3, lr, lr, lsr #6
  10:	43434700 	movtmi	r4, #14080	; 0x3700
  14:	4728203a 			; <UNDEFINED> instruction: 0x4728203a
  18:	5420554e 	strtpl	r5, [r0], #-1358	; 0xfffffab2
  1c:	736c6f6f 	cmnvc	ip, #444	; 0x1bc
  20:	726f6620 	rsbvc	r6, pc, #32, 12	; 0x2000000
  24:	6d724120 	ldfvse	f4, [r2, #-128]!	; 0xffffff80
  28:	626d4520 	rsbvs	r4, sp, #32, 10	; 0x8000000
  2c:	65646465 	strbvs	r6, [r4, #-1125]!	; 0xfffffb9b
  30:	72502064 	subsvc	r2, r0, #100	; 0x64
  34:	7365636f 	cmnvc	r5, #-1140850687	; 0xbc000001
  38:	73726f73 	cmnvc	r2, #460	; 0x1cc
  3c:	322d3720 	eorcc	r3, sp, #32, 14	; 0x800000
  40:	2d383130 	ldfcss	f3, [r8, #-192]!	; 0xffffff40
  44:	752d3271 	strvc	r3, [sp, #-625]!	; 0xfffffd8f
  48:	74616470 	strbtvc	r6, [r1], #-1136	; 0xfffffb90
  4c:	37202965 	strcc	r2, [r0, -r5, ror #18]!
  50:	312e332e 			; <UNDEFINED> instruction: 0x312e332e
  54:	31303220 	teqcc	r0, r0, lsr #4
  58:	32363038 	eorscc	r3, r6, #56	; 0x38
  5c:	72282032 	eorvc	r2, r8, #50	; 0x32
  60:	61656c65 	cmnvs	r5, r5, ror #24
  64:	20296573 	eorcs	r6, r9, r3, ror r5
  68:	4d52415b 	ldfmie	f4, [r2, #-364]	; 0xfffffe94
  6c:	626d652f 	rsbvs	r6, sp, #197132288	; 0xbc00000
  70:	65646465 	strbvs	r6, [r4, #-1125]!	; 0xfffffb9b
  74:	2d372d64 	ldccs	13, cr2, [r7, #-400]!	; 0xfffffe70
  78:	6e617262 	cdpvs	2, 6, cr7, cr1, cr2, {3}
  7c:	72206863 	eorvc	r6, r0, #6488064	; 0x630000
  80:	73697665 	cmnvc	r9, #105906176	; 0x6500000
  84:	206e6f69 	rsbcs	r6, lr, r9, ror #30
  88:	39313632 	ldmdbcc	r1!, {r1, r4, r5, r9, sl, ip, sp}
  8c:	005d3730 	subseq	r3, sp, r0, lsr r7
